gplink-2.2.37 (Jan 22 2024)
Listing File Generated: 2025-3-19  18:45:52
 
 
Address  Value    Disassembly              Source
-------  -----    -----------              ------
                                           ;--------------------------------------------------------
                                           ; external declarations
                                           ;--------------------------------------------------------
                                           	extern	_INDF0bits
                                           	extern	_INDF1bits
                                           	extern	_INDF2bits
                                           	extern	_HIBYTEbits
                                           	extern	_FSR0bits
                                           	extern	_FSR1bits
                                           	extern	_PCLbits
                                           	extern	_PFLAGbits
                                           	extern	_MCRbits
                                           	extern	_INDF3bits
                                           	extern	_INTEbits
                                           	extern	_INTFbits
                                           	extern	_DRVCRbits
                                           	extern	_P0KBCRbits
                                           	extern	_P1KBCRbits
                                           	extern	_P2KBCRbits
                                           	extern	_IOP0bits
                                           	extern	_OEP0bits
                                           	extern	_PUP0bits
                                           	extern	_PDP0bits
                                           	extern	_IOP1bits
                                           	extern	_OEP1bits
                                           	extern	_PUP1bits
                                           	extern	_PDP1bits
                                           	extern	_T0CRbits
                                           	extern	_T0CNTbits
                                           	extern	_T0LOADbits
                                           	extern	_T0DATAbits
                                           	extern	_T1CRbits
                                           	extern	_T1CNTbits
                                           	extern	_T1LOADbits
                                           	extern	_T1DATAbits
                                           	extern	_T2CRbits
                                           	extern	_T2CNTbits
                                           	extern	_T2LOADbits
                                           	extern	_T2DATAbits
                                           	extern	_T3CRbits
                                           	extern	_T3CNTbits
                                           	extern	_T3LOADbits
                                           	extern	_PWM0DRbits
                                           	extern	_PWM1DRbits
                                           	extern	_PWM2DRbits
                                           	extern	_PWMCR0bits
                                           	extern	_PWMCR1bits
                                           	extern	_OSCMRbits
                                           	extern	_LVDCRbits
                                           	extern	_ADCR0bits
                                           	extern	_ADCR1bits
                                           	extern	_ADCR2bits
                                           	extern	_OSADJCRbits
                                           	extern	_ADRHbits
                                           	extern	_ADRLbits
                                           	extern	_P0ADCRbits
                                           	extern	_P1ADCRbits
                                           	extern	_IOP2bits
                                           	extern	_OEP2bits
                                           	extern	_PUP2bits
                                           	extern	_PDP2bits
                                           	extern	_PMODbits
                                           	extern	_PWMCR3bits
                                           	extern	_PWMCR2bits
                                           	extern	_PFRCCRbits
                                           	extern	_PFRCCALbits
                                           	extern	_EECRbits
                                           	extern	_EEPRbits
                                           	extern	_EEARbits
                                           	extern	_EEDRHbits
                                           	extern	_EEDRLbits
                                           	extern	_DBGCRbits
                                           	extern	_DBGPRbits
                                           	extern	_HIRCCALbits
                                           	extern	_INDF0
                                           	extern	_INDF1
                                           	extern	_INDF2
                                           	extern	_HIBYTE
                                           	extern	_FSR0
                                           	extern	_FSR1
                                           	extern	_PCL
                                           	extern	_PFLAG
                                           	extern	_MCR
                                           	extern	_INDF3
                                           	extern	_INTE
                                           	extern	_INTF
                                           	extern	_DRVCR
                                           	extern	_P0KBCR
                                           	extern	_P1KBCR
                                           	extern	_P2KBCR
                                           	extern	_IOP0
                                           	extern	_OEP0
                                           	extern	_PUP0
                                           	extern	_PDP0
                                           	extern	_IOP1
                                           	extern	_OEP1
                                           	extern	_PUP1
                                           	extern	_PDP1
                                           	extern	_T0CR
                                           	extern	_T0CNT
                                           	extern	_T0LOAD
                                           	extern	_T0DATA
                                           	extern	_T1CR
                                           	extern	_T1CNT
                                           	extern	_T1LOAD
                                           	extern	_T1DATA
                                           	extern	_T2CR
                                           	extern	_T2CNT
                                           	extern	_T2LOAD
                                           	extern	_T2DATA
                                           	extern	_T3CR
                                           	extern	_T3CNT
                                           	extern	_T3LOAD
                                           	extern	_PWM0DR
                                           	extern	_PWM1DR
                                           	extern	_PWM2DR
                                           	extern	_PWMCR0
                                           	extern	_PWMCR1
                                           	extern	_OSCMR
                                           	extern	_LVDCR
                                           	extern	_ADCR0
                                           	extern	_ADCR1
                                           	extern	_ADCR2
                                           	extern	_OSADJCR
                                           	extern	_ADRH
                                           	extern	_ADRL
                                           	extern	_P0ADCR
                                           	extern	_P1ADCR
                                           	extern	_IOP2
                                           	extern	_OEP2
                                           	extern	_PUP2
                                           	extern	_PDP2
                                           	extern	_PMOD
                                           	extern	_PWMCR3
                                           	extern	_PWMCR2
                                           	extern	_PFRCCR
                                           	extern	_PFRCCAL
                                           	extern	_EECR
                                           	extern	_EEPR
                                           	extern	_EEAR
                                           	extern	_EEDRH
                                           	extern	_EEDRL
                                           	extern	_DBGCR
                                           	extern	_DBGPR
                                           	extern	_HIRCCAL
                                           ;--------------------------------------------------------
                                           ; global declarations
                                           ;--------------------------------------------------------
                                           	global	_delay_ms
                                           	global	_CLR_RAM
                                           	global	_IO_Init
                                           	global	_adc_config
                                           	global	_timer0_pwm_config
                                           	global	_set_timer0_pwm_when_detecting
                                           	global	_set_timer0_pwm_when_charging
                                           	global	_timer3_config
                                           	global	_adc_sel_channel
                                           	global	_adc_get_val
                                           	global	_Sys_Init
                                           	global	_is_in_charging
                                           	global	_is_open_lid
                                           	global	_is_detect_load
                                           	global	_stop_charging_the_host
                                           	global	_low_power_scan_handle
                                           	global	_main
                                           	global	_int_isr
                                           	global	_cur_dev_status
                                           	global	_detect_load_cnt
                                           	global	_undetect_load_cnt
                                           	global	_abuf
                                           	global	_statusbuf
                                           	global	_i
                                           	global	_cnt
                                           	global	_ret_u8
                                           	global	_adc_val
                                           	global	_tmp_val
                                           	global	_flag1
                                           
                                           	global STK06
                                           	global STK05
                                           	global STK04
                                           	global STK03
                                           	global STK02
                                           	global STK01
                                           	global STK00
                                           
                                           sharebank udata_ovr 0x0000
                                           STK06	res 1
                                           STK05	res 1
                                           STK04	res 1
                                           STK03	res 1
                                           STK02	res 1
                                           STK01	res 1
                                           STK00	res 1
                                           
                                           ;--------------------------------------------------------
                                           ; global definitions
                                           ;--------------------------------------------------------
                                           UD_MC32F7361_0	udata
                                           _cur_dev_status	res	1
                                           
                                           UD_MC32F7361_1	udata
                                           _detect_load_cnt	res	4
                                           
                                           UD_MC32F7361_2	udata
                                           _undetect_load_cnt	res	4
                                           
                                           UD_MC32F7361_3	udata
                                           _abuf	res	1
                                           
                                           UD_MC32F7361_4	udata
                                           _statusbuf	res	1
                                           
                                           UD_MC32F7361_5	udata
                                           _i	res	1
                                           
                                           UD_MC32F7361_6	udata
                                           _cnt	res	1
                                           
                                           UD_MC32F7361_7	udata
                                           _ret_u8	res	1
                                           
                                           UD_MC32F7361_8	udata
                                           _adc_val	res	2
                                           
                                           UD_MC32F7361_9	udata
                                           _tmp_val	res	2
                                           
                                           UD_MC32F7361_10	udata
                                           _flag1	res	1
                                           
                                           ;--------------------------------------------------------
                                           ; absolute symbol definitions
                                           ;--------------------------------------------------------
                                           ;--------------------------------------------------------
                                           ; compiler-defined variables
                                           ;--------------------------------------------------------
                                           UDL_MC32F7361_0	udata
                                           r0x101D	res	1
                                           r0x101C	res	1
                                           r0x101E	res	1
                                           r0x101F	res	1
                                           r0x1020	res	1
                                           r0x1021	res	1
                                           r0x1022	res	1
                                           r0x1023	res	1
                                           r0x1024	res	1
                                           r0x1025	res	1
                                           r0x1026	res	1
                                           r0x1028	res	1
                                           r0x1027	res	1
                                           r0x1029	res	1
                                           r0x102A	res	1
                                           r0x102B	res	1
                                           r0x102C	res	1
                                           r0x102D	res	1
                                           r0x102E	res	1
                                           r0x102F	res	1
                                           r0x1033	res	1
                                           r0x1032	res	1
                                           r0x1031	res	1
                                           r0x1030	res	1
                                           r0x1034	res	1
                                           r0x1035	res	1
                                           r0x1036	res	1
                                           r0x1037	res	1
                                           r0x103B	res	1
                                           r0x103A	res	1
                                           r0x1039	res	1
                                           r0x1038	res	1
                                           r0x103C	res	1
                                           r0x103D	res	1
                                           _adc_sel_channel_last_adc_channel_65536_22	res	1
                                           _is_in_charging_last_status_65536_32	res	1
                                           _is_open_lid_last_status_65536_47	res	1
                                           _main___detect_ms_cnt_327680_106	res	2
                                           _main___lid_status_196608_128	res	1
                                           _main___flag_detect_load_status_196608_128	res	1
                                           _int_isr_detect_load_cnt_ms_196608_157	res	2
                                           _int_isr_blink_cnt_196608_161	res	2
                                           _int_isr_fully_charged_cnt_196608_161	res	2
                                           _int_isr_led_green_blink_cnt_196608_177	res	2
                                           ;--------------------------------------------------------
                                           ; initialized data
                                           ;--------------------------------------------------------
                                           
                                           ;@Allocation info for local variables in function 'delay_ms'
                                           ;@delay_ms delay_ms                  Allocated to registers ;size:2
                                           ;@delay_ms INDF0bits                 Allocated to registers ;size:1
                                           ;@delay_ms INDF1bits                 Allocated to registers ;size:1
                                           ;@delay_ms INDF2bits                 Allocated to registers ;size:1
                                           ;@delay_ms HIBYTEbits                Allocated to registers ;size:1
                                           ;@delay_ms FSR0bits                  Allocated to registers ;size:1
                                           ;@delay_ms FSR1bits                  Allocated to registers ;size:1
                                           ;@delay_ms PCLbits                   Allocated to registers ;size:1
                                           ;@delay_ms PFLAGbits                 Allocated to registers ;size:1
                                           ;@delay_ms MCRbits                   Allocated to registers ;size:1
                                           ;@delay_ms INDF3bits                 Allocated to registers ;size:1
                                           ;@delay_ms INTEbits                  Allocated to registers ;size:1
                                           ;@delay_ms INTFbits                  Allocated to registers ;size:1
                                           ;@delay_ms DRVCRbits                 Allocated to registers ;size:1
                                           ;@delay_ms P0KBCRbits                Allocated to registers ;size:1
                                           ;@delay_ms P1KBCRbits                Allocated to registers ;size:1
                                           ;@delay_ms P2KBCRbits                Allocated to registers ;size:1
                                           ;@delay_ms IOP0bits                  Allocated to registers ;size:1
                                           ;@delay_ms OEP0bits                  Allocated to registers ;size:1
                                           ;@delay_ms PUP0bits                  Allocated to registers ;size:1
                                           ;@delay_ms PDP0bits                  Allocated to registers ;size:1
                                           ;@delay_ms IOP1bits                  Allocated to registers ;size:1
                                           ;@delay_ms OEP1bits                  Allocated to registers ;size:1
                                           ;@delay_ms PUP1bits                  Allocated to registers ;size:1
                                           ;@delay_ms PDP1bits                  Allocated to registers ;size:1
                                           ;@delay_ms T0CRbits                  Allocated to registers ;size:1
                                           ;@delay_ms T0CNTbits                 Allocated to registers ;size:1
                                           ;@delay_ms T0LOADbits                Allocated to registers ;size:1
                                           ;@delay_ms T0DATAbits                Allocated to registers ;size:1
                                           ;@delay_ms T1CRbits                  Allocated to registers ;size:1
                                           ;@delay_ms T1CNTbits                 Allocated to registers ;size:1
                                           ;@delay_ms T1LOADbits                Allocated to registers ;size:1
                                           ;@delay_ms T1DATAbits                Allocated to registers ;size:1
                                           ;@delay_ms T2CRbits                  Allocated to registers ;size:1
                                           ;@delay_ms T2CNTbits                 Allocated to registers ;size:1
                                           ;@delay_ms T2LOADbits                Allocated to registers ;size:1
                                           ;@delay_ms T2DATAbits                Allocated to registers ;size:1
                                           ;@delay_ms T3CRbits                  Allocated to registers ;size:1
                                           ;@delay_ms T3CNTbits                 Allocated to registers ;size:1
                                           ;@delay_ms T3LOADbits                Allocated to registers ;size:1
                                           ;@delay_ms PWM0DRbits                Allocated to registers ;size:1
                                           ;@delay_ms PWM1DRbits                Allocated to registers ;size:1
                                           ;@delay_ms PWM2DRbits                Allocated to registers ;size:1
                                           ;@delay_ms PWMCR0bits                Allocated to registers ;size:1
                                           ;@delay_ms PWMCR1bits                Allocated to registers ;size:1
                                           ;@delay_ms OSCMRbits                 Allocated to registers ;size:1
                                           ;@delay_ms LVDCRbits                 Allocated to registers ;size:1
                                           ;@delay_ms ADCR0bits                 Allocated to registers ;size:1
                                           ;@delay_ms ADCR1bits                 Allocated to registers ;size:1
                                           ;@delay_ms ADCR2bits                 Allocated to registers ;size:1
                                           ;@delay_ms OSADJCRbits               Allocated to registers ;size:1
                                           ;@delay_ms ADRHbits                  Allocated to registers ;size:1
                                           ;@delay_ms ADRLbits                  Allocated to registers ;size:1
                                           ;@delay_ms P0ADCRbits                Allocated to registers ;size:1
                                           ;@delay_ms P1ADCRbits                Allocated to registers ;size:1
                                           ;@delay_ms IOP2bits                  Allocated to registers ;size:1
                                           ;@delay_ms OEP2bits                  Allocated to registers ;size:1
                                           ;@delay_ms PUP2bits                  Allocated to registers ;size:1
                                           ;@delay_ms PDP2bits                  Allocated to registers ;size:1
                                           ;@delay_ms PMODbits                  Allocated to registers ;size:1
                                           ;@delay_ms PWMCR3bits                Allocated to registers ;size:1
                                           ;@delay_ms PWMCR2bits                Allocated to registers ;size:1
                                           ;@delay_ms PFRCCRbits                Allocated to registers ;size:1
                                           ;@delay_ms PFRCCALbits               Allocated to registers ;size:1
                                           ;@delay_ms EECRbits                  Allocated to registers ;size:1
                                           ;@delay_ms EEPRbits                  Allocated to registers ;size:1
                                           ;@delay_ms EEARbits                  Allocated to registers ;size:1
                                           ;@delay_ms EEDRHbits                 Allocated to registers ;size:1
                                           ;@delay_ms EEDRLbits                 Allocated to registers ;size:1
                                           ;@delay_ms DBGCRbits                 Allocated to registers ;size:1
                                           ;@delay_ms DBGPRbits                 Allocated to registers ;size:1
                                           ;@delay_ms HIRCCALbits               Allocated to registers ;size:1
                                           ;@delay_ms cur_dev_status            Allocated to registers ;size:1
                                           ;@delay_ms detect_load_cnt           Allocated to registers ;size:4
                                           ;@delay_ms undetect_load_cnt         Allocated to registers ;size:4
                                           ;@delay_ms abuf                      Allocated to registers ;size:1
                                           ;@delay_ms statusbuf                 Allocated to registers ;size:1
                                           ;@delay_ms i                         Allocated to registers ;size:1
                                           ;@delay_ms cnt                       Allocated to registers ;size:1
                                           ;@delay_ms ret_u8                    Allocated to registers ;size:1
                                           ;@delay_ms adc_val                   Allocated to registers ;size:2
                                           ;@delay_ms tmp_val                   Allocated to registers ;size:2
                                           ;@delay_ms flag1                     Allocated to registers ;size:1
                                           ;@delay_ms xms                       Allocated to registers ;size:2
                                           ;@delay_ms i                         Allocated to registers r0x101E r0x101F ;size:2
                                           ;@delay_ms INDF0                     Allocated to registers ;size:1
                                           ;@delay_ms INDF1                     Allocated to registers ;size:1
                                           ;@delay_ms INDF2                     Allocated to registers ;size:1
                                           ;@delay_ms HIBYTE                    Allocated to registers ;size:1
                                           ;@delay_ms FSR0                      Allocated to registers ;size:1
                                           ;@delay_ms FSR1                      Allocated to registers ;size:1
                                           ;@delay_ms PCL                       Allocated to registers ;size:1
                                           ;@delay_ms PFLAG                     Allocated to registers ;size:1
                                           ;@delay_ms MCR                       Allocated to registers ;size:1
                                           ;@delay_ms INDF3                     Allocated to registers ;size:1
                                           ;@delay_ms INTE                      Allocated to registers ;size:1
                                           ;@delay_ms INTF                      Allocated to registers ;size:1
                                           ;@delay_ms DRVCR                     Allocated to registers ;size:1
                                           ;@delay_ms P0KBCR                    Allocated to registers ;size:1
                                           ;@delay_ms P1KBCR                    Allocated to registers ;size:1
                                           ;@delay_ms P2KBCR                    Allocated to registers ;size:1
                                           ;@delay_ms IOP0                      Allocated to registers ;size:1
                                           ;@delay_ms OEP0                      Allocated to registers ;size:1
                                           ;@delay_ms PUP0                      Allocated to registers ;size:1
                                           ;@delay_ms PDP0                      Allocated to registers ;size:1
                                           ;@delay_ms IOP1                      Allocated to registers ;size:1
                                           ;@delay_ms OEP1                      Allocated to registers ;size:1
                                           ;@delay_ms PUP1                      Allocated to registers ;size:1
                                           ;@delay_ms PDP1                      Allocated to registers ;size:1
                                           ;@delay_ms T0CR                      Allocated to registers ;size:1
                                           ;@delay_ms T0CNT                     Allocated to registers ;size:1
                                           ;@delay_ms T0LOAD                    Allocated to registers ;size:1
                                           ;@delay_ms T0DATA                    Allocated to registers ;size:1
                                           ;@delay_ms T1CR                      Allocated to registers ;size:1
                                           ;@delay_ms T1CNT                     Allocated to registers ;size:1
                                           ;@delay_ms T1LOAD                    Allocated to registers ;size:1
                                           ;@delay_ms T1DATA                    Allocated to registers ;size:1
                                           ;@delay_ms T2CR                      Allocated to registers ;size:1
                                           ;@delay_ms T2CNT                     Allocated to registers ;size:1
                                           ;@delay_ms T2LOAD                    Allocated to registers ;size:1
                                           ;@delay_ms T2DATA                    Allocated to registers ;size:1
                                           ;@delay_ms T3CR                      Allocated to registers ;size:1
                                           ;@delay_ms T3CNT                     Allocated to registers ;size:1
                                           ;@delay_ms T3LOAD                    Allocated to registers ;size:1
                                           ;@delay_ms PWM0DR                    Allocated to registers ;size:1
                                           ;@delay_ms PWM1DR                    Allocated to registers ;size:1
                                           ;@delay_ms PWM2DR                    Allocated to registers ;size:1
                                           ;@delay_ms PWMCR0                    Allocated to registers ;size:1
                                           ;@delay_ms PWMCR1                    Allocated to registers ;size:1
                                           ;@delay_ms OSCMR                     Allocated to registers ;size:1
                                           ;@delay_ms LVDCR                     Allocated to registers ;size:1
                                           ;@delay_ms ADCR0                     Allocated to registers ;size:1
                                           ;@delay_ms ADCR1                     Allocated to registers ;size:1
                                           ;@delay_ms ADCR2                     Allocated to registers ;size:1
                                           ;@delay_ms OSADJCR                   Allocated to registers ;size:1
                                           ;@delay_ms ADRH                      Allocated to registers ;size:1
                                           ;@delay_ms ADRL                      Allocated to registers ;size:1
                                           ;@delay_ms P0ADCR                    Allocated to registers ;size:1
                                           ;@delay_ms P1ADCR                    Allocated to registers ;size:1
                                           ;@delay_ms IOP2                      Allocated to registers ;size:1
                                           ;@delay_ms OEP2                      Allocated to registers ;size:1
                                           ;@delay_ms PUP2                      Allocated to registers ;size:1
                                           ;@delay_ms PDP2                      Allocated to registers ;size:1
                                           ;@delay_ms PMOD                      Allocated to registers ;size:1
                                           ;@delay_ms PWMCR3                    Allocated to registers ;size:1
                                           ;@delay_ms PWMCR2                    Allocated to registers ;size:1
                                           ;@delay_ms PFRCCR                    Allocated to registers ;size:1
                                           ;@delay_ms PFRCCAL                   Allocated to registers ;size:1
                                           ;@delay_ms EECR                      Allocated to registers ;size:1
                                           ;@delay_ms EEPR                      Allocated to registers ;size:1
                                           ;@delay_ms EEAR                      Allocated to registers ;size:1
                                           ;@delay_ms EEDRH                     Allocated to registers ;size:1
                                           ;@delay_ms EEDRL                     Allocated to registers ;size:1
                                           ;@delay_ms DBGCR                     Allocated to registers ;size:1
                                           ;@delay_ms DBGPR                     Allocated to registers ;size:1
                                           ;@delay_ms HIRCCAL                   Allocated to registers ;size:1
                                           ;@end Allocation info for local variables in function 'delay_ms';
                                           ;@Allocation info for local variables in function 'CLR_RAM'
                                           ;@end Allocation info for local variables in function 'CLR_RAM';
                                           ;@Allocation info for local variables in function 'IO_Init'
                                           ;@end Allocation info for local variables in function 'IO_Init';
                                           ;@Allocation info for local variables in function 'adc_config'
                                           ;@end Allocation info for local variables in function 'adc_config';
                                           ;@Allocation info for local variables in function 'timer0_pwm_config'
                                           ;@end Allocation info for local variables in function 'timer0_pwm_config';
                                           ;@Allocation info for local variables in function 'set_timer0_pwm_when_detecting'
                                           ;@end Allocation info for local variables in function 'set_timer0_pwm_when_detecting';
                                           ;@Allocation info for local variables in function 'set_timer0_pwm_when_charging'
                                           ;@end Allocation info for local variables in function 'set_timer0_pwm_when_charging';
                                           ;@Allocation info for local variables in function 'timer3_config'
                                           ;@end Allocation info for local variables in function 'timer3_config';
                                           ;@Allocation info for local variables in function 'adc_sel_channel'
                                           ;@adc_sel_channel adc_channel               Allocated to registers r0x1022 ;size:1
                                           ;@adc_sel_channel last_adc_channel          Allocated to registers ;size:1
                                           ;@end Allocation info for local variables in function 'adc_sel_channel';
                                           ;@Allocation info for local variables in function 'adc_sel_channel'
                                           ;@adc_sel_channel adc_channel               Allocated to registers r0x1022 ;size:1
                                           ;@adc_sel_channel last_adc_channel          Allocated to registers ;size:1
                                           ;@end Allocation info for local variables in function 'adc_sel_channel';
                                           ;@Allocation info for local variables in function 'adc_get_val'
                                           ;@adc_get_val i                         Allocated to registers r0x1024 ;size:1
                                           ;@adc_get_val g_temp_value              Allocated to registers r0x1025 r0x1026 ;size:2
                                           ;@adc_get_val g_tmpbuff                 Allocated to registers r0x1020 r0x1021 r0x1027 r0x1029 ;size:4
                                           ;@adc_get_val g_adcmax                  Allocated to registers r0x1020 r0x1021 ;size:2
                                           ;@adc_get_val g_adcmin                  Allocated to registers r0x1022 r0x1023 ;size:2
                                           ;@end Allocation info for local variables in function 'adc_get_val';
                                           ;@Allocation info for local variables in function 'Sys_Init'
                                           ;@end Allocation info for local variables in function 'Sys_Init';
                                           ;@Allocation info for local variables in function 'is_in_charging'
                                           ;@is_in_charging last_status               Allocated to registers ;size:1
                                           ;@is_in_charging ret                       Allocated to registers r0x1022 ;size:1
                                           ;@is_in_charging i                         Allocated to registers r0x1024 ;size:1
                                           ;@is_in_charging cnt                       Allocated to registers r0x1023 ;size:1
                                           ;@end Allocation info for local variables in function 'is_in_charging';
                                           ;@Allocation info for local variables in function 'is_in_charging'
                                           ;@is_in_charging last_status               Allocated to registers ;size:1
                                           ;@is_in_charging ret                       Allocated to registers r0x1022 ;size:1
                                           ;@is_in_charging i                         Allocated to registers r0x1024 ;size:1
                                           ;@is_in_charging cnt                       Allocated to registers r0x1023 ;size:1
                                           ;@end Allocation info for local variables in function 'is_in_charging';
                                           ;@Allocation info for local variables in function 'is_open_lid'
                                           ;@is_open_lid last_status               Allocated to registers ;size:1
                                           ;@is_open_lid ret                       Allocated to registers r0x1022 ;size:1
                                           ;@is_open_lid i                         Allocated to registers r0x1024 ;size:1
                                           ;@is_open_lid cnt                       Allocated to registers r0x1023 ;size:1
                                           ;@end Allocation info for local variables in function 'is_open_lid';
                                           ;@Allocation info for local variables in function 'is_open_lid'
                                           ;@is_open_lid last_status               Allocated to registers ;size:1
                                           ;@is_open_lid ret                       Allocated to registers r0x1022 ;size:1
                                           ;@is_open_lid i                         Allocated to registers r0x1024 ;size:1
                                           ;@is_open_lid cnt                       Allocated to registers r0x1023 ;size:1
                                           ;@end Allocation info for local variables in function 'is_open_lid';
                                           ;@Allocation info for local variables in function 'is_detect_load'
                                           ;@is_detect_load ret                       Allocated to registers r0x102B ;size:1
                                           ;@end Allocation info for local variables in function 'is_detect_load';
                                           ;@Allocation info for local variables in function 'stop_charging_the_host'
                                           ;@end Allocation info for local variables in function 'stop_charging_the_host';
                                           ;@Allocation info for local variables in function 'low_power_scan_handle'
                                           ;@end Allocation info for local variables in function 'low_power_scan_handle';
                                           ;@Allocation info for local variables in function 'main'
                                           ;@main i                         Allocated to registers r0x1034 r0x1035 ;size:2
                                           ;@main __detect_ms_cnt           Allocated to registers ;size:2
                                           ;@main __flag_detect_load_status Allocated to registers ;size:1
                                           ;@main __lid_status              Allocated to registers ;size:1
                                           ;@main i                         Allocated to registers r0x1034 r0x1035 ;size:2
                                           ;@end Allocation info for local variables in function 'main';
                                           ;@Allocation info for local variables in function 'main'
                                           ;@main i                         Allocated to registers r0x1034 r0x1035 ;size:2
                                           ;@main __detect_ms_cnt           Allocated to registers ;size:2
                                           ;@main __flag_detect_load_status Allocated to registers ;size:1
                                           ;@main __lid_status              Allocated to registers ;size:1
                                           ;@main i                         Allocated to registers r0x1034 r0x1035 ;size:2
                                           ;@end Allocation info for local variables in function 'main';
                                           ;@Allocation info for local variables in function 'int_isr'
                                           ;@int_isr detect_load_cnt_ms        Allocated to registers ;size:2
                                           ;@int_isr blink_cnt                 Allocated to registers ;size:2
                                           ;@int_isr fully_charged_cnt         Allocated to registers ;size:2
                                           ;@int_isr led_green_blink_cnt       Allocated to registers ;size:2
                                           ;@end Allocation info for local variables in function 'int_isr';
                                           ;@Allocation info for local variables in function 'int_isr'
                                           ;@int_isr detect_load_cnt_ms        Allocated to registers ;size:2
                                           ;@int_isr blink_cnt                 Allocated to registers ;size:2
                                           ;@int_isr fully_charged_cnt         Allocated to registers ;size:2
                                           ;@int_isr led_green_blink_cnt       Allocated to registers ;size:2
                                           ;@end Allocation info for local variables in function 'int_isr';
                                           
                                           ;--------------------------------------------------------
                                           ; overlayable items in internal ram 
                                           ;--------------------------------------------------------
                                           ;	udata_ovr
                                           ;--------------------------------------------------------
                                           ; reset vector 
                                           ;--------------------------------------------------------
                                           STARTUP	code 0x0000
000000   a0a7     goto    0xa7             	goto	_main
                                           ;--------------------------------------------------------
                                           ; interrupt and initialization code
                                           ;--------------------------------------------------------
                                           c_interrupt	code	0x8
                                           __sdcc_interrupt
                                           ;***
                                           ;  pBlock Stats: dbName = I
                                           ;***
                                           ;entry:  _int_isr	;Function start
                                           ; 0 exit points
                                           ;2 compiler assigned registers:
                                           ;   r0x103C
                                           ;   r0x103D
                                           ;; Starting pCode block
                                           _int_isr	;Function start
                                           ; 0 exit points
                                           ;	.line	1137; "MC32F7361.c"	__endasm;
                                           	;
000008   5645     movra   0x45             	movra	_abuf;
000009   4587     swapar  0x187            	swapar	_PFLAG;
00000a   5646     movra   0x46             	movra	_statusbuf;
                                           	
                                           ;	.line	1139; "MC32F7361.c"	if (KBIF & KBIE)
00000b   7627     clrr    0x27             	CLRR	r0x103C
00000c   f98b     jbclr   0x18b, 0x4       	JBCLR	_INTFbits,4
00000d   6627     incr    0x27             	INCR	r0x103C
00000e   7628     clrr    0x28             	CLRR	r0x103D
00000f   f98a     jbclr   0x18a, 0x4       	JBCLR	_INTEbits,4
000010   6628     incr    0x28             	INCR	r0x103D
000011   5828     movar   0x28             	MOVAR	r0x103D
000012   7a27     andra   0x27             	ANDRA	r0x103C
000013   3c00     movai   0                	MOVAI	0x00
000014   5c27     orar    0x27             	ORAR	r0x103C
000015   f587     jbclr   0x187, 0x2       	JBCLR	PFLAG,2
000016   a018     goto    0x18             	GOTO	_00746_DS_
                                           ;	.line	1141; "MC32F7361.c"	KBIF = 0;
000017   d98b     bclr    0x18b, 0x4       	BCLR	_INTFbits,4
                                           _00746_DS_
                                           ;	.line	1144; "MC32F7361.c"	if (T3IF & T3IE)
000018   7627     clrr    0x27             	CLRR	r0x103C
000019   ff8b     jbclr   0x18b, 0x7       	JBCLR	_INTFbits,7
00001a   6627     incr    0x27             	INCR	r0x103C
00001b   7628     clrr    0x28             	CLRR	r0x103D
00001c   ff8a     jbclr   0x18a, 0x7       	JBCLR	_INTEbits,7
00001d   6628     incr    0x28             	INCR	r0x103D
00001e   5828     movar   0x28             	MOVAR	r0x103D
00001f   7a27     andra   0x27             	ANDRA	r0x103C
000020   3c00     movai   0                	MOVAI	0x00
000021   5c27     orar    0x27             	ORAR	r0x103C
000022   f587     jbclr   0x187, 0x2       	JBCLR	PFLAG,2
000023   a0a2     goto    0xa2             	GOTO	_00801_DS_
                                           ;	.line	1158; "MC32F7361.c"	if (flag_is_enable_detect_load)
000024   e64a     jbset   0x4a, 0x3        	JBSET	_flag1,3
000025   a035     goto    0x35             	GOTO	_00750_DS_
                                           ;	.line	1160; "MC32F7361.c"	detect_load_cnt_ms++;
000026   6630     incr    0x30             	INCR	_int_isr_detect_load_cnt_ms_196608_157
000027   f587     jbclr   0x187, 0x2       	JBCLR	PFLAG,2
000028   6631     incr    0x31             	INCR	(_int_isr_detect_load_cnt_ms_196608_157 + 1)
                                           ;;unsigned compare: left < lit(0x9C4=2500), size=2
                                           ;	.line	1162; "MC32F7361.c"	if (detect_load_cnt_ms >= 2500)
000029   3c09     movai   0x9              	MOVAI	0x09
00002a   4831     rsubar  0x31             	RSUBAR	(_int_isr_detect_load_cnt_ms_196608_157 + 1)
00002b   e587     jbset   0x187, 0x2       	JBSET	PFLAG,2
00002c   a02f     goto    0x2f             	GOTO	_00872_DS_
00002d   3cc4     movai   0xc4             	MOVAI	0xc4
00002e   4830     rsubar  0x30             	RSUBAR	_int_isr_detect_load_cnt_ms_196608_157
                                           _00872_DS_
00002f   e187     jbset   0x187, 0         	JBSET	PFLAG,0
000030   a037     goto    0x37             	GOTO	_00751_DS_
                                           ;;genSkipc:3291: created from rifx:013B5EFC
                                           ;	.line	1164; "MC32F7361.c"	detect_load_cnt_ms = 0;
000031   7630     clrr    0x30             	CLRR	_int_isr_detect_load_cnt_ms_196608_157
000032   7631     clrr    0x31             	CLRR	(_int_isr_detect_load_cnt_ms_196608_157 + 1)
                                           ;	.line	1165; "MC32F7361.c"	flag_tim_set_scan_time_is_arrive = 1;
000033   c84a     bset    0x4a, 0x4        	BSET	_flag1,4
000034   a037     goto    0x37             	GOTO	_00751_DS_
                                           _00750_DS_
                                           ;	.line	1170; "MC32F7361.c"	detect_load_cnt_ms = 0;
000035   7630     clrr    0x30             	CLRR	_int_isr_detect_load_cnt_ms_196608_157
000036   7631     clrr    0x31             	CLRR	(_int_isr_detect_load_cnt_ms_196608_157 + 1)
                                           _00751_DS_
                                           ;	.line	1178; "MC32F7361.c"	if (CUR_STATUS_IN_CHARGING == cur_dev_status && /*  */
000037   5844     movar   0x44             	MOVAR	_cur_dev_status
000038   3902     xorai   0x2              	XORAI	0x02
000039   e587     jbset   0x187, 0x2       	JBSET	PFLAG,2
00003a   a061     goto    0x61             	GOTO	_00779_DS_
                                           ;	.line	1179; "MC32F7361.c"	flag_is_low_bat)                            /*  */
00003b   e04a     jbset   0x4a, 0          	JBSET	_flag1,0
00003c   a061     goto    0x61             	GOTO	_00779_DS_
                                           ;;unsigned compare: left < lit(0xFFFF=65535), size=2
                                           ;	.line	1184; "MC32F7361.c"	if (blink_cnt < 65535)
00003d   3cff     movai   0xff             	MOVAI	0xff
00003e   4833     rsubar  0x33             	RSUBAR	(_int_isr_blink_cnt_196608_161 + 1)
00003f   e587     jbset   0x187, 0x2       	JBSET	PFLAG,2
000040   a043     goto    0x43             	GOTO	_00873_DS_
000041   3cff     movai   0xff             	MOVAI	0xff
000042   4832     rsubar  0x32             	RSUBAR	_int_isr_blink_cnt_196608_161
                                           _00873_DS_
000043   f187     jbclr   0x187, 0         	JBCLR	PFLAG,0
000044   a048     goto    0x48             	GOTO	_00753_DS_
                                           ;;genSkipc:3291: created from rifx:013B5EFC
                                           ;	.line	1185; "MC32F7361.c"	blink_cnt++;
000045   6632     incr    0x32             	INCR	_int_isr_blink_cnt_196608_161
000046   f587     jbclr   0x187, 0x2       	JBCLR	PFLAG,2
000047   6633     incr    0x33             	INCR	(_int_isr_blink_cnt_196608_161 + 1)
                                           ;;swapping arguments (AOP_TYPEs 1/3)
                                           ;;unsigned compare: left >= lit(0x3E9=1001), size=2
                                           _00753_DS_
                                           ;	.line	1188; "MC32F7361.c"	if (blink_cnt <= 1000)
000048   3c03     movai   0x3              	MOVAI	0x03
000049   4833     rsubar  0x33             	RSUBAR	(_int_isr_blink_cnt_196608_161 + 1)
00004a   e587     jbset   0x187, 0x2       	JBSET	PFLAG,2
00004b   a04e     goto    0x4e             	GOTO	_00874_DS_
00004c   3ce9     movai   0xe9             	MOVAI	0xe9
00004d   4832     rsubar  0x32             	RSUBAR	_int_isr_blink_cnt_196608_161
                                           _00874_DS_
00004e   f187     jbclr   0x187, 0         	JBCLR	PFLAG,0
00004f   a052     goto    0x52             	GOTO	_00764_DS_
                                           ;;genSkipc:3291: created from rifx:013B5EFC
                                           ;	.line	1190; "MC32F7361.c"	LED_RED_ON();
000050   cf94     bset    0x194, 0x7       	BSET	_IOP1bits,7
000051   a05e     goto    0x5e             	GOTO	_00765_DS_
                                           ;;swapping arguments (AOP_TYPEs 1/3)
                                           ;;unsigned compare: left >= lit(0x7D1=2001), size=2
                                           _00764_DS_
                                           ;	.line	1193; "MC32F7361.c"	else if (blink_cnt <= 2000)
000052   3c07     movai   0x7              	MOVAI	0x07
000053   4833     rsubar  0x33             	RSUBAR	(_int_isr_blink_cnt_196608_161 + 1)
000054   e587     jbset   0x187, 0x2       	JBSET	PFLAG,2
000055   a058     goto    0x58             	GOTO	_00875_DS_
000056   3cd1     movai   0xd1             	MOVAI	0xd1
000057   4832     rsubar  0x32             	RSUBAR	_int_isr_blink_cnt_196608_161
                                           _00875_DS_
000058   f187     jbclr   0x187, 0         	JBCLR	PFLAG,0
000059   a05c     goto    0x5c             	GOTO	_00761_DS_
                                           ;;genSkipc:3291: created from rifx:013B5EFC
                                           ;	.line	1195; "MC32F7361.c"	LED_RED_OFF();
00005a   df94     bclr    0x194, 0x7       	BCLR	_IOP1bits,7
00005b   a05e     goto    0x5e             	GOTO	_00765_DS_
                                           _00761_DS_
                                           ;	.line	1199; "MC32F7361.c"	blink_cnt = 0;
00005c   7632     clrr    0x32             	CLRR	_int_isr_blink_cnt_196608_161
00005d   7633     clrr    0x33             	CLRR	(_int_isr_blink_cnt_196608_161 + 1)
                                           _00765_DS_
                                           ;	.line	1202; "MC32F7361.c"	fully_charged_cnt = 0;
00005e   7634     clrr    0x34             	CLRR	_int_isr_fully_charged_cnt_196608_161
00005f   7635     clrr    0x35             	CLRR	(_int_isr_fully_charged_cnt_196608_161 + 1)
000060   a07b     goto    0x7b             	GOTO	_00780_DS_
                                           _00779_DS_
                                           ;	.line	1204; "MC32F7361.c"	else if (CUR_STATUS_BE_CHARGING == cur_dev_status && /*  */
000061   5844     movar   0x44             	MOVAR	_cur_dev_status
000062   3901     xorai   0x1              	XORAI	0x01
000063   e587     jbset   0x187, 0x2       	JBSET	PFLAG,2
000064   a06b     goto    0x6b             	GOTO	_00775_DS_
                                           ;	.line	1205; "MC32F7361.c"	0 == flag_bat_is_fully_charged)             /*  */
000065   fc4a     jbclr   0x4a, 0x6        	JBCLR	_flag1,6
000066   a06b     goto    0x6b             	GOTO	_00775_DS_
                                           ;	.line	1209; "MC32F7361.c"	LED_RED_ON();
000067   cf94     bset    0x194, 0x7       	BSET	_IOP1bits,7
                                           ;	.line	1211; "MC32F7361.c"	fully_charged_cnt = 0;
000068   7634     clrr    0x34             	CLRR	_int_isr_fully_charged_cnt_196608_161
000069   7635     clrr    0x35             	CLRR	(_int_isr_fully_charged_cnt_196608_161 + 1)
00006a   a07b     goto    0x7b             	GOTO	_00780_DS_
                                           _00775_DS_
                                           ;	.line	1215; "MC32F7361.c"	fully_charged_cnt++;
00006b   6634     incr    0x34             	INCR	_int_isr_fully_charged_cnt_196608_161
00006c   f587     jbclr   0x187, 0x2       	JBCLR	PFLAG,2
00006d   6635     incr    0x35             	INCR	(_int_isr_fully_charged_cnt_196608_161 + 1)
                                           ;;unsigned compare: left < lit(0x3E8=1000), size=2
                                           ;	.line	1217; "MC32F7361.c"	if (fully_charged_cnt >= 1000) //  xx ms
00006e   3c03     movai   0x3              	MOVAI	0x03
00006f   4835     rsubar  0x35             	RSUBAR	(_int_isr_fully_charged_cnt_196608_161 + 1)
000070   e587     jbset   0x187, 0x2       	JBSET	PFLAG,2
000071   a074     goto    0x74             	GOTO	_00876_DS_
000072   3ce8     movai   0xe8             	MOVAI	0xe8
000073   4834     rsubar  0x34             	RSUBAR	_int_isr_fully_charged_cnt_196608_161
                                           _00876_DS_
000074   e187     jbset   0x187, 0         	JBSET	PFLAG,0
000075   a079     goto    0x79             	GOTO	_00773_DS_
                                           ;;genSkipc:3291: created from rifx:013B5EFC
                                           ;	.line	1219; "MC32F7361.c"	fully_charged_cnt = 0;
000076   7634     clrr    0x34             	CLRR	_int_isr_fully_charged_cnt_196608_161
000077   7635     clrr    0x35             	CLRR	(_int_isr_fully_charged_cnt_196608_161 + 1)
                                           ;	.line	1220; "MC32F7361.c"	LED_RED_OFF();
000078   df94     bclr    0x194, 0x7       	BCLR	_IOP1bits,7
                                           _00773_DS_
                                           ;	.line	1223; "MC32F7361.c"	blink_cnt = 0;
000079   7632     clrr    0x32             	CLRR	_int_isr_blink_cnt_196608_161
00007a   7633     clrr    0x33             	CLRR	(_int_isr_blink_cnt_196608_161 + 1)
                                           _00780_DS_
                                           ;	.line	1232; "MC32F7361.c"	if (flag_is_detect_load_when_charged ||
00007b   fe4a     jbclr   0x4a, 0x7        	JBCLR	_flag1,7
00007c   a085     goto    0x85             	GOTO	_00794_DS_
                                           ;	.line	1233; "MC32F7361.c"	(CUR_STATUS_IN_CHARGING == cur_dev_status &&
00007d   5844     movar   0x44             	MOVAR	_cur_dev_status
00007e   3902     xorai   0x2              	XORAI	0x02
00007f   e587     jbset   0x187, 0x2       	JBSET	PFLAG,2
000080   a09f     goto    0x9f             	GOTO	_00795_DS_
                                           ;	.line	1234; "MC32F7361.c"	0 == flag_is_low_bat &&
000081   f04a     jbclr   0x4a, 0          	JBCLR	_flag1,0
000082   a09f     goto    0x9f             	GOTO	_00795_DS_
                                           ;	.line	1235; "MC32F7361.c"	0 == flag_is_fully_charged))
000083   f24a     jbclr   0x4a, 0x1        	JBCLR	_flag1,1
000084   a09f     goto    0x9f             	GOTO	_00795_DS_
                                           _00794_DS_
                                           ;	.line	1243; "MC32F7361.c"	led_green_blink_cnt++;
000085   6636     incr    0x36             	INCR	_int_isr_led_green_blink_cnt_196608_177
000086   f587     jbclr   0x187, 0x2       	JBCLR	PFLAG,2
000087   6637     incr    0x37             	INCR	(_int_isr_led_green_blink_cnt_196608_177 + 1)
                                           ;;swapping arguments (AOP_TYPEs 1/3)
                                           ;;unsigned compare: left >= lit(0x1F5=501), size=2
                                           ;	.line	1246; "MC32F7361.c"	if (led_green_blink_cnt <= 500)
000088   3c01     movai   0x1              	MOVAI	0x01
000089   4837     rsubar  0x37             	RSUBAR	(_int_isr_led_green_blink_cnt_196608_177 + 1)
00008a   e587     jbset   0x187, 0x2       	JBSET	PFLAG,2
00008b   a08e     goto    0x8e             	GOTO	_00877_DS_
00008c   3cf5     movai   0xf5             	MOVAI	0xf5
00008d   4836     rsubar  0x36             	RSUBAR	_int_isr_led_green_blink_cnt_196608_177
                                           _00877_DS_
00008e   f187     jbclr   0x187, 0         	JBCLR	PFLAG,0
00008f   a092     goto    0x92             	GOTO	_00792_DS_
                                           ;;genSkipc:3291: created from rifx:013B5EFC
                                           ;	.line	1248; "MC32F7361.c"	LED_GREEN_ON();
000090   c190     bset    0x190, 0         	BSET	_IOP0bits,0
000091   a0a1     goto    0xa1             	GOTO	_00796_DS_
                                           ;;swapping arguments (AOP_TYPEs 1/3)
                                           ;;unsigned compare: left >= lit(0x3E9=1001), size=2
                                           _00792_DS_
                                           ;	.line	1250; "MC32F7361.c"	else if (led_green_blink_cnt <= 1000)
000092   3c03     movai   0x3              	MOVAI	0x03
000093   4837     rsubar  0x37             	RSUBAR	(_int_isr_led_green_blink_cnt_196608_177 + 1)
000094   e587     jbset   0x187, 0x2       	JBSET	PFLAG,2
000095   a098     goto    0x98             	GOTO	_00878_DS_
000096   3ce9     movai   0xe9             	MOVAI	0xe9
000097   4836     rsubar  0x36             	RSUBAR	_int_isr_led_green_blink_cnt_196608_177
                                           _00878_DS_
000098   f187     jbclr   0x187, 0         	JBCLR	PFLAG,0
000099   a09c     goto    0x9c             	GOTO	_00789_DS_
                                           ;;genSkipc:3291: created from rifx:013B5EFC
                                           ;	.line	1252; "MC32F7361.c"	LED_GREEN_OFF();
00009a   d190     bclr    0x190, 0         	BCLR	_IOP0bits,0
00009b   a0a1     goto    0xa1             	GOTO	_00796_DS_
                                           _00789_DS_
                                           ;	.line	1256; "MC32F7361.c"	led_green_blink_cnt = 0;
00009c   7636     clrr    0x36             	CLRR	_int_isr_led_green_blink_cnt_196608_177
00009d   7637     clrr    0x37             	CLRR	(_int_isr_led_green_blink_cnt_196608_177 + 1)
00009e   a0a1     goto    0xa1             	GOTO	_00796_DS_
                                           _00795_DS_
                                           ;	.line	1261; "MC32F7361.c"	led_green_blink_cnt = 0;
00009f   7636     clrr    0x36             	CLRR	_int_isr_led_green_blink_cnt_196608_177
0000a0   7637     clrr    0x37             	CLRR	(_int_isr_led_green_blink_cnt_196608_177 + 1)
                                           _00796_DS_
                                           ;	.line	1266; "MC32F7361.c"	T3IF = 0;
0000a1   df8b     bclr    0x18b, 0x7       	BCLR	_INTFbits,7
                                           _00801_DS_
                                           ;	.line	1274; "MC32F7361.c"	__endasm;
                                           	;
0000a2   4446     swapar  0x46             	swapar	_statusbuf;
0000a3   5787     movra   0x187            	movra	_PFLAG;
0000a4   4645     swapr   0x45             	swapr	_abuf;
0000a5   4445     swapar  0x45             	swapar	_abuf;
                                           	
                                           END_OF_INTERRUPT
                                           ;	.line	1275; "MC32F7361.c"	}
0000a6   000d     retie                    	RETIE	
                                           
                                           ;--------------------------------------------------------
                                           ; code
                                           ;--------------------------------------------------------
                                           code_MC32F7361	code
                                           ;***
                                           ;  pBlock Stats: dbName = M
                                           ;***
                                           ;entry:  _main	;Function start
                                           ; 2 exit points
                                           ;has an exit
                                           ;functions called:
                                           ;   _Sys_Init
                                           ;   _delay_ms
                                           ;   _delay_ms
                                           ;   _is_open_lid
                                           ;   _is_in_charging
                                           ;   _delay_ms
                                           ;   _set_timer0_pwm_when_detecting
                                           ;   _is_open_lid
                                           ;   _stop_charging_the_host
                                           ;   _delay_ms
                                           ;   _adc_sel_channel
                                           ;   _adc_get_val
                                           ;   _delay_ms
                                           ;   _set_timer0_pwm_when_charging
                                           ;   _stop_charging_the_host
                                           ;   _is_open_lid
                                           ;   _stop_charging_the_host
                                           ;   _low_power_scan_handle
                                           ;   _is_detect_load
                                           ;   _stop_charging_the_host
                                           ;   _delay_ms
                                           ;   _stop_charging_the_host
                                           ;   _adc_sel_channel
                                           ;   _adc_get_val
                                           ;   _delay_ms
                                           ;   _stop_charging_the_host
                                           ;   _delay_ms
                                           ;   _delay_ms
                                           ;   _is_in_charging
                                           ;   _delay_ms
                                           ;   _adc_sel_channel
                                           ;   _adc_get_val
                                           ;   _is_in_charging
                                           ;   _delay_ms
                                           ;   _stop_charging_the_host
                                           ;   _set_timer0_pwm_when_detecting
                                           ;   _is_open_lid
                                           ;   _stop_charging_the_host
                                           ;   _delay_ms
                                           ;   _is_detect_load
                                           ;   _stop_charging_the_host
                                           ;   _set_timer0_pwm_when_charging
                                           ;   _low_power_scan_handle
                                           ;   _Sys_Init
                                           ;   _delay_ms
                                           ;   _delay_ms
                                           ;   _is_open_lid
                                           ;   _is_in_charging
                                           ;   _delay_ms
                                           ;   _set_timer0_pwm_when_detecting
                                           ;   _is_open_lid
                                           ;   _stop_charging_the_host
                                           ;   _delay_ms
                                           ;   _adc_sel_channel
                                           ;   _adc_get_val
                                           ;   _delay_ms
                                           ;   _set_timer0_pwm_when_charging
                                           ;   _stop_charging_the_host
                                           ;   _is_open_lid
                                           ;   _stop_charging_the_host
                                           ;   _low_power_scan_handle
                                           ;   _is_detect_load
                                           ;   _stop_charging_the_host
                                           ;   _delay_ms
                                           ;   _stop_charging_the_host
                                           ;   _adc_sel_channel
                                           ;   _adc_get_val
                                           ;   _delay_ms
                                           ;   _stop_charging_the_host
                                           ;   _delay_ms
                                           ;   _delay_ms
                                           ;   _is_in_charging
                                           ;   _delay_ms
                                           ;   _adc_sel_channel
                                           ;   _adc_get_val
                                           ;   _is_in_charging
                                           ;   _delay_ms
                                           ;   _stop_charging_the_host
                                           ;   _set_timer0_pwm_when_detecting
                                           ;   _is_open_lid
                                           ;   _stop_charging_the_host
                                           ;   _delay_ms
                                           ;   _is_detect_load
                                           ;   _stop_charging_the_host
                                           ;   _set_timer0_pwm_when_charging
                                           ;   _low_power_scan_handle
                                           ;9 compiler assigned registers:
                                           ;   STK00
                                           ;   r0x1034
                                           ;   r0x1035
                                           ;   r0x1036
                                           ;   r0x1037
                                           ;   r0x1038
                                           ;   r0x1039
                                           ;   r0x103A
                                           ;   r0x103B
                                           ;; Starting pCode block
                                           _main	;Function start
                                           ; 2 exit points
                                           ;	.line	715; "MC32F7361.c"	Sys_Init();
0000a7   8437     call    0x437            	CALL	_Sys_Init
                                           ;	.line	716; "MC32F7361.c"	delay_ms(10);
0000a8   3c0a     movai   0xa              	MOVAI	0x0a
0000a9   5606     movra   0x6              	MOVRA	STK00
0000aa   3c00     movai   0                	MOVAI	0x00
0000ab   855e     call    0x55e            	CALL	_delay_ms
                                           ;	.line	718; "MC32F7361.c"	LED_GREEN_ON();
0000ac   c190     bset    0x190, 0         	BSET	_IOP0bits,0
                                           ;	.line	719; "MC32F7361.c"	delay_ms(1000);
0000ad   3ce8     movai   0xe8             	MOVAI	0xe8
0000ae   5606     movra   0x6              	MOVRA	STK00
0000af   3c03     movai   0x3              	MOVAI	0x03
0000b0   855e     call    0x55e            	CALL	_delay_ms
                                           ;	.line	720; "MC32F7361.c"	LED_GREEN_OFF();
0000b1   d190     bclr    0x190, 0         	BCLR	_IOP0bits,0
                                           _00553_DS_
                                           ;	.line	735; "MC32F7361.c"	flag_is_open_lid = is_open_lid();
0000b2   83c3     call    0x3c3            	CALL	_is_open_lid
0000b3   561f     movra   0x1f             	MOVRA	r0x1034
0000b4   4c1f     rrar    0x1f             	RRAR	r0x1034
0000b5   e187     jbset   0x187, 0         	JBSET	PFLAG,0
0000b6   da4a     bclr    0x4a, 0x5        	BCLR	_flag1,5
0000b7   f187     jbclr   0x187, 0         	JBCLR	PFLAG,0
0000b8   ca4a     bset    0x4a, 0x5        	BSET	_flag1,5
                                           ;	.line	737; "MC32F7361.c"	if (CUR_STATUS_NONE == cur_dev_status)
0000b9   3c00     movai   0                	MOVAI	0x00
0000ba   5c44     orar    0x44             	ORAR	_cur_dev_status
0000bb   e587     jbset   0x187, 0x2       	JBSET	PFLAG,2
0000bc   a1b2     goto    0x1b2            	GOTO	_00550_DS_
                                           ;	.line	742; "MC32F7361.c"	ret_u8 = is_in_charging(); // 5V
0000bd   83fd     call    0x3fd            	CALL	_is_in_charging
0000be   5649     movra   0x49             	MOVRA	_ret_u8
                                           ;	.line	743; "MC32F7361.c"	if (ret_u8)
0000bf   3c00     movai   0                	MOVAI	0x00
0000c0   5c49     orar    0x49             	ORAR	_ret_u8
0000c1   f587     jbclr   0x187, 0x2       	JBCLR	PFLAG,2
0000c2   a0ca     goto    0xca             	GOTO	_00443_DS_
                                           ;	.line	750; "MC32F7361.c"	cur_dev_status = CUR_STATUS_BE_CHARGING; //
0000c3   3c01     movai   0x1              	MOVAI	0x01
0000c4   5644     movra   0x44             	MOVRA	_cur_dev_status
                                           ;	.line	751; "MC32F7361.c"	delay_ms(1);
0000c5   3c01     movai   0x1              	MOVAI	0x01
0000c6   5606     movra   0x6              	MOVRA	STK00
0000c7   3c00     movai   0                	MOVAI	0x00
0000c8   855e     call    0x55e            	CALL	_delay_ms
                                           ;	.line	752; "MC32F7361.c"	continue; //
0000c9   a0b2     goto    0xb2             	GOTO	_00553_DS_
                                           _00443_DS_
                                           ;	.line	755; "MC32F7361.c"	if (0 == flag_is_open_lid) // 
0000ca   fa4a     jbclr   0x4a, 0x5        	JBCLR	_flag1,5
0000cb   a1b0     goto    0x1b0            	GOTO	_00473_DS_
                                           ;	.line	760; "MC32F7361.c"	set_timer0_pwm_when_detecting();
0000cc   8519     call    0x519            	CALL	_set_timer0_pwm_when_detecting
                                           ;	.line	762; "MC32F7361.c"	PWM_ENABLE();
0000cd   cd98     bset    0x198, 0x6       	BSET	_T0CRbits,6
0000ce   cf98     bset    0x198, 0x7       	BSET	_T0CRbits,7
                                           ;	.line	763; "MC32F7361.c"	LED_GREEN_ON(); //
0000cf   c190     bset    0x190, 0         	BSET	_IOP0bits,0
                                           ;	.line	768; "MC32F7361.c"	for (i = 0; i < 500; i++) // 500ms
0000d0   761f     clrr    0x1f             	CLRR	r0x1034
0000d1   7620     clrr    0x20             	CLRR	r0x1035
                                           _00555_DS_
                                           ;	.line	770; "MC32F7361.c"	if (is_open_lid()) // 
0000d2   83c3     call    0x3c3            	CALL	_is_open_lid
0000d3   5621     movra   0x21             	MOVRA	r0x1036
0000d4   3c00     movai   0                	MOVAI	0x00
0000d5   5c21     orar    0x21             	ORAR	r0x1036
0000d6   f587     jbclr   0x187, 0x2       	JBCLR	PFLAG,2
0000d7   a0da     goto    0xda             	GOTO	_00451_DS_
                                           ;	.line	772; "MC32F7361.c"	stop_charging_the_host(); // pwm
0000d8   82ef     call    0x2ef            	CALL	_stop_charging_the_host
                                           ;	.line	773; "MC32F7361.c"	break;
0000d9   a0e9     goto    0xe9             	GOTO	_00452_DS_
                                           _00451_DS_
                                           ;	.line	776; "MC32F7361.c"	delay_ms(1);
0000da   3c01     movai   0x1              	MOVAI	0x01
0000db   5606     movra   0x6              	MOVRA	STK00
0000dc   3c00     movai   0                	MOVAI	0x00
0000dd   855e     call    0x55e            	CALL	_delay_ms
                                           ;	.line	768; "MC32F7361.c"	for (i = 0; i < 500; i++) // 500ms
0000de   661f     incr    0x1f             	INCR	r0x1034
0000df   f587     jbclr   0x187, 0x2       	JBCLR	PFLAG,2
0000e0   6620     incr    0x20             	INCR	r0x1035
                                           ;;unsigned compare: left < lit(0x1F4=500), size=2
0000e1   3c01     movai   0x1              	MOVAI	0x01
0000e2   4820     rsubar  0x20             	RSUBAR	r0x1035
0000e3   e587     jbset   0x187, 0x2       	JBSET	PFLAG,2
0000e4   a0e7     goto    0xe7             	GOTO	_00725_DS_
0000e5   3cf4     movai   0xf4             	MOVAI	0xf4
0000e6   481f     rsubar  0x1f             	RSUBAR	r0x1034
                                           _00725_DS_
0000e7   e187     jbset   0x187, 0         	JBSET	PFLAG,0
0000e8   a0d2     goto    0xd2             	GOTO	_00555_DS_
                                           ;;genSkipc:3291: created from rifx:013B5EFC
                                           _00452_DS_
                                           ;	.line	782; "MC32F7361.c"	adc_sel_channel(ADC_CHANNEL_LOAD);
0000e9   3c02     movai   0x2              	MOVAI	0x02
0000ea   84df     call    0x4df            	CALL	_adc_sel_channel
                                           ;	.line	783; "MC32F7361.c"	detect_load_cnt = 0;
0000eb   7638     clrr    0x38             	CLRR	_detect_load_cnt
0000ec   7639     clrr    0x39             	CLRR	(_detect_load_cnt + 1)
0000ed   763a     clrr    0x3a             	CLRR	(_detect_load_cnt + 2)
0000ee   763b     clrr    0x3b             	CLRR	(_detect_load_cnt + 3)
                                           ;	.line	784; "MC32F7361.c"	undetect_load_cnt = 0;
0000ef   763c     clrr    0x3c             	CLRR	_undetect_load_cnt
0000f0   763d     clrr    0x3d             	CLRR	(_undetect_load_cnt + 1)
0000f1   763e     clrr    0x3e             	CLRR	(_undetect_load_cnt + 2)
0000f2   763f     clrr    0x3f             	CLRR	(_undetect_load_cnt + 3)
                                           _00470_DS_
                                           ;	.line	789; "MC32F7361.c"	adc_val = adc_get_val();
0000f3   8442     call    0x442            	CALL	_adc_get_val
0000f4   5641     movra   0x41             	MOVRA	(_adc_val + 1)
0000f5   5806     movar   0x6              	MOVAR	STK00
0000f6   5640     movra   0x40             	MOVRA	_adc_val
                                           ;;unsigned compare: left < lit(0xE41=3649), size=2
                                           ;	.line	793; "MC32F7361.c"	if (adc_val < 3649)
0000f7   3c0e     movai   0xe              	MOVAI	0x0e
0000f8   4841     rsubar  0x41             	RSUBAR	(_adc_val + 1)
0000f9   e587     jbset   0x187, 0x2       	JBSET	PFLAG,2
0000fa   a0fd     goto    0xfd             	GOTO	_00726_DS_
0000fb   3c41     movai   0x41             	MOVAI	0x41
0000fc   4840     rsubar  0x40             	RSUBAR	_adc_val
                                           _00726_DS_
0000fd   f187     jbclr   0x187, 0         	JBCLR	PFLAG,0
0000fe   a107     goto    0x107            	GOTO	_00456_DS_
                                           ;;genSkipc:3291: created from rifx:013B5EFC
                                           ;	.line	795; "MC32F7361.c"	detect_load_cnt++;
0000ff   6638     incr    0x38             	INCR	_detect_load_cnt
000100   f587     jbclr   0x187, 0x2       	JBCLR	PFLAG,2
000101   6639     incr    0x39             	INCR	(_detect_load_cnt + 1)
000102   f587     jbclr   0x187, 0x2       	JBCLR	PFLAG,2
000103   663a     incr    0x3a             	INCR	(_detect_load_cnt + 2)
000104   f587     jbclr   0x187, 0x2       	JBCLR	PFLAG,2
000105   663b     incr    0x3b             	INCR	(_detect_load_cnt + 3)
000106   a116     goto    0x116            	GOTO	_00457_DS_
                                           ;;swapping arguments (AOP_TYPEs 1/3)
                                           ;;unsigned compare: left >= lit(0xF21=3873), size=2
                                           _00456_DS_
                                           ;	.line	799; "MC32F7361.c"	else if (adc_val > 3872)
000107   3c0f     movai   0xf              	MOVAI	0x0f
000108   4841     rsubar  0x41             	RSUBAR	(_adc_val + 1)
000109   e587     jbset   0x187, 0x2       	JBSET	PFLAG,2
00010a   a10d     goto    0x10d            	GOTO	_00727_DS_
00010b   3c21     movai   0x21             	MOVAI	0x21
00010c   4840     rsubar  0x40             	RSUBAR	_adc_val
                                           _00727_DS_
00010d   e187     jbset   0x187, 0         	JBSET	PFLAG,0
00010e   a116     goto    0x116            	GOTO	_00457_DS_
                                           ;;genSkipc:3291: created from rifx:013B5EFC
                                           ;	.line	801; "MC32F7361.c"	undetect_load_cnt++;
00010f   663c     incr    0x3c             	INCR	_undetect_load_cnt
000110   f587     jbclr   0x187, 0x2       	JBCLR	PFLAG,2
000111   663d     incr    0x3d             	INCR	(_undetect_load_cnt + 1)
000112   f587     jbclr   0x187, 0x2       	JBCLR	PFLAG,2
000113   663e     incr    0x3e             	INCR	(_undetect_load_cnt + 2)
000114   f587     jbclr   0x187, 0x2       	JBCLR	PFLAG,2
000115   663f     incr    0x3f             	INCR	(_undetect_load_cnt + 3)
                                           _00457_DS_
                                           ;	.line	804; "MC32F7361.c"	delay_ms(1);
000116   3c01     movai   0x1              	MOVAI	0x01
000117   5606     movra   0x6              	MOVRA	STK00
000118   3c00     movai   0                	MOVAI	0x00
000119   855e     call    0x55e            	CALL	_delay_ms
                                           ;	.line	805; "MC32F7361.c"	__detect_ms_cnt++;
00011a   662c     incr    0x2c             	INCR	_main___detect_ms_cnt_327680_106
00011b   f587     jbclr   0x187, 0x2       	JBCLR	PFLAG,2
00011c   662d     incr    0x2d             	INCR	(_main___detect_ms_cnt_327680_106 + 1)
                                           ;;unsigned compare: left < lit(0x9C4=2500), size=2
                                           ;	.line	808; "MC32F7361.c"	if (__detect_ms_cnt >= 2500)
00011d   3c09     movai   0x9              	MOVAI	0x09
00011e   482d     rsubar  0x2d             	RSUBAR	(_main___detect_ms_cnt_327680_106 + 1)
00011f   e587     jbset   0x187, 0x2       	JBSET	PFLAG,2
000120   a123     goto    0x123            	GOTO	_00728_DS_
000121   3cc4     movai   0xc4             	MOVAI	0xc4
000122   482c     rsubar  0x2c             	RSUBAR	_main___detect_ms_cnt_327680_106
                                           _00728_DS_
000123   e187     jbset   0x187, 0         	JBSET	PFLAG,0
000124   a19f     goto    0x19f            	GOTO	_00466_DS_
                                           ;;genSkipc:3291: created from rifx:013B5EFC
                                           ;	.line	810; "MC32F7361.c"	__detect_ms_cnt = 0;
000125   762c     clrr    0x2c             	CLRR	_main___detect_ms_cnt_327680_106
000126   762d     clrr    0x2d             	CLRR	(_main___detect_ms_cnt_327680_106 + 1)
                                           ;	.line	812; "MC32F7361.c"	if (detect_load_cnt > undetect_load_cnt)
000127   583b     movar   0x3b             	MOVAR	(_detect_load_cnt + 3)
000128   483f     rsubar  0x3f             	RSUBAR	(_undetect_load_cnt + 3)
000129   e587     jbset   0x187, 0x2       	JBSET	PFLAG,2
00012a   a135     goto    0x135            	GOTO	_00729_DS_
00012b   583a     movar   0x3a             	MOVAR	(_detect_load_cnt + 2)
00012c   483e     rsubar  0x3e             	RSUBAR	(_undetect_load_cnt + 2)
00012d   e587     jbset   0x187, 0x2       	JBSET	PFLAG,2
00012e   a135     goto    0x135            	GOTO	_00729_DS_
00012f   5839     movar   0x39             	MOVAR	(_detect_load_cnt + 1)
000130   483d     rsubar  0x3d             	RSUBAR	(_undetect_load_cnt + 1)
000131   e587     jbset   0x187, 0x2       	JBSET	PFLAG,2
000132   a135     goto    0x135            	GOTO	_00729_DS_
000133   5838     movar   0x38             	MOVAR	_detect_load_cnt
000134   483c     rsubar  0x3c             	RSUBAR	_undetect_load_cnt
                                           _00729_DS_
000135   f187     jbclr   0x187, 0         	JBCLR	PFLAG,0
000136   a168     goto    0x168            	GOTO	_00463_DS_
                                           ;;genSkipc:3291: created from rifx:013B5EFC
                                           ;	.line	815; "MC32F7361.c"	if ((detect_load_cnt - undetect_load_cnt) > (undetect_load_cnt / 2))
000137   583c     movar   0x3c             	MOVAR	_undetect_load_cnt
000138   4838     rsubar  0x38             	RSUBAR	_detect_load_cnt
000139   561f     movra   0x1f             	MOVRA	r0x1034
00013a   5839     movar   0x39             	MOVAR	(_detect_load_cnt + 1)
00013b   5620     movra   0x20             	MOVRA	r0x1035
00013c   583d     movar   0x3d             	MOVAR	(_undetect_load_cnt + 1)
00013d   e187     jbset   0x187, 0         	JBSET	PFLAG,0
00013e   603d     jzar    0x3d             	JZAR	(_undetect_load_cnt + 1)
00013f   4a20     rsubra  0x20             	RSUBRA	r0x1035
000140   583a     movar   0x3a             	MOVAR	(_detect_load_cnt + 2)
000141   5621     movra   0x21             	MOVRA	r0x1036
000142   583e     movar   0x3e             	MOVAR	(_undetect_load_cnt + 2)
000143   e187     jbset   0x187, 0         	JBSET	PFLAG,0
000144   603e     jzar    0x3e             	JZAR	(_undetect_load_cnt + 2)
000145   4a21     rsubra  0x21             	RSUBRA	r0x1036
000146   583f     movar   0x3f             	MOVAR	(_undetect_load_cnt + 3)
000147   e187     jbset   0x187, 0         	JBSET	PFLAG,0
000148   643f     incar   0x3f             	INCAR	(_undetect_load_cnt + 3)
000149   483b     rsubar  0x3b             	RSUBAR	(_detect_load_cnt + 3)
00014a   5622     movra   0x22             	MOVRA	r0x1037
                                           ;;shiftRight_Left2ResultLit:5339: shCount=1, size=4, sign=0, same=0, offr=0
00014b   d187     bclr    0x187, 0         	BCLR	PFLAG,0
00014c   4c3f     rrar    0x3f             	RRAR	(_undetect_load_cnt + 3)
00014d   5626     movra   0x26             	MOVRA	r0x1038
00014e   4c3e     rrar    0x3e             	RRAR	(_undetect_load_cnt + 2)
00014f   5625     movra   0x25             	MOVRA	r0x1039
000150   4c3d     rrar    0x3d             	RRAR	(_undetect_load_cnt + 1)
000151   5624     movra   0x24             	MOVRA	r0x103A
000152   4c3c     rrar    0x3c             	RRAR	_undetect_load_cnt
000153   5623     movra   0x23             	MOVRA	r0x103B
000154   5822     movar   0x22             	MOVAR	r0x1037
000155   4826     rsubar  0x26             	RSUBAR	r0x1038
000156   e587     jbset   0x187, 0x2       	JBSET	PFLAG,2
000157   a162     goto    0x162            	GOTO	_00730_DS_
000158   5821     movar   0x21             	MOVAR	r0x1036
000159   4825     rsubar  0x25             	RSUBAR	r0x1039
00015a   e587     jbset   0x187, 0x2       	JBSET	PFLAG,2
00015b   a162     goto    0x162            	GOTO	_00730_DS_
00015c   5820     movar   0x20             	MOVAR	r0x1035
00015d   4824     rsubar  0x24             	RSUBAR	r0x103A
00015e   e587     jbset   0x187, 0x2       	JBSET	PFLAG,2
00015f   a162     goto    0x162            	GOTO	_00730_DS_
000160   581f     movar   0x1f             	MOVAR	r0x1034
000161   4823     rsubar  0x23             	RSUBAR	r0x103B
                                           _00730_DS_
000162   f187     jbclr   0x187, 0         	JBCLR	PFLAG,0
000163   a196     goto    0x196            	GOTO	_00464_DS_
                                           ;;genSkipc:3291: created from rifx:013B5EFC
                                           ;	.line	821; "MC32F7361.c"	cur_dev_status = CUR_STATUS_IN_CHARGING;
000164   3c02     movai   0x2              	MOVAI	0x02
000165   5644     movra   0x44             	MOVRA	_cur_dev_status
                                           ;	.line	822; "MC32F7361.c"	set_timer0_pwm_when_charging();
000166   850a     call    0x50a            	CALL	_set_timer0_pwm_when_charging
000167   a196     goto    0x196            	GOTO	_00464_DS_
                                           _00463_DS_
                                           ;	.line	829; "MC32F7361.c"	if ((undetect_load_cnt - detect_load_cnt) > (detect_load_cnt / 2))
000168   5838     movar   0x38             	MOVAR	_detect_load_cnt
000169   483c     rsubar  0x3c             	RSUBAR	_undetect_load_cnt
00016a   561f     movra   0x1f             	MOVRA	r0x1034
00016b   583d     movar   0x3d             	MOVAR	(_undetect_load_cnt + 1)
00016c   5620     movra   0x20             	MOVRA	r0x1035
00016d   5839     movar   0x39             	MOVAR	(_detect_load_cnt + 1)
00016e   e187     jbset   0x187, 0         	JBSET	PFLAG,0
00016f   6039     jzar    0x39             	JZAR	(_detect_load_cnt + 1)
000170   4a20     rsubra  0x20             	RSUBRA	r0x1035
000171   583e     movar   0x3e             	MOVAR	(_undetect_load_cnt + 2)
000172   5621     movra   0x21             	MOVRA	r0x1036
000173   583a     movar   0x3a             	MOVAR	(_detect_load_cnt + 2)
000174   e187     jbset   0x187, 0         	JBSET	PFLAG,0
000175   603a     jzar    0x3a             	JZAR	(_detect_load_cnt + 2)
000176   4a21     rsubra  0x21             	RSUBRA	r0x1036
000177   583b     movar   0x3b             	MOVAR	(_detect_load_cnt + 3)
000178   e187     jbset   0x187, 0         	JBSET	PFLAG,0
000179   643b     incar   0x3b             	INCAR	(_detect_load_cnt + 3)
00017a   483f     rsubar  0x3f             	RSUBAR	(_undetect_load_cnt + 3)
00017b   5622     movra   0x22             	MOVRA	r0x1037
                                           ;;shiftRight_Left2ResultLit:5339: shCount=1, size=4, sign=0, same=0, offr=0
00017c   d187     bclr    0x187, 0         	BCLR	PFLAG,0
00017d   4c3b     rrar    0x3b             	RRAR	(_detect_load_cnt + 3)
00017e   5626     movra   0x26             	MOVRA	r0x1038
00017f   4c3a     rrar    0x3a             	RRAR	(_detect_load_cnt + 2)
000180   5625     movra   0x25             	MOVRA	r0x1039
000181   4c39     rrar    0x39             	RRAR	(_detect_load_cnt + 1)
000182   5624     movra   0x24             	MOVRA	r0x103A
000183   4c38     rrar    0x38             	RRAR	_detect_load_cnt
000184   5623     movra   0x23             	MOVRA	r0x103B
000185   5822     movar   0x22             	MOVAR	r0x1037
000186   4826     rsubar  0x26             	RSUBAR	r0x1038
000187   e587     jbset   0x187, 0x2       	JBSET	PFLAG,2
000188   a193     goto    0x193            	GOTO	_00731_DS_
000189   5821     movar   0x21             	MOVAR	r0x1036
00018a   4825     rsubar  0x25             	RSUBAR	r0x1039
00018b   e587     jbset   0x187, 0x2       	JBSET	PFLAG,2
00018c   a193     goto    0x193            	GOTO	_00731_DS_
00018d   5820     movar   0x20             	MOVAR	r0x1035
00018e   4824     rsubar  0x24             	RSUBAR	r0x103A
00018f   e587     jbset   0x187, 0x2       	JBSET	PFLAG,2
000190   a193     goto    0x193            	GOTO	_00731_DS_
000191   581f     movar   0x1f             	MOVAR	r0x1034
000192   4823     rsubar  0x23             	RSUBAR	r0x103B
                                           _00731_DS_
000193   f187     jbclr   0x187, 0         	JBCLR	PFLAG,0
000194   a196     goto    0x196            	GOTO	_00464_DS_
                                           ;;genSkipc:3291: created from rifx:013B5EFC
                                           ;	.line	835; "MC32F7361.c"	stop_charging_the_host(); // pwm
000195   82ef     call    0x2ef            	CALL	_stop_charging_the_host
                                           _00464_DS_
                                           ;	.line	840; "MC32F7361.c"	detect_load_cnt = 0;
000196   7638     clrr    0x38             	CLRR	_detect_load_cnt
000197   7639     clrr    0x39             	CLRR	(_detect_load_cnt + 1)
000198   763a     clrr    0x3a             	CLRR	(_detect_load_cnt + 2)
000199   763b     clrr    0x3b             	CLRR	(_detect_load_cnt + 3)
                                           ;	.line	841; "MC32F7361.c"	undetect_load_cnt = 0;
00019a   763c     clrr    0x3c             	CLRR	_undetect_load_cnt
00019b   763d     clrr    0x3d             	CLRR	(_undetect_load_cnt + 1)
00019c   763e     clrr    0x3e             	CLRR	(_undetect_load_cnt + 2)
00019d   763f     clrr    0x3f             	CLRR	(_undetect_load_cnt + 3)
                                           ;	.line	842; "MC32F7361.c"	break;
00019e   a1b0     goto    0x1b0            	GOTO	_00473_DS_
                                           _00466_DS_
                                           ;	.line	845; "MC32F7361.c"	if (1 == is_open_lid())
00019f   83c3     call    0x3c3            	CALL	_is_open_lid
0001a0   561f     movra   0x1f             	MOVRA	r0x1034
0001a1   581f     movar   0x1f             	MOVAR	r0x1034
0001a2   3901     xorai   0x1              	XORAI	0x01
0001a3   e587     jbset   0x187, 0x2       	JBSET	PFLAG,2
0001a4   a0f3     goto    0xf3             	GOTO	_00470_DS_
                                           ;	.line	848; "MC32F7361.c"	detect_load_cnt = 0;
0001a5   7638     clrr    0x38             	CLRR	_detect_load_cnt
0001a6   7639     clrr    0x39             	CLRR	(_detect_load_cnt + 1)
0001a7   763a     clrr    0x3a             	CLRR	(_detect_load_cnt + 2)
0001a8   763b     clrr    0x3b             	CLRR	(_detect_load_cnt + 3)
                                           ;	.line	849; "MC32F7361.c"	undetect_load_cnt = 0;
0001a9   763c     clrr    0x3c             	CLRR	_undetect_load_cnt
0001aa   763d     clrr    0x3d             	CLRR	(_undetect_load_cnt + 1)
0001ab   763e     clrr    0x3e             	CLRR	(_undetect_load_cnt + 2)
0001ac   763f     clrr    0x3f             	CLRR	(_undetect_load_cnt + 3)
                                           ;	.line	850; "MC32F7361.c"	__detect_ms_cnt = 0;
0001ad   762c     clrr    0x2c             	CLRR	_main___detect_ms_cnt_327680_106
0001ae   762d     clrr    0x2d             	CLRR	(_main___detect_ms_cnt_327680_106 + 1)
                                           ;	.line	853; "MC32F7361.c"	stop_charging_the_host(); // pwm
0001af   82ef     call    0x2ef            	CALL	_stop_charging_the_host
                                           _00473_DS_
                                           ;	.line	861; "MC32F7361.c"	low_power_scan_handle();
0001b0   82b7     call    0x2b7            	CALL	_low_power_scan_handle
0001b1   a2b4     goto    0x2b4            	GOTO	_00551_DS_
                                           _00550_DS_
                                           ;	.line	863; "MC32F7361.c"	else if (CUR_STATUS_IN_CHARGING == cur_dev_status)
0001b2   5844     movar   0x44             	MOVAR	_cur_dev_status
0001b3   3902     xorai   0x2              	XORAI	0x02
0001b4   e587     jbset   0x187, 0x2       	JBSET	PFLAG,2
0001b5   a216     goto    0x216            	GOTO	_00547_DS_
                                           ;	.line	871; "MC32F7361.c"	ret_u8 = is_detect_load();
0001b6   82f3     call    0x2f3            	CALL	_is_detect_load
0001b7   5649     movra   0x49             	MOVRA	_ret_u8
                                           ;	.line	872; "MC32F7361.c"	if (1 == ret_u8)
0001b8   5849     movar   0x49             	MOVAR	_ret_u8
0001b9   3901     xorai   0x1              	XORAI	0x01
0001ba   e587     jbset   0x187, 0x2       	JBSET	PFLAG,2
0001bb   a1bd     goto    0x1bd            	GOTO	_00732_DS_
0001bc   a1c7     goto    0x1c7            	GOTO	_00479_DS_
                                           _00732_DS_
                                           ;	.line	877; "MC32F7361.c"	else if (0 == ret_u8)
0001bd   3c00     movai   0                	MOVAI	0x00
0001be   5c49     orar    0x49             	ORAR	_ret_u8
0001bf   e587     jbset   0x187, 0x2       	JBSET	PFLAG,2
0001c0   a1c7     goto    0x1c7            	GOTO	_00479_DS_
                                           ;	.line	880; "MC32F7361.c"	flag_is_fully_charged = 1;
0001c1   c24a     bset    0x4a, 0x1        	BSET	_flag1,1
                                           ;	.line	888; "MC32F7361.c"	stop_charging_the_host();              // PWM
0001c2   82ef     call    0x2ef            	CALL	_stop_charging_the_host
                                           ;	.line	889; "MC32F7361.c"	flag_is_low_bat = 0;                   // 
0001c3   d04a     bclr    0x4a, 0          	BCLR	_flag1,0
                                           ;	.line	890; "MC32F7361.c"	cur_dev_status = CUR_STATUS_POWER_OFF; // 
0001c4   3c03     movai   0x3              	MOVAI	0x03
0001c5   5644     movra   0x44             	MOVRA	_cur_dev_status
                                           ;	.line	891; "MC32F7361.c"	continue;
0001c6   a0b2     goto    0xb2             	GOTO	_00553_DS_
                                           _00479_DS_
                                           ;	.line	899; "MC32F7361.c"	if (flag_is_open_lid)
0001c7   ea4a     jbset   0x4a, 0x5        	JBSET	_flag1,5
0001c8   a1d2     goto    0x1d2            	GOTO	_00481_DS_
                                           ;	.line	902; "MC32F7361.c"	cur_dev_status = CUR_STATUS_NONE;
0001c9   7644     clrr    0x44             	CLRR	_cur_dev_status
                                           ;	.line	904; "MC32F7361.c"	flag_is_fully_charged = 0;
0001ca   d24a     bclr    0x4a, 0x1        	BCLR	_flag1,1
                                           ;	.line	905; "MC32F7361.c"	flag_is_enable_detect_load = 0; // 
0001cb   d64a     bclr    0x4a, 0x3        	BCLR	_flag1,3
                                           ;	.line	906; "MC32F7361.c"	delay_ms(1);
0001cc   3c01     movai   0x1              	MOVAI	0x01
0001cd   5606     movra   0x6              	MOVRA	STK00
0001ce   3c00     movai   0                	MOVAI	0x00
0001cf   855e     call    0x55e            	CALL	_delay_ms
                                           ;	.line	907; "MC32F7361.c"	stop_charging_the_host(); // PWM
0001d0   82ef     call    0x2ef            	CALL	_stop_charging_the_host
                                           ;	.line	908; "MC32F7361.c"	continue;                 // 
0001d1   a0b2     goto    0xb2             	GOTO	_00553_DS_
                                           _00481_DS_
                                           ;	.line	912; "MC32F7361.c"	adc_sel_channel(ADC_CHANNEL_BAT);
0001d2   3c01     movai   0x1              	MOVAI	0x01
0001d3   84df     call    0x4df            	CALL	_adc_sel_channel
                                           ;	.line	913; "MC32F7361.c"	adc_val = adc_get_val();
0001d4   8442     call    0x442            	CALL	_adc_get_val
0001d5   5641     movra   0x41             	MOVRA	(_adc_val + 1)
0001d6   5806     movar   0x6              	MOVAR	STK00
0001d7   5640     movra   0x40             	MOVRA	_adc_val
                                           ;;unsigned compare: left < lit(0x600=1536), size=2
                                           ;	.line	917; "MC32F7361.c"	if (adc_val < 1536) // 3.0V
0001d8   3c06     movai   0x6              	MOVAI	0x06
0001d9   4841     rsubar  0x41             	RSUBAR	(_adc_val + 1)
0001da   e587     jbset   0x187, 0x2       	JBSET	PFLAG,2
0001db   a1de     goto    0x1de            	GOTO	_00733_DS_
0001dc   3c00     movai   0                	MOVAI	0x00
0001dd   4840     rsubar  0x40             	RSUBAR	_adc_val
                                           _00733_DS_
0001de   f187     jbclr   0x187, 0         	JBCLR	PFLAG,0
0001df   a1ea     goto    0x1ea            	GOTO	_00491_DS_
                                           ;;genSkipc:3291: created from rifx:013B5EFC
                                           ;	.line	921; "MC32F7361.c"	cur_dev_status = CUR_STATUS_POWER_OFF;
0001e0   3c03     movai   0x3              	MOVAI	0x03
0001e1   5644     movra   0x44             	MOVRA	_cur_dev_status
                                           ;	.line	922; "MC32F7361.c"	flag_is_fully_charged = 0;
0001e2   d24a     bclr    0x4a, 0x1        	BCLR	_flag1,1
                                           ;	.line	923; "MC32F7361.c"	flag_is_enable_detect_load = 0; // 
0001e3   d64a     bclr    0x4a, 0x3        	BCLR	_flag1,3
                                           ;	.line	924; "MC32F7361.c"	delay_ms(1);
0001e4   3c01     movai   0x1              	MOVAI	0x01
0001e5   5606     movra   0x6              	MOVRA	STK00
0001e6   3c00     movai   0                	MOVAI	0x00
0001e7   855e     call    0x55e            	CALL	_delay_ms
                                           ;	.line	925; "MC32F7361.c"	stop_charging_the_host();
0001e8   82ef     call    0x2ef            	CALL	_stop_charging_the_host
                                           ;	.line	926; "MC32F7361.c"	continue;
0001e9   a0b2     goto    0xb2             	GOTO	_00553_DS_
                                           ;;unsigned compare: left < lit(0x699=1689), size=2
                                           _00491_DS_
                                           ;	.line	930; "MC32F7361.c"	else if (adc_val < 1689) // 3.3V
0001ea   3c06     movai   0x6              	MOVAI	0x06
0001eb   4841     rsubar  0x41             	RSUBAR	(_adc_val + 1)
0001ec   e587     jbset   0x187, 0x2       	JBSET	PFLAG,2
0001ed   a1f0     goto    0x1f0            	GOTO	_00734_DS_
0001ee   3c99     movai   0x99             	MOVAI	0x99
0001ef   4840     rsubar  0x40             	RSUBAR	_adc_val
                                           _00734_DS_
0001f0   f187     jbclr   0x187, 0         	JBCLR	PFLAG,0
0001f1   a1f9     goto    0x1f9            	GOTO	_00488_DS_
                                           ;;genSkipc:3291: created from rifx:013B5EFC
                                           ;	.line	933; "MC32F7361.c"	LED_GREEN_OFF(); // 
0001f2   d190     bclr    0x190, 0         	BCLR	_IOP0bits,0
                                           ;	.line	934; "MC32F7361.c"	delay_ms(1);     // 
0001f3   3c01     movai   0x1              	MOVAI	0x01
0001f4   5606     movra   0x6              	MOVRA	STK00
0001f5   3c00     movai   0                	MOVAI	0x00
0001f6   855e     call    0x55e            	CALL	_delay_ms
                                           ;	.line	935; "MC32F7361.c"	flag_is_low_bat = 1;
0001f7   c04a     bset    0x4a, 0          	BSET	_flag1,0
0001f8   a206     goto    0x206            	GOTO	_00492_DS_
                                           ;;swapping arguments (AOP_TYPEs 1/3)
                                           ;;unsigned compare: left >= lit(0x6C3=1731), size=2
                                           _00488_DS_
                                           ;	.line	939; "MC32F7361.c"	else if (adc_val > 1689 + AD_OFFSET) //  (3.3V) ad
0001f9   3c06     movai   0x6              	MOVAI	0x06
0001fa   4841     rsubar  0x41             	RSUBAR	(_adc_val + 1)
0001fb   e587     jbset   0x187, 0x2       	JBSET	PFLAG,2
0001fc   a1ff     goto    0x1ff            	GOTO	_00735_DS_
0001fd   3cc3     movai   0xc3             	MOVAI	0xc3
0001fe   4840     rsubar  0x40             	RSUBAR	_adc_val
                                           _00735_DS_
0001ff   e187     jbset   0x187, 0         	JBSET	PFLAG,0
000200   a206     goto    0x206            	GOTO	_00492_DS_
                                           ;;genSkipc:3291: created from rifx:013B5EFC
                                           ;	.line	941; "MC32F7361.c"	flag_is_low_bat = 0;
000201   d04a     bclr    0x4a, 0          	BCLR	_flag1,0
                                           ;	.line	942; "MC32F7361.c"	delay_ms(1); // 
000202   3c01     movai   0x1              	MOVAI	0x01
000203   5606     movra   0x6              	MOVRA	STK00
000204   3c00     movai   0                	MOVAI	0x00
000205   855e     call    0x55e            	CALL	_delay_ms
                                           _00492_DS_
                                           ;	.line	949; "MC32F7361.c"	if (is_in_charging())
000206   83fd     call    0x3fd            	CALL	_is_in_charging
000207   561f     movra   0x1f             	MOVRA	r0x1034
000208   3c00     movai   0                	MOVAI	0x00
000209   5c1f     orar    0x1f             	ORAR	r0x1034
00020a   f587     jbclr   0x187, 0x2       	JBCLR	PFLAG,2
00020b   a2b4     goto    0x2b4            	GOTO	_00551_DS_
                                           ;	.line	965; "MC32F7361.c"	cur_dev_status = CUR_STATUS_BE_CHARGING; //
00020c   3c01     movai   0x1              	MOVAI	0x01
00020d   5644     movra   0x44             	MOVRA	_cur_dev_status
                                           ;	.line	966; "MC32F7361.c"	flag_is_low_bat = 0;                     // 
00020e   d04a     bclr    0x4a, 0          	BCLR	_flag1,0
                                           ;	.line	967; "MC32F7361.c"	flag_is_enable_detect_load = 0;          // 
00020f   d64a     bclr    0x4a, 0x3        	BCLR	_flag1,3
                                           ;	.line	968; "MC32F7361.c"	delay_ms(1);
000210   3c01     movai   0x1              	MOVAI	0x01
000211   5606     movra   0x6              	MOVRA	STK00
000212   3c00     movai   0                	MOVAI	0x00
000213   855e     call    0x55e            	CALL	_delay_ms
                                           ;	.line	969; "MC32F7361.c"	LED_GREEN_OFF(); // 
000214   d190     bclr    0x190, 0         	BCLR	_IOP0bits,0
                                           ;	.line	970; "MC32F7361.c"	continue;
000215   a0b2     goto    0xb2             	GOTO	_00553_DS_
                                           _00547_DS_
                                           ;	.line	974; "MC32F7361.c"	else if (CUR_STATUS_BE_CHARGING == cur_dev_status) // 
000216   5844     movar   0x44             	MOVAR	_cur_dev_status
000217   3901     xorai   0x1              	XORAI	0x01
000218   e587     jbset   0x187, 0x2       	JBSET	PFLAG,2
000219   a2ae     goto    0x2ae            	GOTO	_00544_DS_
                                           ;	.line	988; "MC32F7361.c"	if (0 == __lid_status) // 
00021a   3c00     movai   0                	MOVAI	0x00
00021b   5c2e     orar    0x2e             	ORAR	_main___lid_status_196608_128
00021c   e587     jbset   0x187, 0x2       	JBSET	PFLAG,2
00021d   a225     goto    0x225            	GOTO	_00502_DS_
                                           ;	.line	990; "MC32F7361.c"	if (P13D) // 
00021e   e794     jbset   0x194, 0x3       	JBSET	_IOP1bits,3
00021f   a223     goto    0x223            	GOTO	_00499_DS_
                                           ;	.line	992; "MC32F7361.c"	__lid_status = 2;
000220   3c02     movai   0x2              	MOVAI	0x02
000221   562e     movra   0x2e             	MOVRA	_main___lid_status_196608_128
000222   a225     goto    0x225            	GOTO	_00502_DS_
                                           _00499_DS_
                                           ;	.line	996; "MC32F7361.c"	__lid_status = 1; // 
000223   3c01     movai   0x1              	MOVAI	0x01
000224   562e     movra   0x2e             	MOVRA	_main___lid_status_196608_128
                                           _00502_DS_
                                           ;	.line	1001; "MC32F7361.c"	adc_sel_channel(ADC_CHANNEL_BAT);
000225   3c01     movai   0x1              	MOVAI	0x01
000226   84df     call    0x4df            	CALL	_adc_sel_channel
                                           ;	.line	1002; "MC32F7361.c"	adc_val = adc_get_val();
000227   8442     call    0x442            	CALL	_adc_get_val
000228   5641     movra   0x41             	MOVRA	(_adc_val + 1)
000229   5806     movar   0x6              	MOVAR	STK00
00022a   5640     movra   0x40             	MOVRA	_adc_val
                                           ;;unsigned compare: left < lit(0x800=2048), size=2
                                           ;	.line	1007; "MC32F7361.c"	if (adc_val >= 2048) // 4V
00022b   3c08     movai   0x8              	MOVAI	0x08
00022c   4841     rsubar  0x41             	RSUBAR	(_adc_val + 1)
00022d   e587     jbset   0x187, 0x2       	JBSET	PFLAG,2
00022e   a231     goto    0x231            	GOTO	_00736_DS_
00022f   3c00     movai   0                	MOVAI	0x00
000230   4840     rsubar  0x40             	RSUBAR	_adc_val
                                           _00736_DS_
000231   e187     jbset   0x187, 0         	JBSET	PFLAG,0
000232   a234     goto    0x234            	GOTO	_00504_DS_
                                           ;;genSkipc:3291: created from rifx:013B5EFC
                                           ;	.line	1009; "MC32F7361.c"	flag_bat_is_fully_charged = 1; // 
000233   cc4a     bset    0x4a, 0x6        	BSET	_flag1,6
                                           _00504_DS_
                                           ;	.line	1013; "MC32F7361.c"	ret_u8 = is_in_charging();
000234   83fd     call    0x3fd            	CALL	_is_in_charging
000235   5649     movra   0x49             	MOVRA	_ret_u8
                                           ;	.line	1014; "MC32F7361.c"	if (0 == ret_u8)
000236   3c00     movai   0                	MOVAI	0x00
000237   5c49     orar    0x49             	ORAR	_ret_u8
000238   e587     jbset   0x187, 0x2       	JBSET	PFLAG,2
000239   a244     goto    0x244            	GOTO	_00509_DS_
                                           ;	.line	1019; "MC32F7361.c"	if (flag_is_detect_load_when_charged) // 
00023a   ee4a     jbset   0x4a, 0x7        	JBSET	_flag1,7
00023b   a23f     goto    0x23f            	GOTO	_00506_DS_
                                           ;	.line	1021; "MC32F7361.c"	cur_dev_status = CUR_STATUS_IN_CHARGING;
00023c   3c02     movai   0x2              	MOVAI	0x02
00023d   5644     movra   0x44             	MOVRA	_cur_dev_status
00023e   a241     goto    0x241            	GOTO	_00507_DS_
                                           _00506_DS_
                                           ;	.line	1025; "MC32F7361.c"	cur_dev_status = CUR_STATUS_POWER_OFF;
00023f   3c03     movai   0x3              	MOVAI	0x03
000240   5644     movra   0x44             	MOVRA	_cur_dev_status
                                           _00507_DS_
                                           ;	.line	1028; "MC32F7361.c"	flag_is_detect_load_when_charged = 0;
000241   de4a     bclr    0x4a, 0x7        	BCLR	_flag1,7
                                           ;	.line	1029; "MC32F7361.c"	__lid_status = 0; // 
000242   762e     clrr    0x2e             	CLRR	_main___lid_status_196608_128
                                           ;	.line	1030; "MC32F7361.c"	continue;
000243   a0b2     goto    0xb2             	GOTO	_00553_DS_
                                           _00509_DS_
                                           ;	.line	1034; "MC32F7361.c"	if (flag_is_open_lid && __lid_status == 1)
000244   ea4a     jbset   0x4a, 0x5        	JBSET	_flag1,5
000245   a255     goto    0x255            	GOTO	_00538_DS_
000246   582e     movar   0x2e             	MOVAR	_main___lid_status_196608_128
000247   3901     xorai   0x1              	XORAI	0x01
000248   e587     jbset   0x187, 0x2       	JBSET	PFLAG,2
000249   a255     goto    0x255            	GOTO	_00538_DS_
                                           ;	.line	1037; "MC32F7361.c"	__lid_status = 2; // 
00024a   3c02     movai   0x2              	MOVAI	0x02
00024b   562e     movra   0x2e             	MOVRA	_main___lid_status_196608_128
                                           ;	.line	1039; "MC32F7361.c"	__flag_detect_load_status = 0;
00024c   762f     clrr    0x2f             	CLRR	_main___flag_detect_load_status_196608_128
                                           ;	.line	1040; "MC32F7361.c"	flag_is_enable_detect_load = 0; // 
00024d   d64a     bclr    0x4a, 0x3        	BCLR	_flag1,3
                                           ;	.line	1041; "MC32F7361.c"	delay_ms(1);
00024e   3c01     movai   0x1              	MOVAI	0x01
00024f   5606     movra   0x6              	MOVRA	STK00
000250   3c00     movai   0                	MOVAI	0x00
000251   855e     call    0x55e            	CALL	_delay_ms
                                           ;	.line	1042; "MC32F7361.c"	flag_is_detect_load_when_charged = 0;
000252   de4a     bclr    0x4a, 0x7        	BCLR	_flag1,7
                                           ;	.line	1043; "MC32F7361.c"	stop_charging_the_host(); // PWM
000253   82ef     call    0x2ef            	CALL	_stop_charging_the_host
000254   a2b4     goto    0x2b4            	GOTO	_00551_DS_
                                           _00538_DS_
                                           ;	.line	1045; "MC32F7361.c"	else if (((1 == __flag_detect_load_status) ||         /*  */
000255   582f     movar   0x2f             	MOVAR	_main___flag_detect_load_status_196608_128
000256   3901     xorai   0x1              	XORAI	0x01
000257   e587     jbset   0x187, 0x2       	JBSET	PFLAG,2
000258   a25a     goto    0x25a            	GOTO	_00737_DS_
000259   a265     goto    0x265            	GOTO	_00532_DS_
                                           _00737_DS_
                                           ;	.line	1046; "MC32F7361.c"	(3 == __flag_detect_load_status)) ||        /*  */
00025a   582f     movar   0x2f             	MOVAR	_main___flag_detect_load_status_196608_128
00025b   3903     xorai   0x3              	XORAI	0x03
00025c   e587     jbset   0x187, 0x2       	JBSET	PFLAG,2
00025d   a25f     goto    0x25f            	GOTO	_00738_DS_
00025e   a265     goto    0x265            	GOTO	_00532_DS_
                                           _00738_DS_
                                           ;	.line	1047; "MC32F7361.c"	(__lid_status == 2 && 0 == flag_is_open_lid) // 
00025f   582e     movar   0x2e             	MOVAR	_main___lid_status_196608_128
000260   3902     xorai   0x2              	XORAI	0x02
000261   e587     jbset   0x187, 0x2       	JBSET	PFLAG,2
000262   a2b4     goto    0x2b4            	GOTO	_00551_DS_
000263   fa4a     jbclr   0x4a, 0x5        	JBCLR	_flag1,5
000264   a2b4     goto    0x2b4            	GOTO	_00551_DS_
                                           _00532_DS_
                                           ;	.line	1050; "MC32F7361.c"	__lid_status = 1; // 
000265   3c01     movai   0x1              	MOVAI	0x01
000266   562e     movra   0x2e             	MOVRA	_main___lid_status_196608_128
                                           ;	.line	1053; "MC32F7361.c"	if (0 == __flag_detect_load_status)
000267   3c00     movai   0                	MOVAI	0x00
000268   5c2f     orar    0x2f             	ORAR	_main___flag_detect_load_status_196608_128
000269   e587     jbset   0x187, 0x2       	JBSET	PFLAG,2
00026a   a28c     goto    0x28c            	GOTO	_00520_DS_
                                           ;	.line	1056; "MC32F7361.c"	__flag_detect_load_status = 1; // 
00026b   3c01     movai   0x1              	MOVAI	0x01
00026c   562f     movra   0x2f             	MOVRA	_main___flag_detect_load_status_196608_128
                                           ;	.line	1057; "MC32F7361.c"	set_timer0_pwm_when_detecting();
00026d   8519     call    0x519            	CALL	_set_timer0_pwm_when_detecting
                                           ;	.line	1058; "MC32F7361.c"	PWM_ENABLE();
00026e   cd98     bset    0x198, 0x6       	BSET	_T0CRbits,6
00026f   cf98     bset    0x198, 0x7       	BSET	_T0CRbits,7
                                           ;	.line	1059; "MC32F7361.c"	LED_GREEN_ON();
000270   c190     bset    0x190, 0         	BSET	_IOP0bits,0
                                           ;	.line	1064; "MC32F7361.c"	for (i = 0; i < 500; i++)
000271   761f     clrr    0x1f             	CLRR	r0x1034
000272   7620     clrr    0x20             	CLRR	r0x1035
                                           _00557_DS_
                                           ;	.line	1066; "MC32F7361.c"	if (is_open_lid()) // 
000273   83c3     call    0x3c3            	CALL	_is_open_lid
000274   5621     movra   0x21             	MOVRA	r0x1036
000275   3c00     movai   0                	MOVAI	0x00
000276   5c21     orar    0x21             	ORAR	r0x1036
000277   f587     jbclr   0x187, 0x2       	JBCLR	PFLAG,2
000278   a27d     goto    0x27d            	GOTO	_00517_DS_
                                           ;	.line	1068; "MC32F7361.c"	__flag_detect_load_status = 0;
000279   762f     clrr    0x2f             	CLRR	_main___flag_detect_load_status_196608_128
                                           ;	.line	1069; "MC32F7361.c"	flag_is_detect_load_when_charged = 0;
00027a   de4a     bclr    0x4a, 0x7        	BCLR	_flag1,7
                                           ;	.line	1070; "MC32F7361.c"	stop_charging_the_host(); // pwm
00027b   82ef     call    0x2ef            	CALL	_stop_charging_the_host
                                           ;	.line	1071; "MC32F7361.c"	break;
00027c   a28c     goto    0x28c            	GOTO	_00520_DS_
                                           _00517_DS_
                                           ;	.line	1074; "MC32F7361.c"	delay_ms(1);
00027d   3c01     movai   0x1              	MOVAI	0x01
00027e   5606     movra   0x6              	MOVRA	STK00
00027f   3c00     movai   0                	MOVAI	0x00
000280   855e     call    0x55e            	CALL	_delay_ms
                                           ;	.line	1064; "MC32F7361.c"	for (i = 0; i < 500; i++)
000281   661f     incr    0x1f             	INCR	r0x1034
000282   f587     jbclr   0x187, 0x2       	JBCLR	PFLAG,2
000283   6620     incr    0x20             	INCR	r0x1035
                                           ;;unsigned compare: left < lit(0x1F4=500), size=2
000284   3c01     movai   0x1              	MOVAI	0x01
000285   4820     rsubar  0x20             	RSUBAR	r0x1035
000286   e587     jbset   0x187, 0x2       	JBSET	PFLAG,2
000287   a28a     goto    0x28a            	GOTO	_00739_DS_
000288   3cf4     movai   0xf4             	MOVAI	0xf4
000289   481f     rsubar  0x1f             	RSUBAR	r0x1034
                                           _00739_DS_
00028a   e187     jbset   0x187, 0         	JBSET	PFLAG,0
00028b   a273     goto    0x273            	GOTO	_00557_DS_
                                           ;;genSkipc:3291: created from rifx:013B5EFC
                                           _00520_DS_
                                           ;	.line	1079; "MC32F7361.c"	if ((1 == __flag_detect_load_status) || /*  */
00028c   582f     movar   0x2f             	MOVAR	_main___flag_detect_load_status_196608_128
00028d   3901     xorai   0x1              	XORAI	0x01
00028e   e587     jbset   0x187, 0x2       	JBSET	PFLAG,2
00028f   a291     goto    0x291            	GOTO	_00740_DS_
000290   a295     goto    0x295            	GOTO	_00529_DS_
                                           _00740_DS_
                                           ;	.line	1080; "MC32F7361.c"	(3 == __flag_detect_load_status))   /*  */
000291   582f     movar   0x2f             	MOVAR	_main___flag_detect_load_status_196608_128
000292   3903     xorai   0x3              	XORAI	0x03
000293   e587     jbset   0x187, 0x2       	JBSET	PFLAG,2
000294   a2b4     goto    0x2b4            	GOTO	_00551_DS_
                                           _00529_DS_
                                           ;	.line	1082; "MC32F7361.c"	ret_u8 = is_detect_load();
000295   82f3     call    0x2f3            	CALL	_is_detect_load
000296   5649     movra   0x49             	MOVRA	_ret_u8
                                           ;	.line	1083; "MC32F7361.c"	if (0 == ret_u8)
000297   3c00     movai   0                	MOVAI	0x00
000298   5c49     orar    0x49             	ORAR	_ret_u8
000299   e587     jbset   0x187, 0x2       	JBSET	PFLAG,2
00029a   a2a0     goto    0x2a0            	GOTO	_00527_DS_
                                           ;	.line	1086; "MC32F7361.c"	__flag_detect_load_status = 2;
00029b   3c02     movai   0x2              	MOVAI	0x02
00029c   562f     movra   0x2f             	MOVRA	_main___flag_detect_load_status_196608_128
                                           ;	.line	1087; "MC32F7361.c"	flag_is_detect_load_when_charged = 0;
00029d   de4a     bclr    0x4a, 0x7        	BCLR	_flag1,7
                                           ;	.line	1088; "MC32F7361.c"	stop_charging_the_host(); // PWM
00029e   82ef     call    0x2ef            	CALL	_stop_charging_the_host
00029f   a2b4     goto    0x2b4            	GOTO	_00551_DS_
                                           _00527_DS_
                                           ;	.line	1090; "MC32F7361.c"	else if (1 == ret_u8)
0002a0   5849     movar   0x49             	MOVAR	_ret_u8
0002a1   3901     xorai   0x1              	XORAI	0x01
0002a2   e587     jbset   0x187, 0x2       	JBSET	PFLAG,2
0002a3   a2ad     goto    0x2ad            	GOTO	_00524_DS_
                                           ;	.line	1093; "MC32F7361.c"	if (1 == __flag_detect_load_status)
0002a4   582f     movar   0x2f             	MOVAR	_main___flag_detect_load_status_196608_128
0002a5   3901     xorai   0x1              	XORAI	0x01
0002a6   e587     jbset   0x187, 0x2       	JBSET	PFLAG,2
0002a7   a2a9     goto    0x2a9            	GOTO	_00522_DS_
                                           ;	.line	1095; "MC32F7361.c"	set_timer0_pwm_when_charging();
0002a8   850a     call    0x50a            	CALL	_set_timer0_pwm_when_charging
                                           _00522_DS_
                                           ;	.line	1098; "MC32F7361.c"	__flag_detect_load_status = 3;
0002a9   3c03     movai   0x3              	MOVAI	0x03
0002aa   562f     movra   0x2f             	MOVRA	_main___flag_detect_load_status_196608_128
                                           ;	.line	1099; "MC32F7361.c"	flag_is_detect_load_when_charged = 1;
0002ab   ce4a     bset    0x4a, 0x7        	BSET	_flag1,7
0002ac   a2b4     goto    0x2b4            	GOTO	_00551_DS_
                                           _00524_DS_
                                           ;	.line	1101; "MC32F7361.c"	else if (2 == ret_u8)
0002ad   a2b4     goto    0x2b4            	GOTO	_00551_DS_
                                           _00544_DS_
                                           ;	.line	1109; "MC32F7361.c"	else if (CUR_STATUS_POWER_OFF == cur_dev_status)
0002ae   5844     movar   0x44             	MOVAR	_cur_dev_status
0002af   3903     xorai   0x3              	XORAI	0x03
0002b0   e587     jbset   0x187, 0x2       	JBSET	PFLAG,2
0002b1   a2b4     goto    0x2b4            	GOTO	_00551_DS_
                                           ;	.line	1112; "MC32F7361.c"	low_power_scan_handle();
0002b2   82b7     call    0x2b7            	CALL	_low_power_scan_handle
                                           ;	.line	1116; "MC32F7361.c"	cur_dev_status = CUR_STATUS_NONE;
0002b3   7644     clrr    0x44             	CLRR	_cur_dev_status
                                           _00551_DS_
                                           ;	.line	1122; "MC32F7361.c"	__endasm;
                                           	;
0002b4   000e     clrwdt                   	clrwdt;
                                           	
0002b5   a0b2     goto    0xb2             	GOTO	_00553_DS_
                                           ;	.line	1124; "MC32F7361.c"	}
0002b6   000c     return                   	RETURN	
                                           ; exit point of _main
                                           
                                           ;***
                                           ;  pBlock Stats: dbName = C
                                           ;***
                                           ;entry:  _low_power_scan_handle	;Function start
                                           ; 2 exit points
                                           ;has an exit
                                           ;functions called:
                                           ;   _Sys_Init
                                           ;   _delay_ms
                                           ;   _Sys_Init
                                           ;   _delay_ms
                                           ;1 compiler assigned register :
                                           ;   STK00
                                           ;; Starting pCode block
                                           _low_power_scan_handle	;Function start
                                           ; 2 exit points
                                           ;	.line	618; "MC32F7361.c"	if (CUR_STATUS_NONE == cur_dev_status ||    /*  */
0002b7   3c00     movai   0                	MOVAI	0x00
0002b8   5c44     orar    0x44             	ORAR	_cur_dev_status
0002b9   f587     jbclr   0x187, 0x2       	JBCLR	PFLAG,2
0002ba   a2bf     goto    0x2bf            	GOTO	_00412_DS_
                                           ;	.line	619; "MC32F7361.c"	CUR_STATUS_POWER_OFF == cur_dev_status) /*  */
0002bb   5844     movar   0x44             	MOVAR	_cur_dev_status
0002bc   3903     xorai   0x3              	XORAI	0x03
0002bd   e587     jbset   0x187, 0x2       	JBSET	PFLAG,2
0002be   a2ee     goto    0x2ee            	GOTO	_00431_DS_
                                           _00412_DS_
                                           ;	.line	623; "MC32F7361.c"	GIE = 0; // 
0002bf   df88     bclr    0x188, 0x7       	BCLR	_MCRbits,7
                                           ;	.line	624; "MC32F7361.c"	LED_GREEN_OFF();
0002c0   d190     bclr    0x190, 0         	BCLR	_IOP0bits,0
                                           ;	.line	625; "MC32F7361.c"	LED_RED_OFF();
0002c1   df94     bclr    0x194, 0x7       	BCLR	_IOP1bits,7
                                           ;	.line	626; "MC32F7361.c"	PWM_DISABLE();
0002c2   dd98     bclr    0x198, 0x6       	BCLR	_T0CRbits,6
0002c3   df98     bclr    0x198, 0x7       	BCLR	_T0CRbits,7
                                           ;	.line	631; "MC32F7361.c"	P16D = 0;
0002c4   dd94     bclr    0x194, 0x6       	BCLR	_IOP1bits,6
                                           ;	.line	633; "MC32F7361.c"	T3EN = 0;
0002c5   dfa4     bclr    0x1a4, 0x7       	BCLR	_T3CRbits,7
                                           ;	.line	634; "MC32F7361.c"	T3IE = 0;
0002c6   df8a     bclr    0x18a, 0x7       	BCLR	_INTEbits,7
                                           ;	.line	642; "MC32F7361.c"	P15OE = 0; // 
0002c7   db95     bclr    0x195, 0x5       	BCLR	_OEP1bits,5
                                           ;	.line	643; "MC32F7361.c"	P15DC = 0; // 
0002c8   dbb7     bclr    0x1b7, 0x5       	BCLR	_P1ADCRbits,5
                                           ;	.line	647; "MC32F7361.c"	ADCHS3 = 0;
0002c9   dfb0     bclr    0x1b0, 0x7       	BCLR	_ADCR0bits,7
                                           ;	.line	648; "MC32F7361.c"	ADCHS2 = 0;
0002ca   ddb0     bclr    0x1b0, 0x6       	BCLR	_ADCR0bits,6
                                           ;	.line	649; "MC32F7361.c"	ADCHS1 = 0;
0002cb   dbb0     bclr    0x1b0, 0x5       	BCLR	_ADCR0bits,5
                                           ;	.line	650; "MC32F7361.c"	ADCHS0 = 0;
0002cc   d9b0     bclr    0x1b0, 0x4       	BCLR	_ADCR0bits,4
                                           ;	.line	651; "MC32F7361.c"	ADEN = 0;
0002cd   d1b0     bclr    0x1b0, 0         	BCLR	_ADCR0bits,0
                                           ;	.line	653; "MC32F7361.c"	P13KE = 1;
0002ce   c78e     bset    0x18e, 0x3       	BSET	_P1KBCRbits,3
                                           ;	.line	658; "MC32F7361.c"	P04KE = 1;
0002cf   c98d     bset    0x18d, 0x4       	BSET	_P0KBCRbits,4
                                           ;	.line	660; "MC32F7361.c"	KBIF = 0;
0002d0   d98b     bclr    0x18b, 0x4       	BCLR	_INTFbits,4
                                           ;	.line	661; "MC32F7361.c"	KBIE = 1;
0002d1   c98a     bset    0x18a, 0x4       	BSET	_INTEbits,4
                                           ;	.line	662; "MC32F7361.c"	LVDEN = 0; // LVD
0002d2   dfaf     bclr    0x1af, 0x7       	BCLR	_LVDCRbits,7
                                           ;	.line	663; "MC32F7361.c"	HFEN = 0;  // 
0002d3   d1ae     bclr    0x1ae, 0         	BCLR	_OSCMRbits,0
                                           ;	.line	664; "MC32F7361.c"	LFEN = 0;  // 
0002d4   d3ae     bclr    0x1ae, 0x1       	BCLR	_OSCMRbits,1
                                           ;	.line	666; "MC32F7361.c"	Nop();
0002d5   0000     nop                      	nop	
                                           ;	.line	667; "MC32F7361.c"	Nop();
0002d6   0000     nop                      	nop	
                                           ;	.line	668; "MC32F7361.c"	Stop();
0002d7   000b     stop                     	stop	
                                           ;	.line	669; "MC32F7361.c"	Nop();
0002d8   0000     nop                      	nop	
                                           ;	.line	670; "MC32F7361.c"	Nop();
0002d9   0000     nop                      	nop	
                                           ;	.line	671; "MC32F7361.c"	HFEN = 1; // 
0002da   c1ae     bset    0x1ae, 0         	BSET	_OSCMRbits,0
                                           ;	.line	672; "MC32F7361.c"	LVDEN = 1;
0002db   cfaf     bset    0x1af, 0x7       	BSET	_LVDCRbits,7
                                           ;	.line	676; "MC32F7361.c"	P04KE = 0;
0002dc   d98d     bclr    0x18d, 0x4       	BCLR	_P0KBCRbits,4
                                           ;	.line	678; "MC32F7361.c"	P13KE = 0; // 
0002dd   d78e     bclr    0x18e, 0x3       	BCLR	_P1KBCRbits,3
                                           ;	.line	679; "MC32F7361.c"	KBIE = 0;
0002de   d98a     bclr    0x18a, 0x4       	BCLR	_INTEbits,4
                                           ;	.line	680; "MC32F7361.c"	KBIF = 0;
0002df   d98b     bclr    0x18b, 0x4       	BCLR	_INTFbits,4
                                           ;	.line	683; "MC32F7361.c"	if (CHARGE_PIN || 0 == P13D)
0002e0   f990     jbclr   0x190, 0x4       	JBCLR	_IOP0bits,4
0002e1   a2e4     goto    0x2e4            	GOTO	_00424_DS_
0002e2   f794     jbclr   0x194, 0x3       	JBCLR	_IOP1bits,3
0002e3   a2bf     goto    0x2bf            	GOTO	_00412_DS_
                                           _00424_DS_
                                           ;	.line	695; "MC32F7361.c"	GIE = 1;
0002e4   cf88     bset    0x188, 0x7       	BSET	_MCRbits,7
                                           ;	.line	696; "MC32F7361.c"	Sys_Init();
0002e5   8437     call    0x437            	CALL	_Sys_Init
                                           ;	.line	697; "MC32F7361.c"	delay_ms(1);
0002e6   3c01     movai   0x1              	MOVAI	0x01
0002e7   5606     movra   0x6              	MOVRA	STK00
0002e8   3c00     movai   0                	MOVAI	0x00
0002e9   855e     call    0x55e            	CALL	_delay_ms
                                           ;	.line	699; "MC32F7361.c"	if (CHARGE_PIN)
0002ea   e990     jbset   0x190, 0x4       	JBSET	_IOP0bits,4
0002eb   a2ee     goto    0x2ee            	GOTO	_00431_DS_
                                           ;	.line	701; "MC32F7361.c"	cur_dev_status = CUR_STATUS_BE_CHARGING; // 
0002ec   3c01     movai   0x1              	MOVAI	0x01
0002ed   5644     movra   0x44             	MOVRA	_cur_dev_status
                                           _00431_DS_
                                           ;	.line	704; "MC32F7361.c"	}
0002ee   000c     return                   	RETURN	
                                           ; exit point of _low_power_scan_handle
                                           
                                           ;***
                                           ;  pBlock Stats: dbName = C
                                           ;***
                                           ;entry:  _stop_charging_the_host	;Function start
                                           ; 2 exit points
                                           ;has an exit
                                           ;; Starting pCode block
                                           _stop_charging_the_host	;Function start
                                           ; 2 exit points
                                           ;	.line	612; "MC32F7361.c"	LED_GREEN_OFF();
0002ef   d190     bclr    0x190, 0         	BCLR	_IOP0bits,0
                                           ;	.line	613; "MC32F7361.c"	PWM_DISABLE(); // pwm
0002f0   dd98     bclr    0x198, 0x6       	BCLR	_T0CRbits,6
0002f1   df98     bclr    0x198, 0x7       	BCLR	_T0CRbits,7
                                           ;	.line	614; "MC32F7361.c"	}
0002f2   000c     return                   	RETURN	
                                           ; exit point of _stop_charging_the_host
                                           
                                           ;***
                                           ;  pBlock Stats: dbName = C
                                           ;***
                                           ;entry:  _is_detect_load	;Function start
                                           ; 2 exit points
                                           ;has an exit
                                           ;functions called:
                                           ;   _adc_sel_channel
                                           ;   _adc_get_val
                                           ;   _delay_ms
                                           ;   _adc_sel_channel
                                           ;   _adc_get_val
                                           ;   _delay_ms
                                           ;10 compiler assigned registers:
                                           ;   r0x102B
                                           ;   STK00
                                           ;   r0x102C
                                           ;   r0x102D
                                           ;   r0x102E
                                           ;   r0x102F
                                           ;   r0x1030
                                           ;   r0x1031
                                           ;   r0x1032
                                           ;   r0x1033
                                           ;; Starting pCode block
                                           _is_detect_load	;Function start
                                           ; 2 exit points
                                           ;	.line	498; "MC32F7361.c"	u8 ret = 2; // 
0002f3   3c02     movai   0x2              	MOVAI	0x02
0002f4   5616     movra   0x16             	MOVRA	r0x102B
                                           ;	.line	507; "MC32F7361.c"	if (0 == flag_is_enable_detect_load)
0002f5   f64a     jbclr   0x4a, 0x3        	JBCLR	_flag1,3
0002f6   a301     goto    0x301            	GOTO	_00309_DS_
                                           ;	.line	511; "MC32F7361.c"	detect_load_cnt = 0;
0002f7   7638     clrr    0x38             	CLRR	_detect_load_cnt
0002f8   7639     clrr    0x39             	CLRR	(_detect_load_cnt + 1)
0002f9   763a     clrr    0x3a             	CLRR	(_detect_load_cnt + 2)
0002fa   763b     clrr    0x3b             	CLRR	(_detect_load_cnt + 3)
                                           ;	.line	512; "MC32F7361.c"	undetect_load_cnt = 0;
0002fb   763c     clrr    0x3c             	CLRR	_undetect_load_cnt
0002fc   763d     clrr    0x3d             	CLRR	(_undetect_load_cnt + 1)
0002fd   763e     clrr    0x3e             	CLRR	(_undetect_load_cnt + 2)
0002fe   763f     clrr    0x3f             	CLRR	(_undetect_load_cnt + 3)
                                           ;	.line	513; "MC32F7361.c"	flag_tim_set_scan_time_is_arrive = 0;
0002ff   d84a     bclr    0x4a, 0x4        	BCLR	_flag1,4
                                           ;	.line	514; "MC32F7361.c"	flag_is_enable_detect_load = 1; // 
000300   c64a     bset    0x4a, 0x3        	BSET	_flag1,3
                                           _00309_DS_
                                           ;	.line	517; "MC32F7361.c"	adc_sel_channel(ADC_CHANNEL_LOAD);
000301   3c02     movai   0x2              	MOVAI	0x02
000302   84df     call    0x4df            	CALL	_adc_sel_channel
                                           ;	.line	518; "MC32F7361.c"	adc_val = adc_get_val();
000303   8442     call    0x442            	CALL	_adc_get_val
000304   5641     movra   0x41             	MOVRA	(_adc_val + 1)
000305   5806     movar   0x6              	MOVAR	STK00
000306   5640     movra   0x40             	MOVRA	_adc_val
                                           ;	.line	524; "MC32F7361.c"	(cur_dev_status == CUR_STATUS_BE_CHARGING && 114 == T0LOAD && adc_val < DETECT_LOAD_ADC_VAL_WHEN_BE_CHARGING) || /* 282KHzPWM */
000307   5844     movar   0x44             	MOVAR	_cur_dev_status
000308   3901     xorai   0x1              	XORAI	0x01
000309   e587     jbset   0x187, 0x2       	JBSET	PFLAG,2
00030a   a317     goto    0x317            	GOTO	_00326_DS_
00030b   599a     movar   0x19a            	MOVAR	_T0LOAD
00030c   3972     xorai   0x72             	XORAI	0x72
00030d   e587     jbset   0x187, 0x2       	JBSET	PFLAG,2
00030e   a317     goto    0x317            	GOTO	_00326_DS_
                                           ;;unsigned compare: left < lit(0xDD9=3545), size=2
00030f   3c0d     movai   0xd              	MOVAI	0x0d
000310   4841     rsubar  0x41             	RSUBAR	(_adc_val + 1)
000311   e587     jbset   0x187, 0x2       	JBSET	PFLAG,2
000312   a315     goto    0x315            	GOTO	_00394_DS_
000313   3cd9     movai   0xd9             	MOVAI	0xd9
000314   4840     rsubar  0x40             	RSUBAR	_adc_val
                                           _00394_DS_
000315   e187     jbset   0x187, 0         	JBSET	PFLAG,0
000316   a334     goto    0x334            	GOTO	_00319_DS_
                                           ;;genSkipc:3291: created from rifx:013B5EFC
                                           _00326_DS_
                                           ;	.line	525; "MC32F7361.c"	(cur_dev_status == CUR_STATUS_BE_CHARGING && 114 != T0LOAD && adc_val < 3725) ||                                 /* 326KHzPWM */
000317   5844     movar   0x44             	MOVAR	_cur_dev_status
000318   3901     xorai   0x1              	XORAI	0x01
000319   e587     jbset   0x187, 0x2       	JBSET	PFLAG,2
00031a   a328     goto    0x328            	GOTO	_00328_DS_
00031b   599a     movar   0x19a            	MOVAR	_T0LOAD
00031c   3972     xorai   0x72             	XORAI	0x72
00031d   e587     jbset   0x187, 0x2       	JBSET	PFLAG,2
00031e   a320     goto    0x320            	GOTO	_00395_DS_
00031f   a328     goto    0x328            	GOTO	_00328_DS_
                                           ;;unsigned compare: left < lit(0xE8D=3725), size=2
                                           _00395_DS_
000320   3c0e     movai   0xe              	MOVAI	0x0e
000321   4841     rsubar  0x41             	RSUBAR	(_adc_val + 1)
000322   e587     jbset   0x187, 0x2       	JBSET	PFLAG,2
000323   a326     goto    0x326            	GOTO	_00396_DS_
000324   3c8d     movai   0x8d             	MOVAI	0x8d
000325   4840     rsubar  0x40             	RSUBAR	_adc_val
                                           _00396_DS_
000326   e187     jbset   0x187, 0         	JBSET	PFLAG,0
000327   a334     goto    0x334            	GOTO	_00319_DS_
                                           ;;genSkipc:3291: created from rifx:013B5EFC
                                           _00328_DS_
                                           ;	.line	528; "MC32F7361.c"	(cur_dev_status == CUR_STATUS_IN_CHARGING && adc_val < 3882) /* 326KHzPWM */
000328   5844     movar   0x44             	MOVAR	_cur_dev_status
000329   3902     xorai   0x2              	XORAI	0x02
00032a   e587     jbset   0x187, 0x2       	JBSET	PFLAG,2
00032b   a33c     goto    0x33c            	GOTO	_00320_DS_
                                           ;;unsigned compare: left < lit(0xF2A=3882), size=2
00032c   3c0f     movai   0xf              	MOVAI	0x0f
00032d   4841     rsubar  0x41             	RSUBAR	(_adc_val + 1)
00032e   e587     jbset   0x187, 0x2       	JBSET	PFLAG,2
00032f   a332     goto    0x332            	GOTO	_00397_DS_
000330   3c2a     movai   0x2a             	MOVAI	0x2a
000331   4840     rsubar  0x40             	RSUBAR	_adc_val
                                           _00397_DS_
000332   f187     jbclr   0x187, 0         	JBCLR	PFLAG,0
000333   a33c     goto    0x33c            	GOTO	_00320_DS_
                                           ;;genSkipc:3291: created from rifx:013B5EFC
                                           _00319_DS_
                                           ;	.line	531; "MC32F7361.c"	detect_load_cnt++;
000334   6638     incr    0x38             	INCR	_detect_load_cnt
000335   f587     jbclr   0x187, 0x2       	JBCLR	PFLAG,2
000336   6639     incr    0x39             	INCR	(_detect_load_cnt + 1)
000337   f587     jbclr   0x187, 0x2       	JBCLR	PFLAG,2
000338   663a     incr    0x3a             	INCR	(_detect_load_cnt + 2)
000339   f587     jbclr   0x187, 0x2       	JBCLR	PFLAG,2
00033a   663b     incr    0x3b             	INCR	(_detect_load_cnt + 3)
00033b   a370     goto    0x370            	GOTO	_00321_DS_
                                           _00320_DS_
                                           ;	.line	542; "MC32F7361.c"	(cur_dev_status == CUR_STATUS_BE_CHARGING && 114 == T0LOAD && adc_val > UNDETECT_LOAD_ADC_VAL_WHEN_BE_CHARGING) || /* 282KHzPWM */
00033c   5844     movar   0x44             	MOVAR	_cur_dev_status
00033d   3901     xorai   0x1              	XORAI	0x01
00033e   e587     jbset   0x187, 0x2       	JBSET	PFLAG,2
00033f   a34c     goto    0x34c            	GOTO	_00316_DS_
000340   599a     movar   0x19a            	MOVAR	_T0LOAD
000341   3972     xorai   0x72             	XORAI	0x72
000342   e587     jbset   0x187, 0x2       	JBSET	PFLAG,2
000343   a34c     goto    0x34c            	GOTO	_00316_DS_
                                           ;;swapping arguments (AOP_TYPEs 1/3)
                                           ;;unsigned compare: left >= lit(0xEBE=3774), size=2
000344   3c0e     movai   0xe              	MOVAI	0x0e
000345   4841     rsubar  0x41             	RSUBAR	(_adc_val + 1)
000346   e587     jbset   0x187, 0x2       	JBSET	PFLAG,2
000347   a34a     goto    0x34a            	GOTO	_00398_DS_
000348   3cbe     movai   0xbe             	MOVAI	0xbe
000349   4840     rsubar  0x40             	RSUBAR	_adc_val
                                           _00398_DS_
00034a   f187     jbclr   0x187, 0         	JBCLR	PFLAG,0
00034b   a369     goto    0x369            	GOTO	_00310_DS_
                                           ;;genSkipc:3291: created from rifx:013B5EFC
                                           _00316_DS_
                                           ;	.line	543; "MC32F7361.c"	(cur_dev_status == CUR_STATUS_BE_CHARGING && 114 != T0LOAD && adc_val > 3910) ||                                   /* 326KHzPWM */
00034c   5844     movar   0x44             	MOVAR	_cur_dev_status
00034d   3901     xorai   0x1              	XORAI	0x01
00034e   e587     jbset   0x187, 0x2       	JBSET	PFLAG,2
00034f   a35d     goto    0x35d            	GOTO	_00318_DS_
000350   599a     movar   0x19a            	MOVAR	_T0LOAD
000351   3972     xorai   0x72             	XORAI	0x72
000352   e587     jbset   0x187, 0x2       	JBSET	PFLAG,2
000353   a355     goto    0x355            	GOTO	_00399_DS_
000354   a35d     goto    0x35d            	GOTO	_00318_DS_
                                           ;;swapping arguments (AOP_TYPEs 1/3)
                                           ;;unsigned compare: left >= lit(0xF47=3911), size=2
                                           _00399_DS_
000355   3c0f     movai   0xf              	MOVAI	0x0f
000356   4841     rsubar  0x41             	RSUBAR	(_adc_val + 1)
000357   e587     jbset   0x187, 0x2       	JBSET	PFLAG,2
000358   a35b     goto    0x35b            	GOTO	_00400_DS_
000359   3c47     movai   0x47             	MOVAI	0x47
00035a   4840     rsubar  0x40             	RSUBAR	_adc_val
                                           _00400_DS_
00035b   f187     jbclr   0x187, 0         	JBCLR	PFLAG,0
00035c   a369     goto    0x369            	GOTO	_00310_DS_
                                           ;;genSkipc:3291: created from rifx:013B5EFC
                                           _00318_DS_
                                           ;	.line	546; "MC32F7361.c"	(cur_dev_status == CUR_STATUS_IN_CHARGING && adc_val > 3983) /* 326KHzPWM */
00035d   5844     movar   0x44             	MOVAR	_cur_dev_status
00035e   3902     xorai   0x2              	XORAI	0x02
00035f   e587     jbset   0x187, 0x2       	JBSET	PFLAG,2
000360   a370     goto    0x370            	GOTO	_00321_DS_
                                           ;;swapping arguments (AOP_TYPEs 1/3)
                                           ;;unsigned compare: left >= lit(0xF90=3984), size=2
000361   3c0f     movai   0xf              	MOVAI	0x0f
000362   4841     rsubar  0x41             	RSUBAR	(_adc_val + 1)
000363   e587     jbset   0x187, 0x2       	JBSET	PFLAG,2
000364   a367     goto    0x367            	GOTO	_00401_DS_
000365   3c90     movai   0x90             	MOVAI	0x90
000366   4840     rsubar  0x40             	RSUBAR	_adc_val
                                           _00401_DS_
000367   e187     jbset   0x187, 0         	JBSET	PFLAG,0
000368   a370     goto    0x370            	GOTO	_00321_DS_
                                           ;;genSkipc:3291: created from rifx:013B5EFC
                                           _00310_DS_
                                           ;	.line	549; "MC32F7361.c"	undetect_load_cnt++;
000369   663c     incr    0x3c             	INCR	_undetect_load_cnt
00036a   f587     jbclr   0x187, 0x2       	JBCLR	PFLAG,2
00036b   663d     incr    0x3d             	INCR	(_undetect_load_cnt + 1)
00036c   f587     jbclr   0x187, 0x2       	JBCLR	PFLAG,2
00036d   663e     incr    0x3e             	INCR	(_undetect_load_cnt + 2)
00036e   f587     jbclr   0x187, 0x2       	JBCLR	PFLAG,2
00036f   663f     incr    0x3f             	INCR	(_undetect_load_cnt + 3)
                                           _00321_DS_
                                           ;	.line	571; "MC32F7361.c"	if (flag_tim_set_scan_time_is_arrive)
000370   e84a     jbset   0x4a, 0x4        	JBSET	_flag1,4
000371   a3c1     goto    0x3c1            	GOTO	_00335_DS_
                                           ;	.line	573; "MC32F7361.c"	flag_tim_set_scan_time_is_arrive = 0;
000372   d84a     bclr    0x4a, 0x4        	BCLR	_flag1,4
                                           ;	.line	574; "MC32F7361.c"	flag_is_enable_detect_load = 0; // 
000373   d64a     bclr    0x4a, 0x3        	BCLR	_flag1,3
                                           ;	.line	575; "MC32F7361.c"	delay_ms(1);
000374   3c01     movai   0x1              	MOVAI	0x01
000375   5606     movra   0x6              	MOVRA	STK00
000376   3c00     movai   0                	MOVAI	0x00
000377   855e     call    0x55e            	CALL	_delay_ms
                                           ;	.line	577; "MC32F7361.c"	if (detect_load_cnt > undetect_load_cnt)
000378   583b     movar   0x3b             	MOVAR	(_detect_load_cnt + 3)
000379   483f     rsubar  0x3f             	RSUBAR	(_undetect_load_cnt + 3)
00037a   e587     jbset   0x187, 0x2       	JBSET	PFLAG,2
00037b   a386     goto    0x386            	GOTO	_00402_DS_
00037c   583a     movar   0x3a             	MOVAR	(_detect_load_cnt + 2)
00037d   483e     rsubar  0x3e             	RSUBAR	(_undetect_load_cnt + 2)
00037e   e587     jbset   0x187, 0x2       	JBSET	PFLAG,2
00037f   a386     goto    0x386            	GOTO	_00402_DS_
000380   5839     movar   0x39             	MOVAR	(_detect_load_cnt + 1)
000381   483d     rsubar  0x3d             	RSUBAR	(_undetect_load_cnt + 1)
000382   e587     jbset   0x187, 0x2       	JBSET	PFLAG,2
000383   a386     goto    0x386            	GOTO	_00402_DS_
000384   5838     movar   0x38             	MOVAR	_detect_load_cnt
000385   483c     rsubar  0x3c             	RSUBAR	_undetect_load_cnt
                                           _00402_DS_
000386   f187     jbclr   0x187, 0         	JBCLR	PFLAG,0
000387   a3b8     goto    0x3b8            	GOTO	_00332_DS_
                                           ;;genSkipc:3291: created from rifx:013B5EFC
                                           ;	.line	580; "MC32F7361.c"	if ((detect_load_cnt - undetect_load_cnt) > (undetect_load_cnt / 2))
000388   583c     movar   0x3c             	MOVAR	_undetect_load_cnt
000389   4838     rsubar  0x38             	RSUBAR	_detect_load_cnt
00038a   5617     movra   0x17             	MOVRA	r0x102C
00038b   5839     movar   0x39             	MOVAR	(_detect_load_cnt + 1)
00038c   5618     movra   0x18             	MOVRA	r0x102D
00038d   583d     movar   0x3d             	MOVAR	(_undetect_load_cnt + 1)
00038e   e187     jbset   0x187, 0         	JBSET	PFLAG,0
00038f   603d     jzar    0x3d             	JZAR	(_undetect_load_cnt + 1)
000390   4a18     rsubra  0x18             	RSUBRA	r0x102D
000391   583a     movar   0x3a             	MOVAR	(_detect_load_cnt + 2)
000392   5619     movra   0x19             	MOVRA	r0x102E
000393   583e     movar   0x3e             	MOVAR	(_undetect_load_cnt + 2)
000394   e187     jbset   0x187, 0         	JBSET	PFLAG,0
000395   603e     jzar    0x3e             	JZAR	(_undetect_load_cnt + 2)
000396   4a19     rsubra  0x19             	RSUBRA	r0x102E
000397   583f     movar   0x3f             	MOVAR	(_undetect_load_cnt + 3)
000398   e187     jbset   0x187, 0         	JBSET	PFLAG,0
000399   643f     incar   0x3f             	INCAR	(_undetect_load_cnt + 3)
00039a   483b     rsubar  0x3b             	RSUBAR	(_detect_load_cnt + 3)
00039b   561a     movra   0x1a             	MOVRA	r0x102F
                                           ;;shiftRight_Left2ResultLit:5339: shCount=1, size=4, sign=0, same=0, offr=0
00039c   d187     bclr    0x187, 0         	BCLR	PFLAG,0
00039d   4c3f     rrar    0x3f             	RRAR	(_undetect_load_cnt + 3)
00039e   561e     movra   0x1e             	MOVRA	r0x1030
00039f   4c3e     rrar    0x3e             	RRAR	(_undetect_load_cnt + 2)
0003a0   561d     movra   0x1d             	MOVRA	r0x1031
0003a1   4c3d     rrar    0x3d             	RRAR	(_undetect_load_cnt + 1)
0003a2   561c     movra   0x1c             	MOVRA	r0x1032
0003a3   4c3c     rrar    0x3c             	RRAR	_undetect_load_cnt
0003a4   561b     movra   0x1b             	MOVRA	r0x1033
0003a5   581a     movar   0x1a             	MOVAR	r0x102F
0003a6   481e     rsubar  0x1e             	RSUBAR	r0x1030
0003a7   e587     jbset   0x187, 0x2       	JBSET	PFLAG,2
0003a8   a3b3     goto    0x3b3            	GOTO	_00403_DS_
0003a9   5819     movar   0x19             	MOVAR	r0x102E
0003aa   481d     rsubar  0x1d             	RSUBAR	r0x1031
0003ab   e587     jbset   0x187, 0x2       	JBSET	PFLAG,2
0003ac   a3b3     goto    0x3b3            	GOTO	_00403_DS_
0003ad   5818     movar   0x18             	MOVAR	r0x102D
0003ae   481c     rsubar  0x1c             	RSUBAR	r0x1032
0003af   e587     jbset   0x187, 0x2       	JBSET	PFLAG,2
0003b0   a3b3     goto    0x3b3            	GOTO	_00403_DS_
0003b1   5817     movar   0x17             	MOVAR	r0x102C
0003b2   481b     rsubar  0x1b             	RSUBAR	r0x1033
                                           _00403_DS_
0003b3   f187     jbclr   0x187, 0         	JBCLR	PFLAG,0
0003b4   a3b9     goto    0x3b9            	GOTO	_00333_DS_
                                           ;;genSkipc:3291: created from rifx:013B5EFC
                                           ;	.line	583; "MC32F7361.c"	ret = 1;
0003b5   3c01     movai   0x1              	MOVAI	0x01
0003b6   5616     movra   0x16             	MOVRA	r0x102B
0003b7   a3b9     goto    0x3b9            	GOTO	_00333_DS_
                                           _00332_DS_
                                           ;	.line	596; "MC32F7361.c"	ret = 0;
0003b8   7616     clrr    0x16             	CLRR	r0x102B
                                           _00333_DS_
                                           ;	.line	599; "MC32F7361.c"	detect_load_cnt = 0;
0003b9   7638     clrr    0x38             	CLRR	_detect_load_cnt
0003ba   7639     clrr    0x39             	CLRR	(_detect_load_cnt + 1)
0003bb   763a     clrr    0x3a             	CLRR	(_detect_load_cnt + 2)
0003bc   763b     clrr    0x3b             	CLRR	(_detect_load_cnt + 3)
                                           ;	.line	600; "MC32F7361.c"	undetect_load_cnt = 0;
0003bd   763c     clrr    0x3c             	CLRR	_undetect_load_cnt
0003be   763d     clrr    0x3d             	CLRR	(_undetect_load_cnt + 1)
0003bf   763e     clrr    0x3e             	CLRR	(_undetect_load_cnt + 2)
0003c0   763f     clrr    0x3f             	CLRR	(_undetect_load_cnt + 3)
                                           _00335_DS_
                                           ;	.line	606; "MC32F7361.c"	return ret;
0003c1   5816     movar   0x16             	MOVAR	r0x102B
                                           ;	.line	607; "MC32F7361.c"	}
0003c2   000c     return                   	RETURN	
                                           ; exit point of _is_detect_load
                                           
                                           ;***
                                           ;  pBlock Stats: dbName = C
                                           ;***
                                           ;entry:  _is_open_lid	;Function start
                                           ; 2 exit points
                                           ;has an exit
                                           ;functions called:
                                           ;   _delay_ms
                                           ;   _delay_ms
                                           ;   _delay_ms
                                           ;   _delay_ms
                                           ;4 compiler assigned registers:
                                           ;   r0x1022
                                           ;   r0x1023
                                           ;   r0x1024
                                           ;   STK00
                                           ;; Starting pCode block
                                           _is_open_lid	;Function start
                                           ; 2 exit points
                                           ;	.line	437; "MC32F7361.c"	if (P13D)
0003c3   e794     jbset   0x194, 0x3       	JBSET	_IOP1bits,3
0003c4   a3c8     goto    0x3c8            	GOTO	_00272_DS_
                                           ;	.line	439; "MC32F7361.c"	ret = 1;
0003c5   3c01     movai   0x1              	MOVAI	0x01
0003c6   560d     movra   0xd              	MOVRA	r0x1022
0003c7   a3c9     goto    0x3c9            	GOTO	_00273_DS_
                                           _00272_DS_
                                           ;	.line	443; "MC32F7361.c"	ret = 0;
0003c8   760d     clrr    0xd              	CLRR	r0x1022
                                           _00273_DS_
                                           ;	.line	447; "MC32F7361.c"	if (ret == last_status)
0003c9   582b     movar   0x2b             	MOVAR	_is_open_lid_last_status_65536_47
0003ca   400d     xorar   0xd              	XORAR	r0x1022
0003cb   e587     jbset   0x187, 0x2       	JBSET	PFLAG,2
0003cc   a3cf     goto    0x3cf            	GOTO	_00275_DS_
                                           ;	.line	449; "MC32F7361.c"	return ret;
0003cd   580d     movar   0xd              	MOVAR	r0x1022
0003ce   a3fc     goto    0x3fc            	GOTO	_00293_DS_
                                           _00275_DS_
                                           ;	.line	452; "MC32F7361.c"	if (P13D) // 
0003cf   e794     jbset   0x194, 0x3       	JBSET	_IOP1bits,3
0003d0   a3e6     goto    0x3e6            	GOTO	_00303_DS_
                                           ;	.line	455; "MC32F7361.c"	for (i = 0; i < 200; i++)
0003d1   760e     clrr    0xe              	CLRR	r0x1023
0003d2   760f     clrr    0xf              	CLRR	r0x1024
                                           _00289_DS_
                                           ;	.line	457; "MC32F7361.c"	if (P13D)
0003d3   e794     jbset   0x194, 0x3       	JBSET	_IOP1bits,3
0003d4   a3d6     goto    0x3d6            	GOTO	_00277_DS_
                                           ;	.line	459; "MC32F7361.c"	cnt++;
0003d5   660e     incr    0xe              	INCR	r0x1023
                                           _00277_DS_
                                           ;	.line	462; "MC32F7361.c"	delay_ms(1);
0003d6   3c01     movai   0x1              	MOVAI	0x01
0003d7   5606     movra   0x6              	MOVRA	STK00
0003d8   3c00     movai   0                	MOVAI	0x00
0003d9   855e     call    0x55e            	CALL	_delay_ms
                                           ;	.line	455; "MC32F7361.c"	for (i = 0; i < 200; i++)
0003da   660f     incr    0xf              	INCR	r0x1024
                                           ;;unsigned compare: left < lit(0xC8=200), size=1
0003db   3cc8     movai   0xc8             	MOVAI	0xc8
0003dc   480f     rsubar  0xf              	RSUBAR	r0x1024
0003dd   e187     jbset   0x187, 0         	JBSET	PFLAG,0
0003de   a3d3     goto    0x3d3            	GOTO	_00289_DS_
                                           ;;genSkipc:3291: created from rifx:013B5EFC
                                           ;;unsigned compare: left < lit(0xC8=200), size=1
                                           ;	.line	465; "MC32F7361.c"	if (cnt >= 200)
0003df   3cc8     movai   0xc8             	MOVAI	0xc8
0003e0   480e     rsubar  0xe              	RSUBAR	r0x1023
0003e1   e187     jbset   0x187, 0         	JBSET	PFLAG,0
0003e2   a3f9     goto    0x3f9            	GOTO	_00288_DS_
                                           ;;genSkipc:3291: created from rifx:013B5EFC
                                           ;	.line	467; "MC32F7361.c"	ret = 1;
0003e3   3c01     movai   0x1              	MOVAI	0x01
0003e4   560d     movra   0xd              	MOVRA	r0x1022
0003e5   a3f9     goto    0x3f9            	GOTO	_00288_DS_
                                           _00303_DS_
                                           ;	.line	473; "MC32F7361.c"	for (i = 0; i < 200; i++)
0003e6   760e     clrr    0xe              	CLRR	r0x1023
0003e7   760f     clrr    0xf              	CLRR	r0x1024
                                           _00291_DS_
                                           ;	.line	475; "MC32F7361.c"	if (0 == P13D)
0003e8   f794     jbclr   0x194, 0x3       	JBCLR	_IOP1bits,3
0003e9   a3eb     goto    0x3eb            	GOTO	_00282_DS_
                                           ;	.line	477; "MC32F7361.c"	cnt++;
0003ea   660e     incr    0xe              	INCR	r0x1023
                                           _00282_DS_
                                           ;	.line	480; "MC32F7361.c"	delay_ms(1);
0003eb   3c01     movai   0x1              	MOVAI	0x01
0003ec   5606     movra   0x6              	MOVRA	STK00
0003ed   3c00     movai   0                	MOVAI	0x00
0003ee   855e     call    0x55e            	CALL	_delay_ms
                                           ;	.line	473; "MC32F7361.c"	for (i = 0; i < 200; i++)
0003ef   660f     incr    0xf              	INCR	r0x1024
                                           ;;unsigned compare: left < lit(0xC8=200), size=1
0003f0   3cc8     movai   0xc8             	MOVAI	0xc8
0003f1   480f     rsubar  0xf              	RSUBAR	r0x1024
0003f2   e187     jbset   0x187, 0         	JBSET	PFLAG,0
0003f3   a3e8     goto    0x3e8            	GOTO	_00291_DS_
                                           ;;genSkipc:3291: created from rifx:013B5EFC
                                           ;;unsigned compare: left < lit(0xC8=200), size=1
                                           ;	.line	483; "MC32F7361.c"	if (cnt >= 200)
0003f4   3cc8     movai   0xc8             	MOVAI	0xc8
0003f5   480e     rsubar  0xe              	RSUBAR	r0x1023
0003f6   e187     jbset   0x187, 0         	JBSET	PFLAG,0
0003f7   a3f9     goto    0x3f9            	GOTO	_00288_DS_
                                           ;;genSkipc:3291: created from rifx:013B5EFC
                                           ;	.line	485; "MC32F7361.c"	ret = 0;
0003f8   760d     clrr    0xd              	CLRR	r0x1022
                                           _00288_DS_
                                           ;	.line	489; "MC32F7361.c"	last_status = ret;
0003f9   580d     movar   0xd              	MOVAR	r0x1022
0003fa   562b     movra   0x2b             	MOVRA	_is_open_lid_last_status_65536_47
                                           ;	.line	491; "MC32F7361.c"	return ret;
0003fb   580d     movar   0xd              	MOVAR	r0x1022
                                           _00293_DS_
                                           ;	.line	492; "MC32F7361.c"	}
0003fc   000c     return                   	RETURN	
                                           ; exit point of _is_open_lid
                                           
                                           ;***
                                           ;  pBlock Stats: dbName = C
                                           ;***
                                           ;entry:  _is_in_charging	;Function start
                                           ; 2 exit points
                                           ;has an exit
                                           ;functions called:
                                           ;   _delay_ms
                                           ;   _delay_ms
                                           ;   _delay_ms
                                           ;   _delay_ms
                                           ;4 compiler assigned registers:
                                           ;   r0x1022
                                           ;   r0x1023
                                           ;   r0x1024
                                           ;   STK00
                                           ;; Starting pCode block
                                           _is_in_charging	;Function start
                                           ; 2 exit points
                                           ;	.line	373; "MC32F7361.c"	if (CHARGE_PIN)
0003fd   e990     jbset   0x190, 0x4       	JBSET	_IOP0bits,4
0003fe   a402     goto    0x402            	GOTO	_00235_DS_
                                           ;	.line	375; "MC32F7361.c"	ret = 1;
0003ff   3c01     movai   0x1              	MOVAI	0x01
000400   560d     movra   0xd              	MOVRA	r0x1022
000401   a403     goto    0x403            	GOTO	_00236_DS_
                                           _00235_DS_
                                           ;	.line	379; "MC32F7361.c"	ret = 0;
000402   760d     clrr    0xd              	CLRR	r0x1022
                                           _00236_DS_
                                           ;	.line	382; "MC32F7361.c"	if (ret == last_status)
000403   582a     movar   0x2a             	MOVAR	_is_in_charging_last_status_65536_32
000404   400d     xorar   0xd              	XORAR	r0x1022
000405   e587     jbset   0x187, 0x2       	JBSET	PFLAG,2
000406   a409     goto    0x409            	GOTO	_00238_DS_
                                           ;	.line	384; "MC32F7361.c"	return ret;
000407   580d     movar   0xd              	MOVAR	r0x1022
000408   a436     goto    0x436            	GOTO	_00256_DS_
                                           _00238_DS_
                                           ;	.line	387; "MC32F7361.c"	if (CHARGE_PIN)
000409   e990     jbset   0x190, 0x4       	JBSET	_IOP0bits,4
00040a   a420     goto    0x420            	GOTO	_00266_DS_
                                           ;	.line	390; "MC32F7361.c"	for (i = 0; i < 200; i++)
00040b   760e     clrr    0xe              	CLRR	r0x1023
00040c   760f     clrr    0xf              	CLRR	r0x1024
                                           _00252_DS_
                                           ;	.line	392; "MC32F7361.c"	if (CHARGE_PIN)
00040d   e990     jbset   0x190, 0x4       	JBSET	_IOP0bits,4
00040e   a410     goto    0x410            	GOTO	_00240_DS_
                                           ;	.line	394; "MC32F7361.c"	cnt++;
00040f   660e     incr    0xe              	INCR	r0x1023
                                           _00240_DS_
                                           ;	.line	397; "MC32F7361.c"	delay_ms(1);
000410   3c01     movai   0x1              	MOVAI	0x01
000411   5606     movra   0x6              	MOVRA	STK00
000412   3c00     movai   0                	MOVAI	0x00
000413   855e     call    0x55e            	CALL	_delay_ms
                                           ;	.line	390; "MC32F7361.c"	for (i = 0; i < 200; i++)
000414   660f     incr    0xf              	INCR	r0x1024
                                           ;;unsigned compare: left < lit(0xC8=200), size=1
000415   3cc8     movai   0xc8             	MOVAI	0xc8
000416   480f     rsubar  0xf              	RSUBAR	r0x1024
000417   e187     jbset   0x187, 0         	JBSET	PFLAG,0
000418   a40d     goto    0x40d            	GOTO	_00252_DS_
                                           ;;genSkipc:3291: created from rifx:013B5EFC
                                           ;;unsigned compare: left < lit(0xB4=180), size=1
                                           ;	.line	400; "MC32F7361.c"	if (cnt >= 180)
000419   3cb4     movai   0xb4             	MOVAI	0xb4
00041a   480e     rsubar  0xe              	RSUBAR	r0x1023
00041b   e187     jbset   0x187, 0         	JBSET	PFLAG,0
00041c   a433     goto    0x433            	GOTO	_00251_DS_
                                           ;;genSkipc:3291: created from rifx:013B5EFC
                                           ;	.line	403; "MC32F7361.c"	ret = 1;
00041d   3c01     movai   0x1              	MOVAI	0x01
00041e   560d     movra   0xd              	MOVRA	r0x1022
00041f   a433     goto    0x433            	GOTO	_00251_DS_
                                           _00266_DS_
                                           ;	.line	409; "MC32F7361.c"	for (i = 0; i < 200; i++)
000420   760e     clrr    0xe              	CLRR	r0x1023
000421   760f     clrr    0xf              	CLRR	r0x1024
                                           _00254_DS_
                                           ;	.line	411; "MC32F7361.c"	if (0 == CHARGE_PIN)
000422   f990     jbclr   0x190, 0x4       	JBCLR	_IOP0bits,4
000423   a425     goto    0x425            	GOTO	_00245_DS_
                                           ;	.line	413; "MC32F7361.c"	cnt++;
000424   660e     incr    0xe              	INCR	r0x1023
                                           _00245_DS_
                                           ;	.line	416; "MC32F7361.c"	delay_ms(1);
000425   3c01     movai   0x1              	MOVAI	0x01
000426   5606     movra   0x6              	MOVRA	STK00
000427   3c00     movai   0                	MOVAI	0x00
000428   855e     call    0x55e            	CALL	_delay_ms
                                           ;	.line	409; "MC32F7361.c"	for (i = 0; i < 200; i++)
000429   660f     incr    0xf              	INCR	r0x1024
                                           ;;unsigned compare: left < lit(0xC8=200), size=1
00042a   3cc8     movai   0xc8             	MOVAI	0xc8
00042b   480f     rsubar  0xf              	RSUBAR	r0x1024
00042c   e187     jbset   0x187, 0         	JBSET	PFLAG,0
00042d   a422     goto    0x422            	GOTO	_00254_DS_
                                           ;;genSkipc:3291: created from rifx:013B5EFC
                                           ;;unsigned compare: left < lit(0xB4=180), size=1
                                           ;	.line	419; "MC32F7361.c"	if (cnt >= 180)
00042e   3cb4     movai   0xb4             	MOVAI	0xb4
00042f   480e     rsubar  0xe              	RSUBAR	r0x1023
000430   e187     jbset   0x187, 0         	JBSET	PFLAG,0
000431   a433     goto    0x433            	GOTO	_00251_DS_
                                           ;;genSkipc:3291: created from rifx:013B5EFC
                                           ;	.line	422; "MC32F7361.c"	ret = 0;
000432   760d     clrr    0xd              	CLRR	r0x1022
                                           _00251_DS_
                                           ;	.line	426; "MC32F7361.c"	last_status = ret;
000433   580d     movar   0xd              	MOVAR	r0x1022
000434   562a     movra   0x2a             	MOVRA	_is_in_charging_last_status_65536_32
                                           ;	.line	428; "MC32F7361.c"	return ret;
000435   580d     movar   0xd              	MOVAR	r0x1022
                                           _00256_DS_
                                           ;	.line	429; "MC32F7361.c"	}
000436   000c     return                   	RETURN	
                                           ; exit point of _is_in_charging
                                           
                                           ;***
                                           ;  pBlock Stats: dbName = C
                                           ;***
                                           ;entry:  _Sys_Init	;Function start
                                           ; 2 exit points
                                           ;has an exit
                                           ;functions called:
                                           ;   _CLR_RAM
                                           ;   _IO_Init
                                           ;   _timer0_pwm_config
                                           ;   _timer3_config
                                           ;   _adc_config
                                           ;   _CLR_RAM
                                           ;   _IO_Init
                                           ;   _timer0_pwm_config
                                           ;   _timer3_config
                                           ;   _adc_config
                                           ;; Starting pCode block
                                           _Sys_Init	;Function start
                                           ; 2 exit points
                                           ;	.line	339; "MC32F7361.c"	GIE = 0;
000437   df88     bclr    0x188, 0x7       	BCLR	_MCRbits,7
                                           ;	.line	340; "MC32F7361.c"	CLR_RAM();
000438   8552     call    0x552            	CALL	_CLR_RAM
                                           ;	.line	341; "MC32F7361.c"	IO_Init();
000439   853d     call    0x53d            	CALL	_IO_Init
                                           ;	.line	343; "MC32F7361.c"	timer0_pwm_config();
00043a   8528     call    0x528            	CALL	_timer0_pwm_config
                                           ;	.line	344; "MC32F7361.c"	timer3_config();
00043b   8504     call    0x504            	CALL	_timer3_config
                                           ;	.line	345; "MC32F7361.c"	adc_config();
00043c   8534     call    0x534            	CALL	_adc_config
                                           ;	.line	354; "MC32F7361.c"	P04OE = 0; // 
00043d   d991     bclr    0x191, 0x4       	BCLR	_OEP0bits,4
                                           ;	.line	358; "MC32F7361.c"	P13PU = 0; //   --  
00043e   d796     bclr    0x196, 0x3       	BCLR	_PUP1bits,3
                                           ;	.line	359; "MC32F7361.c"	P13OE = 0; // 
00043f   d795     bclr    0x195, 0x3       	BCLR	_OEP1bits,3
                                           ;	.line	362; "MC32F7361.c"	GIE = 1;
000440   cf88     bset    0x188, 0x7       	BSET	_MCRbits,7
                                           ;	.line	363; "MC32F7361.c"	}
000441   000c     return                   	RETURN	
                                           ; exit point of _Sys_Init
                                           
                                           ;***
                                           ;  pBlock Stats: dbName = C
                                           ;***
                                           ;entry:  _adc_get_val	;Function start
                                           ; 2 exit points
                                           ;has an exit
                                           ;16 compiler assigned registers:
                                           ;   r0x101C
                                           ;   r0x101D
                                           ;   r0x101E
                                           ;   r0x101F
                                           ;   r0x1020
                                           ;   r0x1021
                                           ;   r0x1022
                                           ;   r0x1023
                                           ;   r0x1024
                                           ;   r0x1025
                                           ;   r0x1026
                                           ;   r0x1027
                                           ;   r0x1028
                                           ;   r0x1029
                                           ;   r0x102A
                                           ;   STK00
                                           ;; Starting pCode block
                                           _adc_get_val	;Function start
                                           ; 2 exit points
                                           ;	.line	269; "MC32F7361.c"	u32 g_tmpbuff = 0;
000442   7608     clrr    0x8              	CLRR	r0x101C
000443   7607     clrr    0x7              	CLRR	r0x101D
000444   7609     clrr    0x9              	CLRR	r0x101E
000445   760a     clrr    0xa              	CLRR	r0x101F
                                           ;	.line	270; "MC32F7361.c"	u16 g_adcmax = 0;
000446   760b     clrr    0xb              	CLRR	r0x1020
000447   760c     clrr    0xc              	CLRR	r0x1021
                                           ;	.line	271; "MC32F7361.c"	u16 g_adcmin = 0xFFFF;
000448   3cff     movai   0xff             	MOVAI	0xff
000449   560d     movra   0xd              	MOVRA	r0x1022
00044a   560e     movra   0xe              	MOVRA	r0x1023
                                           ;	.line	274; "MC32F7361.c"	for (i = 0; i < 20; i++)
00044b   760f     clrr    0xf              	CLRR	r0x1024
                                           _00184_DS_
                                           ;	.line	276; "MC32F7361.c"	ADEOC = 0; // ADCAD
00044c   d3b0     bclr    0x1b0, 0x1       	BCLR	_ADCR0bits,1
                                           _00173_DS_
                                           ;	.line	277; "MC32F7361.c"	while (!ADEOC)
00044d   e3b0     jbset   0x1b0, 0x1       	JBSET	_ADCR0bits,1
00044e   a44d     goto    0x44d            	GOTO	_00173_DS_
                                           ;	.line	279; "MC32F7361.c"	g_temp_value = ADRH; // 
00044f   59b4     movar   0x1b4            	MOVAR	_ADRH
000450   5610     movra   0x10             	MOVRA	r0x1025
000451   7611     clrr    0x11             	CLRR	r0x1026
                                           ;	.line	280; "MC32F7361.c"	g_temp_value = g_temp_value << 4 | (ADRL & 0x0F);
000452   4411     swapar  0x11             	SWAPAR	r0x1026
000453   3ef0     andai   0xf0             	ANDAI	0xf0
000454   5613     movra   0x13             	MOVRA	r0x1027
000455   4410     swapar  0x10             	SWAPAR	r0x1025
000456   5612     movra   0x12             	MOVRA	r0x1028
000457   3e0f     andai   0xf              	ANDAI	0x0f
000458   5e13     orra    0x13             	ORRA	r0x1027
000459   4212     xorra   0x12             	XORRA	r0x1028
00045a   59b5     movar   0x1b5            	MOVAR	_ADRL
00045b   5610     movra   0x10             	MOVRA	r0x1025
00045c   7611     clrr    0x11             	CLRR	r0x1026
00045d   3c0f     movai   0xf              	MOVAI	0x0f
00045e   7a10     andra   0x10             	ANDRA	r0x1025
00045f   7611     clrr    0x11             	CLRR	r0x1026
                                           ;;114	MOVAR	r0x1025
000460   3c00     movai   0                	MOVAI	0x00
000461   5615     movra   0x15             	MOVRA	r0x102A
                                           ;;113	MOVAR	r0x1029
000462   5810     movar   0x10             	MOVAR	r0x1025
000463   5614     movra   0x14             	MOVRA	r0x1029
000464   5c12     orar    0x12             	ORAR	r0x1028
000465   5610     movra   0x10             	MOVRA	r0x1025
000466   5815     movar   0x15             	MOVAR	r0x102A
000467   5c13     orar    0x13             	ORAR	r0x1027
000468   5611     movra   0x11             	MOVRA	r0x1026
                                           ;;unsigned compare: left < lit(0x2=2), size=1
                                           ;	.line	281; "MC32F7361.c"	if (i < 2)
000469   3c02     movai   0x2              	MOVAI	0x02
00046a   480f     rsubar  0xf              	RSUBAR	r0x1024
00046b   e187     jbset   0x187, 0         	JBSET	PFLAG,0
00046c   a497     goto    0x497            	GOTO	_00182_DS_
                                           ;;genSkipc:3291: created from rifx:013B5EFC
                                           ;	.line	283; "MC32F7361.c"	if (g_temp_value > g_adcmax)
00046d   5811     movar   0x11             	MOVAR	r0x1026
00046e   480c     rsubar  0xc              	RSUBAR	r0x1021
00046f   e587     jbset   0x187, 0x2       	JBSET	PFLAG,2
000470   a473     goto    0x473            	GOTO	_00224_DS_
000471   5810     movar   0x10             	MOVAR	r0x1025
000472   480b     rsubar  0xb              	RSUBAR	r0x1020
                                           _00224_DS_
000473   f187     jbclr   0x187, 0         	JBCLR	PFLAG,0
000474   a479     goto    0x479            	GOTO	_00179_DS_
                                           ;;genSkipc:3291: created from rifx:013B5EFC
                                           ;	.line	284; "MC32F7361.c"	g_adcmax = g_temp_value; // 
000475   5810     movar   0x10             	MOVAR	r0x1025
000476   560b     movra   0xb              	MOVRA	r0x1020
000477   5811     movar   0x11             	MOVAR	r0x1026
000478   560c     movra   0xc              	MOVRA	r0x1021
                                           _00179_DS_
                                           ;	.line	285; "MC32F7361.c"	if (g_temp_value < g_adcmin)
000479   580e     movar   0xe              	MOVAR	r0x1023
00047a   4811     rsubar  0x11             	RSUBAR	r0x1026
00047b   e587     jbset   0x187, 0x2       	JBSET	PFLAG,2
00047c   a47f     goto    0x47f            	GOTO	_00225_DS_
00047d   580d     movar   0xd              	MOVAR	r0x1022
00047e   4810     rsubar  0x10             	RSUBAR	r0x1025
                                           _00225_DS_
00047f   f187     jbclr   0x187, 0         	JBCLR	PFLAG,0
000480   a485     goto    0x485            	GOTO	_00181_DS_
                                           ;;genSkipc:3291: created from rifx:013B5EFC
                                           ;	.line	286; "MC32F7361.c"	g_adcmin = g_temp_value; // 
000481   5810     movar   0x10             	MOVAR	r0x1025
000482   560d     movra   0xd              	MOVRA	r0x1022
000483   5811     movar   0x11             	MOVAR	r0x1026
000484   560e     movra   0xe              	MOVRA	r0x1023
                                           ;;110	MOVAR	r0x1025
                                           ;;112	MOVAR	r0x1026
                                           _00181_DS_
                                           ;	.line	287; "MC32F7361.c"	g_tmpbuff += g_temp_value;
000485   7614     clrr    0x14             	CLRR	r0x1029
000486   7615     clrr    0x15             	CLRR	r0x102A
                                           ;;109	MOVAR	r0x1028
000487   5810     movar   0x10             	MOVAR	r0x1025
000488   5612     movra   0x12             	MOVRA	r0x1028
000489   7e08     addra   0x8              	ADDRA	r0x101C
                                           ;;111	MOVAR	r0x1027
00048a   5811     movar   0x11             	MOVAR	r0x1026
00048b   5613     movra   0x13             	MOVRA	r0x1027
00048c   f187     jbclr   0x187, 0         	JBCLR	PFLAG,0
00048d   6013     jzar    0x13             	JZAR	r0x1027
00048e   7e07     addra   0x7              	ADDRA	r0x101D
00048f   5814     movar   0x14             	MOVAR	r0x1029
000490   f187     jbclr   0x187, 0         	JBCLR	PFLAG,0
000491   6014     jzar    0x14             	JZAR	r0x1029
000492   7e09     addra   0x9              	ADDRA	r0x101E
000493   5815     movar   0x15             	MOVAR	r0x102A
000494   f187     jbclr   0x187, 0         	JBCLR	PFLAG,0
000495   6015     jzar    0x15             	JZAR	r0x102A
000496   7e0a     addra   0xa              	ADDRA	r0x101F
                                           _00182_DS_
                                           ;	.line	274; "MC32F7361.c"	for (i = 0; i < 20; i++)
000497   660f     incr    0xf              	INCR	r0x1024
                                           ;;unsigned compare: left < lit(0x14=20), size=1
000498   3c14     movai   0x14             	MOVAI	0x14
000499   480f     rsubar  0xf              	RSUBAR	r0x1024
00049a   e187     jbset   0x187, 0         	JBSET	PFLAG,0
00049b   a44c     goto    0x44c            	GOTO	_00184_DS_
                                           ;;genSkipc:3291: created from rifx:013B5EFC
                                           ;;108	MOVAR	r0x1020
                                           ;	.line	289; "MC32F7361.c"	g_tmpbuff -= g_adcmax;           // 
00049c   580c     movar   0xc              	MOVAR	r0x1021
00049d   5610     movra   0x10             	MOVRA	r0x1025
00049e   7611     clrr    0x11             	CLRR	r0x1026
00049f   7612     clrr    0x12             	CLRR	r0x1028
                                           ;;107	MOVAR	r0x1024
0004a0   580b     movar   0xb              	MOVAR	r0x1020
0004a1   560f     movra   0xf              	MOVRA	r0x1024
0004a2   4808     rsubar  0x8              	RSUBAR	r0x101C
0004a3   560b     movra   0xb              	MOVRA	r0x1020
0004a4   5807     movar   0x7              	MOVAR	r0x101D
0004a5   560c     movra   0xc              	MOVRA	r0x1021
0004a6   5810     movar   0x10             	MOVAR	r0x1025
0004a7   e187     jbset   0x187, 0         	JBSET	PFLAG,0
0004a8   6010     jzar    0x10             	JZAR	r0x1025
0004a9   4a0c     rsubra  0xc              	RSUBRA	r0x1021
0004aa   5809     movar   0x9              	MOVAR	r0x101E
0004ab   5613     movra   0x13             	MOVRA	r0x1027
0004ac   5811     movar   0x11             	MOVAR	r0x1026
0004ad   e187     jbset   0x187, 0         	JBSET	PFLAG,0
0004ae   6011     jzar    0x11             	JZAR	r0x1026
0004af   4a13     rsubra  0x13             	RSUBRA	r0x1027
0004b0   5812     movar   0x12             	MOVAR	r0x1028
0004b1   e187     jbset   0x187, 0         	JBSET	PFLAG,0
0004b2   6412     incar   0x12             	INCAR	r0x1028
0004b3   480a     rsubar  0xa              	RSUBAR	r0x101F
0004b4   5614     movra   0x14             	MOVRA	r0x1029
                                           ;;100	MOVAR	r0x1022
                                           ;;102	MOVAR	r0x1023
                                           ;	.line	290; "MC32F7361.c"	g_tmpbuff -= g_adcmin;           // 
0004b5   7609     clrr    0x9              	CLRR	r0x101E
0004b6   760a     clrr    0xa              	CLRR	r0x101F
                                           ;;99	MOVAR	r0x101C
0004b7   580d     movar   0xd              	MOVAR	r0x1022
0004b8   5608     movra   0x8              	MOVRA	r0x101C
0004b9   4a0b     rsubra  0xb              	RSUBRA	r0x1020
                                           ;;101	MOVAR	r0x101D
0004ba   580e     movar   0xe              	MOVAR	r0x1023
0004bb   5607     movra   0x7              	MOVRA	r0x101D
0004bc   e187     jbset   0x187, 0         	JBSET	PFLAG,0
0004bd   6007     jzar    0x7              	JZAR	r0x101D
0004be   4a0c     rsubra  0xc              	RSUBRA	r0x1021
0004bf   5809     movar   0x9              	MOVAR	r0x101E
0004c0   e187     jbset   0x187, 0         	JBSET	PFLAG,0
0004c1   6009     jzar    0x9              	JZAR	r0x101E
0004c2   4a13     rsubra  0x13             	RSUBRA	r0x1027
0004c3   580a     movar   0xa              	MOVAR	r0x101F
0004c4   e187     jbset   0x187, 0         	JBSET	PFLAG,0
0004c5   600a     jzar    0xa              	JZAR	r0x101F
0004c6   4a14     rsubra  0x14             	RSUBRA	r0x1029
                                           ;	.line	291; "MC32F7361.c"	g_temp_value = (g_tmpbuff >> 4); // 16
0004c7   440b     swapar  0xb              	SWAPAR	r0x1020
0004c8   3e0f     andai   0xf              	ANDAI	0x0f
0004c9   5608     movra   0x8              	MOVRA	r0x101C
0004ca   440c     swapar  0xc              	SWAPAR	r0x1021
0004cb   5607     movra   0x7              	MOVRA	r0x101D
0004cc   3ef0     andai   0xf0             	ANDAI	0xf0
0004cd   5e08     orra    0x8              	ORRA	r0x101C
0004ce   4207     xorra   0x7              	XORRA	r0x101D
0004cf   4413     swapar  0x13             	SWAPAR	r0x1027
0004d0   5609     movra   0x9              	MOVRA	r0x101E
0004d1   3ef0     andai   0xf0             	ANDAI	0xf0
0004d2   5e07     orra    0x7              	ORRA	r0x101D
0004d3   4209     xorra   0x9              	XORRA	r0x101E
0004d4   4414     swapar  0x14             	SWAPAR	r0x1029
0004d5   560a     movra   0xa              	MOVRA	r0x101F
0004d6   3ef0     andai   0xf0             	ANDAI	0xf0
0004d7   5e09     orra    0x9              	ORRA	r0x101E
0004d8   420a     xorra   0xa              	XORRA	r0x101F
                                           ;;104	MOVAR	r0x101C
                                           ;;106	MOVAR	r0x101D
                                           ;;103	MOVAR	r0x1020
                                           ;	.line	293; "MC32F7361.c"	return g_temp_value;
0004d9   5808     movar   0x8              	MOVAR	r0x101C
0004da   560b     movra   0xb              	MOVRA	r0x1020
0004db   5606     movra   0x6              	MOVRA	STK00
                                           ;;105	MOVAR	r0x1021
0004dc   5807     movar   0x7              	MOVAR	r0x101D
0004dd   560c     movra   0xc              	MOVRA	r0x1021
                                           ;	.line	294; "MC32F7361.c"	}
0004de   000c     return                   	RETURN	
                                           ; exit point of _adc_get_val
                                           
                                           ;***
                                           ;  pBlock Stats: dbName = C
                                           ;***
                                           ;entry:  _adc_sel_channel	;Function start
                                           ; 2 exit points
                                           ;has an exit
                                           ;functions called:
                                           ;   _delay_ms
                                           ;   _delay_ms
                                           ;2 compiler assigned registers:
                                           ;   r0x1022
                                           ;   STK00
                                           ;; Starting pCode block
                                           _adc_sel_channel	;Function start
                                           ; 2 exit points
                                           ;	.line	205; "MC32F7361.c"	void adc_sel_channel(u8 adc_channel)
0004df   560d     movra   0xd              	MOVRA	r0x1022
                                           ;	.line	209; "MC32F7361.c"	if (last_adc_channel == adc_channel)
0004e0   580d     movar   0xd              	MOVAR	r0x1022
0004e1   4029     xorar   0x29             	XORAR	_adc_sel_channel_last_adc_channel_65536_22
0004e2   e587     jbset   0x187, 0x2       	JBSET	PFLAG,2
0004e3   a4e5     goto    0x4e5            	GOTO	_00148_DS_
                                           ;	.line	211; "MC32F7361.c"	return;
0004e4   a503     goto    0x503            	GOTO	_00153_DS_
                                           _00148_DS_
                                           ;	.line	214; "MC32F7361.c"	last_adc_channel = adc_channel;
0004e5   580d     movar   0xd              	MOVAR	r0x1022
0004e6   5629     movra   0x29             	MOVRA	_adc_sel_channel_last_adc_channel_65536_22
                                           ;	.line	216; "MC32F7361.c"	switch (adc_channel)
0004e7   580d     movar   0xd              	MOVAR	r0x1022
0004e8   3901     xorai   0x1              	XORAI	0x01
0004e9   e587     jbset   0x187, 0x2       	JBSET	PFLAG,2
0004ea   a4ec     goto    0x4ec            	GOTO	_00167_DS_
0004eb   a4f2     goto    0x4f2            	GOTO	_00149_DS_
                                           _00167_DS_
0004ec   580d     movar   0xd              	MOVAR	r0x1022
0004ed   3902     xorai   0x2              	XORAI	0x02
0004ee   e587     jbset   0x187, 0x2       	JBSET	PFLAG,2
0004ef   a4f1     goto    0x4f1            	GOTO	_00168_DS_
0004f0   a4f9     goto    0x4f9            	GOTO	_00150_DS_
                                           _00168_DS_
0004f1   a4ff     goto    0x4ff            	GOTO	_00152_DS_
                                           _00149_DS_
                                           ;	.line	232; "MC32F7361.c"	ADCHS3 = 1;
0004f2   cfb0     bset    0x1b0, 0x7       	BSET	_ADCR0bits,7
                                           ;	.line	233; "MC32F7361.c"	ADCHS2 = 0;
0004f3   ddb0     bclr    0x1b0, 0x6       	BCLR	_ADCR0bits,6
                                           ;	.line	234; "MC32F7361.c"	ADCHS1 = 1;
0004f4   cbb0     bset    0x1b0, 0x5       	BSET	_ADCR0bits,5
                                           ;	.line	235; "MC32F7361.c"	ADCHS0 = 0;
0004f5   d9b0     bclr    0x1b0, 0x4       	BCLR	_ADCR0bits,4
                                           ;	.line	237; "MC32F7361.c"	ADCR1 = 0x80; // adc FHIRC/322.0V
0004f6   3c80     movai   0x80             	MOVAI	0x80
0004f7   57b1     movra   0x1b1            	MOVRA	_ADCR1
                                           ;	.line	238; "MC32F7361.c"	break;
0004f8   a4ff     goto    0x4ff            	GOTO	_00152_DS_
                                           _00150_DS_
                                           ;	.line	249; "MC32F7361.c"	ADCHS3 = 1;
0004f9   cfb0     bset    0x1b0, 0x7       	BSET	_ADCR0bits,7
                                           ;	.line	250; "MC32F7361.c"	ADCHS2 = 0;
0004fa   ddb0     bclr    0x1b0, 0x6       	BCLR	_ADCR0bits,6
                                           ;	.line	251; "MC32F7361.c"	ADCHS1 = 0;
0004fb   dbb0     bclr    0x1b0, 0x5       	BCLR	_ADCR0bits,5
                                           ;	.line	252; "MC32F7361.c"	ADCHS0 = 1;
0004fc   c9b0     bset    0x1b0, 0x4       	BSET	_ADCR0bits,4
                                           ;	.line	254; "MC32F7361.c"	ADCR1 = 0x83; // adc FHIRC/32VDD
0004fd   3c83     movai   0x83             	MOVAI	0x83
0004fe   57b1     movra   0x1b1            	MOVRA	_ADCR1
                                           _00152_DS_
                                           ;	.line	261; "MC32F7361.c"	delay_ms(1); // adc
0004ff   3c01     movai   0x1              	MOVAI	0x01
000500   5606     movra   0x6              	MOVRA	STK00
000501   3c00     movai   0                	MOVAI	0x00
000502   855e     call    0x55e            	CALL	_delay_ms
                                           _00153_DS_
                                           ;	.line	262; "MC32F7361.c"	}
000503   000c     return                   	RETURN	
                                           ; exit point of _adc_sel_channel
                                           
                                           ;***
                                           ;  pBlock Stats: dbName = C
                                           ;***
                                           ;entry:  _timer3_config	;Function start
                                           ; 2 exit points
                                           ;has an exit
                                           ;; Starting pCode block
                                           _timer3_config	;Function start
                                           ; 2 exit points
                                           ;	.line	200; "MC32F7361.c"	T3LOAD = 135 - 1; // FCPU 641ms
000504   3c86     movai   0x86             	MOVAI	0x86
000505   57a6     movra   0x1a6            	MOVRA	_T3LOAD
                                           ;	.line	201; "MC32F7361.c"	T3CR = 0x86;      // FCPU64
000506   3c86     movai   0x86             	MOVAI	0x86
000507   57a4     movra   0x1a4            	MOVRA	_T3CR
                                           ;	.line	202; "MC32F7361.c"	T3IE = 1;
000508   cf8a     bset    0x18a, 0x7       	BSET	_INTEbits,7
                                           ;	.line	203; "MC32F7361.c"	}
000509   000c     return                   	RETURN	
                                           ; exit point of _timer3_config
                                           
                                           ;***
                                           ;  pBlock Stats: dbName = C
                                           ;***
                                           ;entry:  _set_timer0_pwm_when_charging	;Function start
                                           ; 2 exit points
                                           ;has an exit
                                           ;functions called:
                                           ;   _delay_ms
                                           ;   _delay_ms
                                           ;1 compiler assigned register :
                                           ;   STK00
                                           ;; Starting pCode block
                                           _set_timer0_pwm_when_charging	;Function start
                                           ; 2 exit points
                                           ;	.line	171; "MC32F7361.c"	T0EN = 0;   // 
00050a   df98     bclr    0x198, 0x7       	BCLR	_T0CRbits,7
                                           ;	.line	172; "MC32F7361.c"	PWM0EC = 0; // PWM0
00050b   dd98     bclr    0x198, 0x6       	BCLR	_T0CRbits,6
                                           ;	.line	179; "MC32F7361.c"	T0CR = 0x49; // PWM,FTMR,2 (0.03125us)
00050c   3c49     movai   0x49             	MOVAI	0x49
00050d   5798     movra   0x198            	MOVRA	_T0CR
                                           ;	.line	184; "MC32F7361.c"	T0LOAD = 97; //  326K
00050e   3c61     movai   0x61             	MOVAI	0x61
00050f   579a     movra   0x19a            	MOVRA	_T0LOAD
                                           ;	.line	185; "MC32F7361.c"	T0DATA = 19;
000510   3c13     movai   0x13             	MOVAI	0x13
000511   579b     movra   0x19b            	MOVRA	_T0DATA
                                           ;	.line	192; "MC32F7361.c"	T0EN = 1;   // 
000512   cf98     bset    0x198, 0x7       	BSET	_T0CRbits,7
                                           ;	.line	193; "MC32F7361.c"	PWM0EC = 1; // PWM0
000513   cd98     bset    0x198, 0x6       	BSET	_T0CRbits,6
                                           ;	.line	194; "MC32F7361.c"	delay_ms(1);
000514   3c01     movai   0x1              	MOVAI	0x01
000515   5606     movra   0x6              	MOVRA	STK00
000516   3c00     movai   0                	MOVAI	0x00
000517   855e     call    0x55e            	CALL	_delay_ms
                                           ;	.line	195; "MC32F7361.c"	}
000518   000c     return                   	RETURN	
                                           ; exit point of _set_timer0_pwm_when_charging
                                           
                                           ;***
                                           ;  pBlock Stats: dbName = C
                                           ;***
                                           ;entry:  _set_timer0_pwm_when_detecting	;Function start
                                           ; 2 exit points
                                           ;has an exit
                                           ;functions called:
                                           ;   _delay_ms
                                           ;   _delay_ms
                                           ;1 compiler assigned register :
                                           ;   STK00
                                           ;; Starting pCode block
                                           _set_timer0_pwm_when_detecting	;Function start
                                           ; 2 exit points
                                           ;	.line	158; "MC32F7361.c"	T0EN = 0;     // 
000519   df98     bclr    0x198, 0x7       	BCLR	_T0CRbits,7
                                           ;	.line	159; "MC32F7361.c"	PWM0EC = 0;   // PWM0
00051a   dd98     bclr    0x198, 0x6       	BCLR	_T0CRbits,6
                                           ;	.line	160; "MC32F7361.c"	T0CR = 0x49;  // PWM,FTMR,2 (0.03125us)
00051b   3c49     movai   0x49             	MOVAI	0x49
00051c   5798     movra   0x198            	MOVRA	_T0CR
                                           ;	.line	161; "MC32F7361.c"	T0LOAD = 114; // 282KHz
00051d   3c72     movai   0x72             	MOVAI	0x72
00051e   579a     movra   0x19a            	MOVRA	_T0LOAD
                                           ;	.line	163; "MC32F7361.c"	T0DATA = 35;
00051f   3c23     movai   0x23             	MOVAI	0x23
000520   579b     movra   0x19b            	MOVRA	_T0DATA
                                           ;	.line	164; "MC32F7361.c"	T0EN = 1;   // 
000521   cf98     bset    0x198, 0x7       	BSET	_T0CRbits,7
                                           ;	.line	165; "MC32F7361.c"	PWM0EC = 1; // PWM0
000522   cd98     bset    0x198, 0x6       	BSET	_T0CRbits,6
                                           ;	.line	166; "MC32F7361.c"	delay_ms(1);
000523   3c01     movai   0x1              	MOVAI	0x01
000524   5606     movra   0x6              	MOVRA	STK00
000525   3c00     movai   0                	MOVAI	0x00
000526   855e     call    0x55e            	CALL	_delay_ms
                                           ;	.line	167; "MC32F7361.c"	}
000527   000c     return                   	RETURN	
                                           ; exit point of _set_timer0_pwm_when_detecting
                                           
                                           ;***
                                           ;  pBlock Stats: dbName = C
                                           ;***
                                           ;entry:  _timer0_pwm_config	;Function start
                                           ; 2 exit points
                                           ;has an exit
                                           ;; Starting pCode block
                                           _timer0_pwm_config	;Function start
                                           ; 2 exit points
                                           ;	.line	102; "MC32F7361.c"	T0CR = 0x49;  // PWM,FTMR,2 (0.03125us)
000528   3c49     movai   0x49             	MOVAI	0x49
000529   5798     movra   0x198            	MOVRA	_T0CR
                                           ;	.line	103; "MC32F7361.c"	T0LOAD = 118; // 271KHz
00052a   3c76     movai   0x76             	MOVAI	0x76
00052b   579a     movra   0x19a            	MOVRA	_T0LOAD
                                           ;	.line	111; "MC32F7361.c"	T0DATA = 41;
00052c   3c29     movai   0x29             	MOVAI	0x29
00052d   579b     movra   0x19b            	MOVRA	_T0DATA
                                           ;	.line	147; "MC32F7361.c"	PWMCR0 = 0x00; // 
00052e   77ac     clrr    0x1ac            	CLRR	_PWMCR0
                                           ;	.line	148; "MC32F7361.c"	PWMCR1 = 0x18; // FHOSC  2  
00052f   3c18     movai   0x18             	MOVAI	0x18
000530   57ad     movra   0x1ad            	MOVRA	_PWMCR1
                                           ;	.line	152; "MC32F7361.c"	T0EN = 0;   // 
000531   df98     bclr    0x198, 0x7       	BCLR	_T0CRbits,7
                                           ;	.line	153; "MC32F7361.c"	PWM0EC = 0; // PWM0
000532   dd98     bclr    0x198, 0x6       	BCLR	_T0CRbits,6
                                           ;	.line	154; "MC32F7361.c"	}
000533   000c     return                   	RETURN	
                                           ; exit point of _timer0_pwm_config
                                           
                                           ;***
                                           ;  pBlock Stats: dbName = C
                                           ;***
                                           ;entry:  _adc_config	;Function start
                                           ; 2 exit points
                                           ;has an exit
                                           ;; Starting pCode block
                                           _adc_config	;Function start
                                           ; 2 exit points
                                           ;	.line	76; "MC32F7361.c"	P15OE = 0; // 
000534   db95     bclr    0x195, 0x5       	BCLR	_OEP1bits,5
                                           ;	.line	77; "MC32F7361.c"	P15DC = 1; // 
000535   cbb7     bset    0x1b7, 0x5       	BSET	_P1ADCRbits,5
                                           ;	.line	80; "MC32F7361.c"	ADCR0 = 0x0B; // 12adc
000536   3c0b     movai   0xb              	MOVAI	0x0b
000537   57b0     movra   0x1b0            	MOVRA	_ADCR0
                                           ;	.line	81; "MC32F7361.c"	ADCR1 = 0x80; // adc FHIRC/322.0V
000538   3c80     movai   0x80             	MOVAI	0x80
000539   57b1     movra   0x1b1            	MOVRA	_ADCR1
                                           ;	.line	82; "MC32F7361.c"	ADCR2 = 0x0F; // 15  ADCLK
00053a   3c0f     movai   0xf              	MOVAI	0x0f
00053b   57b2     movra   0x1b2            	MOVRA	_ADCR2
                                           ;	.line	83; "MC32F7361.c"	}
00053c   000c     return                   	RETURN	
                                           ; exit point of _adc_config
                                           
                                           ;***
                                           ;  pBlock Stats: dbName = C
                                           ;***
                                           ;entry:  _IO_Init	;Function start
                                           ; 2 exit points
                                           ;has an exit
                                           ;; Starting pCode block
                                           _IO_Init	;Function start
                                           ; 2 exit points
                                           ;	.line	37; "MC32F7361.c"	IOP0 = 0x00;   // io
00053d   7790     clrr    0x190            	CLRR	_IOP0
                                           ;	.line	38; "MC32F7361.c"	OEP0 = 0x3F;   // io 1:out  0:in
00053e   3c3f     movai   0x3f             	MOVAI	0x3f
00053f   5791     movra   0x191            	MOVRA	_OEP0
                                           ;	.line	39; "MC32F7361.c"	PUP0 = 0x00;   // io   1:enable  0:disable
000540   7792     clrr    0x192            	CLRR	_PUP0
                                           ;	.line	40; "MC32F7361.c"	PDP0 = 0x00;   // io   1:enable  0:disable
000541   7793     clrr    0x193            	CLRR	_PDP0
                                           ;	.line	41; "MC32F7361.c"	P0ADCR = 0x00; // io  1:  0:io
000542   77b6     clrr    0x1b6            	CLRR	_P0ADCR
                                           ;	.line	43; "MC32F7361.c"	IOP1 = 0x00;   // io
000543   7794     clrr    0x194            	CLRR	_IOP1
                                           ;	.line	44; "MC32F7361.c"	OEP1 = 0xFF;   // io 1:out  0:in
000544   3cff     movai   0xff             	MOVAI	0xff
000545   5795     movra   0x195            	MOVRA	_OEP1
                                           ;	.line	45; "MC32F7361.c"	PUP1 = 0x00;   // io   1:enable  0:disable
000546   7796     clrr    0x196            	CLRR	_PUP1
                                           ;	.line	46; "MC32F7361.c"	PDP1 = 0x00;   // io   1:enable  0:disable
000547   7797     clrr    0x197            	CLRR	_PDP1
                                           ;	.line	47; "MC32F7361.c"	P1ADCR = 0x00; // io  1:  0:io
000548   77b7     clrr    0x1b7            	CLRR	_P1ADCR
                                           ;	.line	49; "MC32F7361.c"	IOP2 = 0x00; // io
000549   77b8     clrr    0x1b8            	CLRR	_IOP2
                                           ;	.line	50; "MC32F7361.c"	OEP2 = 0x0F; // io 1:out  0:in
00054a   3c0f     movai   0xf              	MOVAI	0x0f
00054b   57b9     movra   0x1b9            	MOVRA	_OEP2
                                           ;	.line	51; "MC32F7361.c"	PUP2 = 0x00; // io   1:enable  0:disable
00054c   77ba     clrr    0x1ba            	CLRR	_PUP2
                                           ;	.line	52; "MC32F7361.c"	PDP2 = 0x00; // io   1:enable  0:disablea
00054d   77bb     clrr    0x1bb            	CLRR	_PDP2
                                           ;	.line	54; "MC32F7361.c"	PMOD = 0x00;  // P00P01P13 io
00054e   77bc     clrr    0x1bc            	CLRR	_PMOD
                                           ;	.line	55; "MC32F7361.c"	DRVCR = 0x80; // 
00054f   3c80     movai   0x80             	MOVAI	0x80
000550   578c     movra   0x18c            	MOVRA	_DRVCR
                                           ;	.line	56; "MC32F7361.c"	}
000551   000c     return                   	RETURN	
                                           ; exit point of _IO_Init
                                           
                                           ;***
                                           ;  pBlock Stats: dbName = C
                                           ;***
                                           ;entry:  _CLR_RAM	;Function start
                                           ; 2 exit points
                                           ;has an exit
                                           ;; Starting pCode block
                                           _CLR_RAM	;Function start
                                           ; 2 exit points
                                           ;	.line	22; "MC32F7361.c"	for (FSR0 = 0; FSR0 < 0xff; FSR0++)
000552   7784     clrr    0x184            	CLRR	_FSR0
                                           ;;unsigned compare: left < lit(0xFF=255), size=1
                                           _00118_DS_
000553   3cff     movai   0xff             	MOVAI	0xff
000554   4984     rsubar  0x184            	RSUBAR	_FSR0
000555   f187     jbclr   0x187, 0         	JBCLR	PFLAG,0
000556   a55a     goto    0x55a            	GOTO	_00116_DS_
                                           ;;genSkipc:3291: created from rifx:013B5EFC
                                           ;	.line	24; "MC32F7361.c"	INDF0 = 0x00;
000557   7780     clrr    0x180            	CLRR	_INDF0
                                           ;	.line	22; "MC32F7361.c"	for (FSR0 = 0; FSR0 < 0xff; FSR0++)
000558   6784     incr    0x184            	INCR	_FSR0
000559   a553     goto    0x553            	GOTO	_00118_DS_
                                           _00116_DS_
                                           ;	.line	26; "MC32F7361.c"	FSR0 = 0xFF;
00055a   3cff     movai   0xff             	MOVAI	0xff
00055b   5784     movra   0x184            	MOVRA	_FSR0
                                           ;	.line	27; "MC32F7361.c"	INDF0 = 0x00;
00055c   7780     clrr    0x180            	CLRR	_INDF0
                                           ;	.line	28; "MC32F7361.c"	}
00055d   000c     return                   	RETURN	
                                           ; exit point of _CLR_RAM
                                           
                                           ;***
                                           ;  pBlock Stats: dbName = C
                                           ;***
                                           ;entry:  _delay_ms	;Function start
                                           ; 2 exit points
                                           ;has an exit
                                           ;7 compiler assigned registers:
                                           ;   r0x101C
                                           ;   STK00
                                           ;   r0x101D
                                           ;   r0x101E
                                           ;   r0x101F
                                           ;   r0x1020
                                           ;   r0x1021
                                           ;; Starting pCode block
                                           _delay_ms	;Function start
                                           ; 2 exit points
                                           ;	.line	221; "user.h"	void delay_ms(u16 xms)
00055e   5608     movra   0x8              	MOVRA	r0x101C
00055f   5806     movar   0x6              	MOVAR	STK00
000560   5607     movra   0x7              	MOVRA	r0x101D
                                           _00108_DS_
                                           ;	.line	223; "user.h"	while (xms)
000561   5807     movar   0x7              	MOVAR	r0x101D
000562   5c08     orar    0x8              	ORAR	r0x101C
000563   f587     jbclr   0x187, 0x2       	JBCLR	PFLAG,2
000564   a57d     goto    0x57d            	GOTO	_00111_DS_
                                           ;	.line	226; "user.h"	while (i--)
000565   3c3c     movai   0x3c             	MOVAI	0x3c
000566   5609     movra   0x9              	MOVRA	r0x101E
000567   3c02     movai   0x2              	MOVAI	0x02
000568   560a     movra   0xa              	MOVRA	r0x101F
                                           _00105_DS_
000569   5809     movar   0x9              	MOVAR	r0x101E
00056a   560b     movra   0xb              	MOVRA	r0x1020
00056b   580a     movar   0xa              	MOVAR	r0x101F
00056c   560c     movra   0xc              	MOVRA	r0x1021
00056d   3cff     movai   0xff             	MOVAI	0xff
00056e   7e09     addra   0x9              	ADDRA	r0x101E
00056f   e187     jbset   0x187, 0         	JBSET	PFLAG,0
000570   6e0a     decr    0xa              	DECR	r0x101F
000571   580b     movar   0xb              	MOVAR	r0x1020
000572   5c0c     orar    0xc              	ORAR	r0x1021
000573   f587     jbclr   0x187, 0x2       	JBCLR	PFLAG,2
000574   a577     goto    0x577            	GOTO	_00107_DS_
                                           ;	.line	228; "user.h"	Nop();
000575   0000     nop                      	nop	
000576   a569     goto    0x569            	GOTO	_00105_DS_
                                           _00107_DS_
                                           ;	.line	230; "user.h"	xms--; //  --while()
000577   3cff     movai   0xff             	MOVAI	0xff
000578   7e07     addra   0x7              	ADDRA	r0x101D
000579   e187     jbset   0x187, 0         	JBSET	PFLAG,0
00057a   6e08     decr    0x8              	DECR	r0x101C
                                           ;	.line	234; "user.h"	__endasm;
                                           	;
00057b   000e     clrwdt                   	clrwdt;
                                           	
00057c   a561     goto    0x561            	GOTO	_00108_DS_
                                           _00111_DS_
                                           ;	.line	236; "user.h"	}
00057d   000c     return                   	RETURN	
                                           ; exit point of _delay_ms
                                           
                                           
                                           ;	code size estimation:
                                           ;	 1383+    0 =  1383 instructions ( 2766 byte)
                                           
                                           	end
                                           ;--------------------------------------------------------
                                           ; File Created by SN-SDCC : SinoMCU ANSI-C Compiler
                                           ; Version 2.0.0 (Dec 11 2019) (MINGW32)
                                           ; This file was generated Wed Mar 19 18:45:52 2025
                                           ;--------------------------------------------------------
                                           ; MC32 port for the RISC core
                                           ;--------------------------------------------------------
                                           ;	.file	"MC32F7361.c"
                                           	list	p=7361
                                           	radix dec
                                           	include "7361.inc"
                                           ;--------------------------------------------------------
                                           ; external declarations
                                           ;--------------------------------------------------------
                                           	extern	_INDF0bits
                                           	extern	_INDF1bits
                                           	extern	_INDF2bits
                                           	extern	_HIBYTEbits
                                           	extern	_FSR0bits
                                           	extern	_FSR1bits
                                           	extern	_PCLbits
                                           	extern	_PFLAGbits
                                           	extern	_MCRbits
                                           	extern	_INDF3bits
                                           	extern	_INTEbits
                                           	extern	_INTFbits
                                           	extern	_DRVCRbits
                                           	extern	_P0KBCRbits
                                           	extern	_P1KBCRbits
                                           	extern	_P2KBCRbits
                                           	extern	_IOP0bits
                                           	extern	_OEP0bits
                                           	extern	_PUP0bits
                                           	extern	_PDP0bits
                                           	extern	_IOP1bits
                                           	extern	_OEP1bits
                                           	extern	_PUP1bits
                                           	extern	_PDP1bits
                                           	extern	_T0CRbits
                                           	extern	_T0CNTbits
                                           	extern	_T0LOADbits
                                           	extern	_T0DATAbits
                                           	extern	_T1CRbits
                                           	extern	_T1CNTbits
                                           	extern	_T1LOADbits
                                           	extern	_T1DATAbits
                                           	extern	_T2CRbits
                                           	extern	_T2CNTbits
                                           	extern	_T2LOADbits
                                           	extern	_T2DATAbits
                                           	extern	_T3CRbits
                                           	extern	_T3CNTbits
                                           	extern	_T3LOADbits
                                           	extern	_PWM0DRbits
                                           	extern	_PWM1DRbits
                                           	extern	_PWM2DRbits
                                           	extern	_PWMCR0bits
                                           	extern	_PWMCR1bits
                                           	extern	_OSCMRbits
                                           	extern	_LVDCRbits
                                           	extern	_ADCR0bits
                                           	extern	_ADCR1bits
                                           	extern	_ADCR2bits
                                           	extern	_OSADJCRbits
                                           	extern	_ADRHbits
                                           	extern	_ADRLbits
                                           	extern	_P0ADCRbits
                                           	extern	_P1ADCRbits
                                           	extern	_IOP2bits
                                           	extern	_OEP2bits
                                           	extern	_PUP2bits
                                           	extern	_PDP2bits
                                           	extern	_PMODbits
                                           	extern	_PWMCR3bits
                                           	extern	_PWMCR2bits
                                           	extern	_PFRCCRbits
                                           	extern	_PFRCCALbits
                                           	extern	_EECRbits
                                           	extern	_EEPRbits
                                           	extern	_EEARbits
                                           	extern	_EEDRHbits
                                           	extern	_EEDRLbits
                                           	extern	_DBGCRbits
                                           	extern	_DBGPRbits
                                           	extern	_HIRCCALbits
                                           	extern	_INDF0
                                           	extern	_INDF1
                                           	extern	_INDF2
                                           	extern	_HIBYTE
                                           	extern	_FSR0
                                           	extern	_FSR1
                                           	extern	_PCL
                                           	extern	_PFLAG
                                           	extern	_MCR
                                           	extern	_INDF3
                                           	extern	_INTE
                                           	extern	_INTF
                                           	extern	_DRVCR
                                           	extern	_P0KBCR
                                           	extern	_P1KBCR
                                           	extern	_P2KBCR
                                           	extern	_IOP0
                                           	extern	_OEP0
                                           	extern	_PUP0
                                           	extern	_PDP0
                                           	extern	_IOP1
                                           	extern	_OEP1
                                           	extern	_PUP1
                                           	extern	_PDP1
                                           	extern	_T0CR
                                           	extern	_T0CNT
                                           	extern	_T0LOAD
                                           	extern	_T0DATA
                                           	extern	_T1CR
                                           	extern	_T1CNT
                                           	extern	_T1LOAD
                                           	extern	_T1DATA
                                           	extern	_T2CR
                                           	extern	_T2CNT
                                           	extern	_T2LOAD
                                           	extern	_T2DATA
                                           	extern	_T3CR
                                           	extern	_T3CNT
                                           	extern	_T3LOAD
                                           	extern	_PWM0DR
                                           	extern	_PWM1DR
                                           	extern	_PWM2DR
                                           	extern	_PWMCR0
                                           	extern	_PWMCR1
                                           	extern	_OSCMR
                                           	extern	_LVDCR
                                           	extern	_ADCR0
                                           	extern	_ADCR1
                                           	extern	_ADCR2
                                           	extern	_OSADJCR
                                           	extern	_ADRH
                                           	extern	_ADRL
                                           	extern	_P0ADCR
                                           	extern	_P1ADCR
                                           	extern	_IOP2
                                           	extern	_OEP2
                                           	extern	_PUP2
                                           	extern	_PDP2
                                           	extern	_PMOD
                                           	extern	_PWMCR3
                                           	extern	_PWMCR2
                                           	extern	_PFRCCR
                                           	extern	_PFRCCAL
                                           	extern	_EECR
                                           	extern	_EEPR
                                           	extern	_EEAR
                                           	extern	_EEDRH
                                           	extern	_EEDRL
                                           	extern	_DBGCR
                                           	extern	_DBGPR
                                           	extern	_HIRCCAL
                                           ;--------------------------------------------------------
                                           ; global declarations
                                           ;--------------------------------------------------------
                                           	global	_delay_ms
                                           	global	_CLR_RAM
                                           	global	_IO_Init
                                           	global	_adc_config
                                           	global	_timer0_pwm_config
                                           	global	_set_timer0_pwm_when_detecting
                                           	global	_set_timer0_pwm_when_charging
                                           	global	_timer3_config
                                           	global	_adc_sel_channel
                                           	global	_adc_get_val
                                           	global	_Sys_Init
                                           	global	_is_in_charging
                                           	global	_is_open_lid
                                           	global	_is_detect_load
                                           	global	_stop_charging_the_host
                                           	global	_low_power_scan_handle
                                           	global	_main
                                           	global	_int_isr
                                           	global	_cur_dev_status
                                           	global	_detect_load_cnt
                                           	global	_undetect_load_cnt
                                           	global	_abuf
                                           	global	_statusbuf
                                           	global	_i
                                           	global	_cnt
                                           	global	_ret_u8
                                           	global	_adc_val
                                           	global	_tmp_val
                                           	global	_flag1
                                           
                                           	global STK06
                                           	global STK05
                                           	global STK04
                                           	global STK03
                                           	global STK02
                                           	global STK01
                                           	global STK00
                                           
                                           sharebank udata_ovr 0x0000
                                           STK06	res 1
                                           STK05	res 1
                                           STK04	res 1
                                           STK03	res 1
                                           STK02	res 1
                                           STK01	res 1
                                           STK00	res 1
                                           
                                           ;--------------------------------------------------------
                                           ; global definitions
                                           ;--------------------------------------------------------
                                           UD_MC32F7361_0	udata
                                           _cur_dev_status	res	1
                                           
                                           UD_MC32F7361_1	udata
                                           _detect_load_cnt	res	4
                                           
                                           UD_MC32F7361_2	udata
                                           _undetect_load_cnt	res	4
                                           
                                           UD_MC32F7361_3	udata
                                           _abuf	res	1
                                           
                                           UD_MC32F7361_4	udata
                                           _statusbuf	res	1
                                           
                                           UD_MC32F7361_5	udata
                                           _i	res	1
                                           
                                           UD_MC32F7361_6	udata
                                           _cnt	res	1
                                           
                                           UD_MC32F7361_7	udata
                                           _ret_u8	res	1
                                           
                                           UD_MC32F7361_8	udata
                                           _adc_val	res	2
                                           
                                           UD_MC32F7361_9	udata
                                           _tmp_val	res	2
                                           
                                           UD_MC32F7361_10	udata
                                           _flag1	res	1
                                           
                                           ;--------------------------------------------------------
                                           ; absolute symbol definitions
                                           ;--------------------------------------------------------
                                           ;--------------------------------------------------------
                                           ; compiler-defined variables
                                           ;--------------------------------------------------------
                                           UDL_MC32F7361_0	udata
                                           r0x101D	res	1
                                           r0x101C	res	1
                                           r0x101E	res	1
                                           r0x101F	res	1
                                           r0x1020	res	1
                                           r0x1021	res	1
                                           r0x1022	res	1
                                           r0x1023	res	1
                                           r0x1024	res	1
                                           r0x1025	res	1
                                           r0x1026	res	1
                                           r0x1028	res	1
                                           r0x1027	res	1
                                           r0x1029	res	1
                                           r0x102A	res	1
                                           r0x102B	res	1
                                           r0x102C	res	1
                                           r0x102D	res	1
                                           r0x102E	res	1
                                           r0x102F	res	1
                                           r0x1033	res	1
                                           r0x1032	res	1
                                           r0x1031	res	1
                                           r0x1030	res	1
                                           r0x1034	res	1
                                           r0x1035	res	1
                                           r0x1036	res	1
                                           r0x1037	res	1
                                           r0x103B	res	1
                                           r0x103A	res	1
                                           r0x1039	res	1
                                           r0x1038	res	1
                                           r0x103C	res	1
                                           r0x103D	res	1
                                           _adc_sel_channel_last_adc_channel_65536_22	res	1
                                           _is_in_charging_last_status_65536_32	res	1
                                           _is_open_lid_last_status_65536_47	res	1
                                           _main___detect_ms_cnt_327680_106	res	2
                                           _main___lid_status_196608_128	res	1
                                           _main___flag_detect_load_status_196608_128	res	1
                                           _int_isr_detect_load_cnt_ms_196608_157	res	2
                                           _int_isr_blink_cnt_196608_161	res	2
                                           _int_isr_fully_charged_cnt_196608_161	res	2
                                           _int_isr_led_green_blink_cnt_196608_177	res	2
                                           ;--------------------------------------------------------
                                           ; initialized data
                                           ;--------------------------------------------------------
                                           
                                           ;@Allocation info for local variables in function 'delay_ms'
                                           ;@delay_ms delay_ms                  Allocated to registers ;size:2
                                           ;@delay_ms INDF0bits                 Allocated to registers ;size:1
                                           ;@delay_ms INDF1bits                 Allocated to registers ;size:1
                                           ;@delay_ms INDF2bits                 Allocated to registers ;size:1
                                           ;@delay_ms HIBYTEbits                Allocated to registers ;size:1
                                           ;@delay_ms FSR0bits                  Allocated to registers ;size:1
                                           ;@delay_ms FSR1bits                  Allocated to registers ;size:1
                                           ;@delay_ms PCLbits                   Allocated to registers ;size:1
                                           ;@delay_ms PFLAGbits                 Allocated to registers ;size:1
                                           ;@delay_ms MCRbits                   Allocated to registers ;size:1
                                           ;@delay_ms INDF3bits                 Allocated to registers ;size:1
                                           ;@delay_ms INTEbits                  Allocated to registers ;size:1
                                           ;@delay_ms INTFbits                  Allocated to registers ;size:1
                                           ;@delay_ms DRVCRbits                 Allocated to registers ;size:1
                                           ;@delay_ms P0KBCRbits                Allocated to registers ;size:1
                                           ;@delay_ms P1KBCRbits                Allocated to registers ;size:1
                                           ;@delay_ms P2KBCRbits                Allocated to registers ;size:1
                                           ;@delay_ms IOP0bits                  Allocated to registers ;size:1
                                           ;@delay_ms OEP0bits                  Allocated to registers ;size:1
                                           ;@delay_ms PUP0bits                  Allocated to registers ;size:1
                                           ;@delay_ms PDP0bits                  Allocated to registers ;size:1
                                           ;@delay_ms IOP1bits                  Allocated to registers ;size:1
                                           ;@delay_ms OEP1bits                  Allocated to registers ;size:1
                                           ;@delay_ms PUP1bits                  Allocated to registers ;size:1
                                           ;@delay_ms PDP1bits                  Allocated to registers ;size:1
                                           ;@delay_ms T0CRbits                  Allocated to registers ;size:1
                                           ;@delay_ms T0CNTbits                 Allocated to registers ;size:1
                                           ;@delay_ms T0LOADbits                Allocated to registers ;size:1
                                           ;@delay_ms T0DATAbits                Allocated to registers ;size:1
                                           ;@delay_ms T1CRbits                  Allocated to registers ;size:1
                                           ;@delay_ms T1CNTbits                 Allocated to registers ;size:1
                                           ;@delay_ms T1LOADbits                Allocated to registers ;size:1
                                           ;@delay_ms T1DATAbits                Allocated to registers ;size:1
                                           ;@delay_ms T2CRbits                  Allocated to registers ;size:1
                                           ;@delay_ms T2CNTbits                 Allocated to registers ;size:1
                                           ;@delay_ms T2LOADbits                Allocated to registers ;size:1
                                           ;@delay_ms T2DATAbits                Allocated to registers ;size:1
                                           ;@delay_ms T3CRbits                  Allocated to registers ;size:1
                                           ;@delay_ms T3CNTbits                 Allocated to registers ;size:1
                                           ;@delay_ms T3LOADbits                Allocated to registers ;size:1
                                           ;@delay_ms PWM0DRbits                Allocated to registers ;size:1
                                           ;@delay_ms PWM1DRbits                Allocated to registers ;size:1
                                           ;@delay_ms PWM2DRbits                Allocated to registers ;size:1
                                           ;@delay_ms PWMCR0bits                Allocated to registers ;size:1
                                           ;@delay_ms PWMCR1bits                Allocated to registers ;size:1
                                           ;@delay_ms OSCMRbits                 Allocated to registers ;size:1
                                           ;@delay_ms LVDCRbits                 Allocated to registers ;size:1
                                           ;@delay_ms ADCR0bits                 Allocated to registers ;size:1
                                           ;@delay_ms ADCR1bits                 Allocated to registers ;size:1
                                           ;@delay_ms ADCR2bits                 Allocated to registers ;size:1
                                           ;@delay_ms OSADJCRbits               Allocated to registers ;size:1
                                           ;@delay_ms ADRHbits                  Allocated to registers ;size:1
                                           ;@delay_ms ADRLbits                  Allocated to registers ;size:1
                                           ;@delay_ms P0ADCRbits                Allocated to registers ;size:1
                                           ;@delay_ms P1ADCRbits                Allocated to registers ;size:1
                                           ;@delay_ms IOP2bits                  Allocated to registers ;size:1
                                           ;@delay_ms OEP2bits                  Allocated to registers ;size:1
                                           ;@delay_ms PUP2bits                  Allocated to registers ;size:1
                                           ;@delay_ms PDP2bits                  Allocated to registers ;size:1
                                           ;@delay_ms PMODbits                  Allocated to registers ;size:1
                                           ;@delay_ms PWMCR3bits                Allocated to registers ;size:1
                                           ;@delay_ms PWMCR2bits                Allocated to registers ;size:1
                                           ;@delay_ms PFRCCRbits                Allocated to registers ;size:1
                                           ;@delay_ms PFRCCALbits               Allocated to registers ;size:1
                                           ;@delay_ms EECRbits                  Allocated to registers ;size:1
                                           ;@delay_ms EEPRbits                  Allocated to registers ;size:1
                                           ;@delay_ms EEARbits                  Allocated to registers ;size:1
                                           ;@delay_ms EEDRHbits                 Allocated to registers ;size:1
                                           ;@delay_ms EEDRLbits                 Allocated to registers ;size:1
                                           ;@delay_ms DBGCRbits                 Allocated to registers ;size:1
                                           ;@delay_ms DBGPRbits                 Allocated to registers ;size:1
                                           ;@delay_ms HIRCCALbits               Allocated to registers ;size:1
                                           ;@delay_ms cur_dev_status            Allocated to registers ;size:1
                                           ;@delay_ms detect_load_cnt           Allocated to registers ;size:4
                                           ;@delay_ms undetect_load_cnt         Allocated to registers ;size:4
                                           ;@delay_ms abuf                      Allocated to registers ;size:1
                                           ;@delay_ms statusbuf                 Allocated to registers ;size:1
                                           ;@delay_ms i                         Allocated to registers ;size:1
                                           ;@delay_ms cnt                       Allocated to registers ;size:1
                                           ;@delay_ms ret_u8                    Allocated to registers ;size:1
                                           ;@delay_ms adc_val                   Allocated to registers ;size:2
                                           ;@delay_ms tmp_val                   Allocated to registers ;size:2
                                           ;@delay_ms flag1                     Allocated to registers ;size:1
                                           ;@delay_ms xms                       Allocated to registers ;size:2
                                           ;@delay_ms i                         Allocated to registers r0x101E r0x101F ;size:2
                                           ;@delay_ms INDF0                     Allocated to registers ;size:1
                                           ;@delay_ms INDF1                     Allocated to registers ;size:1
                                           ;@delay_ms INDF2                     Allocated to registers ;size:1
                                           ;@delay_ms HIBYTE                    Allocated to registers ;size:1
                                           ;@delay_ms FSR0                      Allocated to registers ;size:1
                                           ;@delay_ms FSR1                      Allocated to registers ;size:1
                                           ;@delay_ms PCL                       Allocated to registers ;size:1
                                           ;@delay_ms PFLAG                     Allocated to registers ;size:1
                                           ;@delay_ms MCR                       Allocated to registers ;size:1
                                           ;@delay_ms INDF3                     Allocated to registers ;size:1
                                           ;@delay_ms INTE                      Allocated to registers ;size:1
                                           ;@delay_ms INTF                      Allocated to registers ;size:1
                                           ;@delay_ms DRVCR                     Allocated to registers ;size:1
                                           ;@delay_ms P0KBCR                    Allocated to registers ;size:1
                                           ;@delay_ms P1KBCR                    Allocated to registers ;size:1
                                           ;@delay_ms P2KBCR                    Allocated to registers ;size:1
                                           ;@delay_ms IOP0                      Allocated to registers ;size:1
                                           ;@delay_ms OEP0                      Allocated to registers ;size:1
                                           ;@delay_ms PUP0                      Allocated to registers ;size:1
                                           ;@delay_ms PDP0                      Allocated to registers ;size:1
                                           ;@delay_ms IOP1                      Allocated to registers ;size:1
                                           ;@delay_ms OEP1                      Allocated to registers ;size:1
                                           ;@delay_ms PUP1                      Allocated to registers ;size:1
                                           ;@delay_ms PDP1                      Allocated to registers ;size:1
                                           ;@delay_ms T0CR                      Allocated to registers ;size:1
                                           ;@delay_ms T0CNT                     Allocated to registers ;size:1
                                           ;@delay_ms T0LOAD                    Allocated to registers ;size:1
                                           ;@delay_ms T0DATA                    Allocated to registers ;size:1
                                           ;@delay_ms T1CR                      Allocated to registers ;size:1
                                           ;@delay_ms T1CNT                     Allocated to registers ;size:1
                                           ;@delay_ms T1LOAD                    Allocated to registers ;size:1
                                           ;@delay_ms T1DATA                    Allocated to registers ;size:1
                                           ;@delay_ms T2CR                      Allocated to registers ;size:1
                                           ;@delay_ms T2CNT                     Allocated to registers ;size:1
                                           ;@delay_ms T2LOAD                    Allocated to registers ;size:1
                                           ;@delay_ms T2DATA                    Allocated to registers ;size:1
                                           ;@delay_ms T3CR                      Allocated to registers ;size:1
                                           ;@delay_ms T3CNT                     Allocated to registers ;size:1
                                           ;@delay_ms T3LOAD                    Allocated to registers ;size:1
                                           ;@delay_ms PWM0DR                    Allocated to registers ;size:1
                                           ;@delay_ms PWM1DR                    Allocated to registers ;size:1
                                           ;@delay_ms PWM2DR                    Allocated to registers ;size:1
                                           ;@delay_ms PWMCR0                    Allocated to registers ;size:1
                                           ;@delay_ms PWMCR1                    Allocated to registers ;size:1
                                           ;@delay_ms OSCMR                     Allocated to registers ;size:1
                                           ;@delay_ms LVDCR                     Allocated to registers ;size:1
                                           ;@delay_ms ADCR0                     Allocated to registers ;size:1
                                           ;@delay_ms ADCR1                     Allocated to registers ;size:1
                                           ;@delay_ms ADCR2                     Allocated to registers ;size:1
                                           ;@delay_ms OSADJCR                   Allocated to registers ;size:1
                                           ;@delay_ms ADRH                      Allocated to registers ;size:1
                                           ;@delay_ms ADRL                      Allocated to registers ;size:1
                                           ;@delay_ms P0ADCR                    Allocated to registers ;size:1
                                           ;@delay_ms P1ADCR                    Allocated to registers ;size:1
                                           ;@delay_ms IOP2                      Allocated to registers ;size:1
                                           ;@delay_ms OEP2                      Allocated to registers ;size:1
                                           ;@delay_ms PUP2                      Allocated to registers ;size:1
                                           ;@delay_ms PDP2                      Allocated to registers ;size:1
                                           ;@delay_ms PMOD                      Allocated to registers ;size:1
                                           ;@delay_ms PWMCR3                    Allocated to registers ;size:1
                                           ;@delay_ms PWMCR2                    Allocated to registers ;size:1
                                           ;@delay_ms PFRCCR                    Allocated to registers ;size:1
                                           ;@delay_ms PFRCCAL                   Allocated to registers ;size:1
                                           ;@delay_ms EECR                      Allocated to registers ;size:1
                                           ;@delay_ms EEPR                      Allocated to registers ;size:1
                                           ;@delay_ms EEAR                      Allocated to registers ;size:1
                                           ;@delay_ms EEDRH                     Allocated to registers ;size:1
                                           ;@delay_ms EEDRL                     Allocated to registers ;size:1
                                           ;@delay_ms DBGCR                     Allocated to registers ;size:1
                                           ;@delay_ms DBGPR                     Allocated to registers ;size:1
                                           ;@delay_ms HIRCCAL                   Allocated to registers ;size:1
                                           ;@end Allocation info for local variables in function 'delay_ms';
                                           ;@Allocation info for local variables in function 'CLR_RAM'
                                           ;@end Allocation info for local variables in function 'CLR_RAM';
                                           ;@Allocation info for local variables in function 'IO_Init'
                                           ;@end Allocation info for local variables in function 'IO_Init';
                                           ;@Allocation info for local variables in function 'adc_config'
                                           ;@end Allocation info for local variables in function 'adc_config';
                                           ;@Allocation info for local variables in function 'timer0_pwm_config'
                                           ;@end Allocation info for local variables in function 'timer0_pwm_config';
                                           ;@Allocation info for local variables in function 'set_timer0_pwm_when_detecting'
                                           ;@end Allocation info for local variables in function 'set_timer0_pwm_when_detecting';
                                           ;@Allocation info for local variables in function 'set_timer0_pwm_when_charging'
                                           ;@end Allocation info for local variables in function 'set_timer0_pwm_when_charging';
                                           ;@Allocation info for local variables in function 'timer3_config'
                                           ;@end Allocation info for local variables in function 'timer3_config';
                                           ;@Allocation info for local variables in function 'adc_sel_channel'
                                           ;@adc_sel_channel adc_channel               Allocated to registers r0x1022 ;size:1
                                           ;@adc_sel_channel last_adc_channel          Allocated to registers ;size:1
                                           ;@end Allocation info for local variables in function 'adc_sel_channel';
                                           ;@Allocation info for local variables in function 'adc_sel_channel'
                                           ;@adc_sel_channel adc_channel               Allocated to registers r0x1022 ;size:1
                                           ;@adc_sel_channel last_adc_channel          Allocated to registers ;size:1
                                           ;@end Allocation info for local variables in function 'adc_sel_channel';
                                           ;@Allocation info for local variables in function 'adc_get_val'
                                           ;@adc_get_val i                         Allocated to registers r0x1024 ;size:1
                                           ;@adc_get_val g_temp_value              Allocated to registers r0x1025 r0x1026 ;size:2
                                           ;@adc_get_val g_tmpbuff                 Allocated to registers r0x1020 r0x1021 r0x1027 r0x1029 ;size:4
                                           ;@adc_get_val g_adcmax                  Allocated to registers r0x1020 r0x1021 ;size:2
                                           ;@adc_get_val g_adcmin                  Allocated to registers r0x1022 r0x1023 ;size:2
                                           ;@end Allocation info for local variables in function 'adc_get_val';
                                           ;@Allocation info for local variables in function 'Sys_Init'
                                           ;@end Allocation info for local variables in function 'Sys_Init';
                                           ;@Allocation info for local variables in function 'is_in_charging'
                                           ;@is_in_charging last_status               Allocated to registers ;size:1
                                           ;@is_in_charging ret                       Allocated to registers r0x1022 ;size:1
                                           ;@is_in_charging i                         Allocated to registers r0x1024 ;size:1
                                           ;@is_in_charging cnt                       Allocated to registers r0x1023 ;size:1
                                           ;@end Allocation info for local variables in function 'is_in_charging';
                                           ;@Allocation info for local variables in function 'is_in_charging'
                                           ;@is_in_charging last_status               Allocated to registers ;size:1
                                           ;@is_in_charging ret                       Allocated to registers r0x1022 ;size:1
                                           ;@is_in_charging i                         Allocated to registers r0x1024 ;size:1
                                           ;@is_in_charging cnt                       Allocated to registers r0x1023 ;size:1
                                           ;@end Allocation info for local variables in function 'is_in_charging';
                                           ;@Allocation info for local variables in function 'is_open_lid'
                                           ;@is_open_lid last_status               Allocated to registers ;size:1
                                           ;@is_open_lid ret                       Allocated to registers r0x1022 ;size:1
                                           ;@is_open_lid i                         Allocated to registers r0x1024 ;size:1
                                           ;@is_open_lid cnt                       Allocated to registers r0x1023 ;size:1
                                           ;@end Allocation info for local variables in function 'is_open_lid';
                                           ;@Allocation info for local variables in function 'is_open_lid'
                                           ;@is_open_lid last_status               Allocated to registers ;size:1
                                           ;@is_open_lid ret                       Allocated to registers r0x1022 ;size:1
                                           ;@is_open_lid i                         Allocated to registers r0x1024 ;size:1
                                           ;@is_open_lid cnt                       Allocated to registers r0x1023 ;size:1
                                           ;@end Allocation info for local variables in function 'is_open_lid';
                                           ;@Allocation info for local variables in function 'is_detect_load'
                                           ;@is_detect_load ret                       Allocated to registers r0x102B ;size:1
                                           ;@end Allocation info for local variables in function 'is_detect_load';
                                           ;@Allocation info for local variables in function 'stop_charging_the_host'
                                           ;@end Allocation info for local variables in function 'stop_charging_the_host';
                                           ;@Allocation info for local variables in function 'low_power_scan_handle'
                                           ;@end Allocation info for local variables in function 'low_power_scan_handle';
                                           ;@Allocation info for local variables in function 'main'
                                           ;@main i                         Allocated to registers r0x1034 r0x1035 ;size:2
                                           ;@main __detect_ms_cnt           Allocated to registers ;size:2
                                           ;@main __flag_detect_load_status Allocated to registers ;size:1
                                           ;@main __lid_status              Allocated to registers ;size:1
                                           ;@main i                         Allocated to registers r0x1034 r0x1035 ;size:2
                                           ;@end Allocation info for local variables in function 'main';
                                           ;@Allocation info for local variables in function 'main'
                                           ;@main i                         Allocated to registers r0x1034 r0x1035 ;size:2
                                           ;@main __detect_ms_cnt           Allocated to registers ;size:2
                                           ;@main __flag_detect_load_status Allocated to registers ;size:1
                                           ;@main __lid_status              Allocated to registers ;size:1
                                           ;@main i                         Allocated to registers r0x1034 r0x1035 ;size:2
                                           ;@end Allocation info for local variables in function 'main';
                                           ;@Allocation info for local variables in function 'int_isr'
                                           ;@int_isr detect_load_cnt_ms        Allocated to registers ;size:2
                                           ;@int_isr blink_cnt                 Allocated to registers ;size:2
                                           ;@int_isr fully_charged_cnt         Allocated to registers ;size:2
                                           ;@int_isr led_green_blink_cnt       Allocated to registers ;size:2
                                           ;@end Allocation info for local variables in function 'int_isr';
                                           ;@Allocation info for local variables in function 'int_isr'
                                           ;@int_isr detect_load_cnt_ms        Allocated to registers ;size:2
                                           ;@int_isr blink_cnt                 Allocated to registers ;size:2
                                           ;@int_isr fully_charged_cnt         Allocated to registers ;size:2
                                           ;@int_isr led_green_blink_cnt       Allocated to registers ;size:2
                                           ;@end Allocation info for local variables in function 'int_isr';
                                           
                                           ;--------------------------------------------------------
                                           ; overlayable items in internal ram 
                                           ;--------------------------------------------------------
                                           ;	udata_ovr
                                           ;--------------------------------------------------------
                                           ; reset vector 
                                           ;--------------------------------------------------------
                                           STARTUP	code 0x0000
                                           	goto	_main
                                           ;--------------------------------------------------------
                                           ; interrupt and initialization code
                                           ;--------------------------------------------------------
                                           c_interrupt	code	0x8
                                           __sdcc_interrupt
                                           ;***
                                           ;  pBlock Stats: dbName = I
                                           ;***
                                           ;entry:  _int_isr	;Function start
                                           ; 0 exit points
                                           ;2 compiler assigned registers:
                                           ;   r0x103C
                                           ;   r0x103D
                                           ;; Starting pCode block
                                           _int_isr	;Function start
                                           ; 0 exit points
                                           ;	.line	1137; "MC32F7361.c"	__endasm;
                                           	;
                                           	movra	_abuf;
                                           	swapar	_PFLAG;
                                           	movra	_statusbuf;
                                           	
                                           ;	.line	1139; "MC32F7361.c"	if (KBIF & KBIE)
                                           	CLRR	r0x103C
                                           	JBCLR	_INTFbits,4
                                           	INCR	r0x103C
                                           	CLRR	r0x103D
                                           	JBCLR	_INTEbits,4
                                           	INCR	r0x103D
                                           	MOVAR	r0x103D
                                           	ANDRA	r0x103C
                                           	MOVAI	0x00
                                           	ORAR	r0x103C
                                           	JBCLR	PFLAG,2
                                           	GOTO	_00746_DS_
                                           ;	.line	1141; "MC32F7361.c"	KBIF = 0;
                                           	BCLR	_INTFbits,4
                                           _00746_DS_
                                           ;	.line	1144; "MC32F7361.c"	if (T3IF & T3IE)
                                           	CLRR	r0x103C
                                           	JBCLR	_INTFbits,7
                                           	INCR	r0x103C
                                           	CLRR	r0x103D
                                           	JBCLR	_INTEbits,7
                                           	INCR	r0x103D
                                           	MOVAR	r0x103D
                                           	ANDRA	r0x103C
                                           	MOVAI	0x00
                                           	ORAR	r0x103C
                                           	JBCLR	PFLAG,2
                                           	GOTO	_00801_DS_
                                           ;	.line	1158; "MC32F7361.c"	if (flag_is_enable_detect_load)
                                           	JBSET	_flag1,3
                                           	GOTO	_00750_DS_
                                           ;	.line	1160; "MC32F7361.c"	detect_load_cnt_ms++;
                                           	INCR	_int_isr_detect_load_cnt_ms_196608_157
                                           	JBCLR	PFLAG,2
                                           	INCR	(_int_isr_detect_load_cnt_ms_196608_157 + 1)
                                           ;;unsigned compare: left < lit(0x9C4=2500), size=2
                                           ;	.line	1162; "MC32F7361.c"	if (detect_load_cnt_ms >= 2500)
                                           	MOVAI	0x09
                                           	RSUBAR	(_int_isr_detect_load_cnt_ms_196608_157 + 1)
                                           	JBSET	PFLAG,2
                                           	GOTO	_00872_DS_
                                           	MOVAI	0xc4
                                           	RSUBAR	_int_isr_detect_load_cnt_ms_196608_157
                                           _00872_DS_
                                           	JBSET	PFLAG,0
                                           	GOTO	_00751_DS_
                                           ;;genSkipc:3291: created from rifx:013B5EFC
                                           ;	.line	1164; "MC32F7361.c"	detect_load_cnt_ms = 0;
                                           	CLRR	_int_isr_detect_load_cnt_ms_196608_157
                                           	CLRR	(_int_isr_detect_load_cnt_ms_196608_157 + 1)
                                           ;	.line	1165; "MC32F7361.c"	flag_tim_set_scan_time_is_arrive = 1;
                                           	BSET	_flag1,4
                                           	GOTO	_00751_DS_
                                           _00750_DS_
                                           ;	.line	1170; "MC32F7361.c"	detect_load_cnt_ms = 0;
                                           	CLRR	_int_isr_detect_load_cnt_ms_196608_157
                                           	CLRR	(_int_isr_detect_load_cnt_ms_196608_157 + 1)
                                           _00751_DS_
                                           ;	.line	1178; "MC32F7361.c"	if (CUR_STATUS_IN_CHARGING == cur_dev_status && /*  */
                                           	MOVAR	_cur_dev_status
                                           	XORAI	0x02
                                           	JBSET	PFLAG,2
                                           	GOTO	_00779_DS_
                                           ;	.line	1179; "MC32F7361.c"	flag_is_low_bat)                            /*  */
                                           	JBSET	_flag1,0
                                           	GOTO	_00779_DS_
                                           ;;unsigned compare: left < lit(0xFFFF=65535), size=2
                                           ;	.line	1184; "MC32F7361.c"	if (blink_cnt < 65535)
                                           	MOVAI	0xff
                                           	RSUBAR	(_int_isr_blink_cnt_196608_161 + 1)
                                           	JBSET	PFLAG,2
                                           	GOTO	_00873_DS_
                                           	MOVAI	0xff
                                           	RSUBAR	_int_isr_blink_cnt_196608_161
                                           _00873_DS_
                                           	JBCLR	PFLAG,0
                                           	GOTO	_00753_DS_
                                           ;;genSkipc:3291: created from rifx:013B5EFC
                                           ;	.line	1185; "MC32F7361.c"	blink_cnt++;
                                           	INCR	_int_isr_blink_cnt_196608_161
                                           	JBCLR	PFLAG,2
                                           	INCR	(_int_isr_blink_cnt_196608_161 + 1)
                                           ;;swapping arguments (AOP_TYPEs 1/3)
                                           ;;unsigned compare: left >= lit(0x3E9=1001), size=2
                                           _00753_DS_
                                           ;	.line	1188; "MC32F7361.c"	if (blink_cnt <= 1000)
                                           	MOVAI	0x03
                                           	RSUBAR	(_int_isr_blink_cnt_196608_161 + 1)
                                           	JBSET	PFLAG,2
                                           	GOTO	_00874_DS_
                                           	MOVAI	0xe9
                                           	RSUBAR	_int_isr_blink_cnt_196608_161
                                           _00874_DS_
                                           	JBCLR	PFLAG,0
                                           	GOTO	_00764_DS_
                                           ;;genSkipc:3291: created from rifx:013B5EFC
                                           ;	.line	1190; "MC32F7361.c"	LED_RED_ON();
                                           	BSET	_IOP1bits,7
                                           	GOTO	_00765_DS_
                                           ;;swapping arguments (AOP_TYPEs 1/3)
                                           ;;unsigned compare: left >= lit(0x7D1=2001), size=2
                                           _00764_DS_
                                           ;	.line	1193; "MC32F7361.c"	else if (blink_cnt <= 2000)
                                           	MOVAI	0x07
                                           	RSUBAR	(_int_isr_blink_cnt_196608_161 + 1)
                                           	JBSET	PFLAG,2
                                           	GOTO	_00875_DS_
                                           	MOVAI	0xd1
                                           	RSUBAR	_int_isr_blink_cnt_196608_161
                                           _00875_DS_
                                           	JBCLR	PFLAG,0
                                           	GOTO	_00761_DS_
                                           ;;genSkipc:3291: created from rifx:013B5EFC
                                           ;	.line	1195; "MC32F7361.c"	LED_RED_OFF();
                                           	BCLR	_IOP1bits,7
                                           	GOTO	_00765_DS_
                                           _00761_DS_
                                           ;	.line	1199; "MC32F7361.c"	blink_cnt = 0;
                                           	CLRR	_int_isr_blink_cnt_196608_161
                                           	CLRR	(_int_isr_blink_cnt_196608_161 + 1)
                                           _00765_DS_
                                           ;	.line	1202; "MC32F7361.c"	fully_charged_cnt = 0;
                                           	CLRR	_int_isr_fully_charged_cnt_196608_161
                                           	CLRR	(_int_isr_fully_charged_cnt_196608_161 + 1)
                                           	GOTO	_00780_DS_
                                           _00779_DS_
                                           ;	.line	1204; "MC32F7361.c"	else if (CUR_STATUS_BE_CHARGING == cur_dev_status && /*  */
                                           	MOVAR	_cur_dev_status
                                           	XORAI	0x01
                                           	JBSET	PFLAG,2
                                           	GOTO	_00775_DS_
                                           ;	.line	1205; "MC32F7361.c"	0 == flag_bat_is_fully_charged)             /*  */
                                           	JBCLR	_flag1,6
                                           	GOTO	_00775_DS_
                                           ;	.line	1209; "MC32F7361.c"	LED_RED_ON();
                                           	BSET	_IOP1bits,7
                                           ;	.line	1211; "MC32F7361.c"	fully_charged_cnt = 0;
                                           	CLRR	_int_isr_fully_charged_cnt_196608_161
                                           	CLRR	(_int_isr_fully_charged_cnt_196608_161 + 1)
                                           	GOTO	_00780_DS_
                                           _00775_DS_
                                           ;	.line	1215; "MC32F7361.c"	fully_charged_cnt++;
                                           	INCR	_int_isr_fully_charged_cnt_196608_161
                                           	JBCLR	PFLAG,2
                                           	INCR	(_int_isr_fully_charged_cnt_196608_161 + 1)
                                           ;;unsigned compare: left < lit(0x3E8=1000), size=2
                                           ;	.line	1217; "MC32F7361.c"	if (fully_charged_cnt >= 1000) //  xx ms
                                           	MOVAI	0x03
                                           	RSUBAR	(_int_isr_fully_charged_cnt_196608_161 + 1)
                                           	JBSET	PFLAG,2
                                           	GOTO	_00876_DS_
                                           	MOVAI	0xe8
                                           	RSUBAR	_int_isr_fully_charged_cnt_196608_161
                                           _00876_DS_
                                           	JBSET	PFLAG,0
                                           	GOTO	_00773_DS_
                                           ;;genSkipc:3291: created from rifx:013B5EFC
                                           ;	.line	1219; "MC32F7361.c"	fully_charged_cnt = 0;
                                           	CLRR	_int_isr_fully_charged_cnt_196608_161
                                           	CLRR	(_int_isr_fully_charged_cnt_196608_161 + 1)
                                           ;	.line	1220; "MC32F7361.c"	LED_RED_OFF();
                                           	BCLR	_IOP1bits,7
                                           _00773_DS_
                                           ;	.line	1223; "MC32F7361.c"	blink_cnt = 0;
                                           	CLRR	_int_isr_blink_cnt_196608_161
                                           	CLRR	(_int_isr_blink_cnt_196608_161 + 1)
                                           _00780_DS_
                                           ;	.line	1232; "MC32F7361.c"	if (flag_is_detect_load_when_charged ||
                                           	JBCLR	_flag1,7
                                           	GOTO	_00794_DS_
                                           ;	.line	1233; "MC32F7361.c"	(CUR_STATUS_IN_CHARGING == cur_dev_status &&
                                           	MOVAR	_cur_dev_status
                                           	XORAI	0x02
                                           	JBSET	PFLAG,2
                                           	GOTO	_00795_DS_
                                           ;	.line	1234; "MC32F7361.c"	0 == flag_is_low_bat &&
                                           	JBCLR	_flag1,0
                                           	GOTO	_00795_DS_
                                           ;	.line	1235; "MC32F7361.c"	0 == flag_is_fully_charged))
                                           	JBCLR	_flag1,1
                                           	GOTO	_00795_DS_
                                           _00794_DS_
                                           ;	.line	1243; "MC32F7361.c"	led_green_blink_cnt++;
                                           	INCR	_int_isr_led_green_blink_cnt_196608_177
                                           	JBCLR	PFLAG,2
                                           	INCR	(_int_isr_led_green_blink_cnt_196608_177 + 1)
                                           ;;swapping arguments (AOP_TYPEs 1/3)
                                           ;;unsigned compare: left >= lit(0x1F5=501), size=2
                                           ;	.line	1246; "MC32F7361.c"	if (led_green_blink_cnt <= 500)
                                           	MOVAI	0x01
                                           	RSUBAR	(_int_isr_led_green_blink_cnt_196608_177 + 1)
                                           	JBSET	PFLAG,2
                                           	GOTO	_00877_DS_
                                           	MOVAI	0xf5
                                           	RSUBAR	_int_isr_led_green_blink_cnt_196608_177
                                           _00877_DS_
                                           	JBCLR	PFLAG,0
                                           	GOTO	_00792_DS_
                                           ;;genSkipc:3291: created from rifx:013B5EFC
                                           ;	.line	1248; "MC32F7361.c"	LED_GREEN_ON();
                                           	BSET	_IOP0bits,0
                                           	GOTO	_00796_DS_
                                           ;;swapping arguments (AOP_TYPEs 1/3)
                                           ;;unsigned compare: left >= lit(0x3E9=1001), size=2
                                           _00792_DS_
                                           ;	.line	1250; "MC32F7361.c"	else if (led_green_blink_cnt <= 1000)
                                           	MOVAI	0x03
                                           	RSUBAR	(_int_isr_led_green_blink_cnt_196608_177 + 1)
                                           	JBSET	PFLAG,2
                                           	GOTO	_00878_DS_
                                           	MOVAI	0xe9
                                           	RSUBAR	_int_isr_led_green_blink_cnt_196608_177
                                           _00878_DS_
                                           	JBCLR	PFLAG,0
                                           	GOTO	_00789_DS_
                                           ;;genSkipc:3291: created from rifx:013B5EFC
                                           ;	.line	1252; "MC32F7361.c"	LED_GREEN_OFF();
                                           	BCLR	_IOP0bits,0
                                           	GOTO	_00796_DS_
                                           _00789_DS_
                                           ;	.line	1256; "MC32F7361.c"	led_green_blink_cnt = 0;
                                           	CLRR	_int_isr_led_green_blink_cnt_196608_177
                                           	CLRR	(_int_isr_led_green_blink_cnt_196608_177 + 1)
                                           	GOTO	_00796_DS_
                                           _00795_DS_
                                           ;	.line	1261; "MC32F7361.c"	led_green_blink_cnt = 0;
                                           	CLRR	_int_isr_led_green_blink_cnt_196608_177
                                           	CLRR	(_int_isr_led_green_blink_cnt_196608_177 + 1)
                                           _00796_DS_
                                           ;	.line	1266; "MC32F7361.c"	T3IF = 0;
                                           	BCLR	_INTFbits,7
                                           _00801_DS_
                                           ;	.line	1274; "MC32F7361.c"	__endasm;
                                           	;
                                           	swapar	_statusbuf;
                                           	movra	_PFLAG;
                                           	swapr	_abuf;
                                           	swapar	_abuf;
                                           	
                                           END_OF_INTERRUPT
                                           ;	.line	1275; "MC32F7361.c"	}
                                           	RETIE	
                                           
                                           ;--------------------------------------------------------
                                           ; code
                                           ;--------------------------------------------------------
                                           code_MC32F7361	code
                                           ;***
                                           ;  pBlock Stats: dbName = M
                                           ;***
                                           ;entry:  _main	;Function start
                                           ; 2 exit points
                                           ;has an exit
                                           ;functions called:
                                           ;   _Sys_Init
                                           ;   _delay_ms
                                           ;   _delay_ms
                                           ;   _is_open_lid
                                           ;   _is_in_charging
                                           ;   _delay_ms
                                           ;   _set_timer0_pwm_when_detecting
                                           ;   _is_open_lid
                                           ;   _stop_charging_the_host
                                           ;   _delay_ms
                                           ;   _adc_sel_channel
                                           ;   _adc_get_val
                                           ;   _delay_ms
                                           ;   _set_timer0_pwm_when_charging
                                           ;   _stop_charging_the_host
                                           ;   _is_open_lid
                                           ;   _stop_charging_the_host
                                           ;   _low_power_scan_handle
                                           ;   _is_detect_load
                                           ;   _stop_charging_the_host
                                           ;   _delay_ms
                                           ;   _stop_charging_the_host
                                           ;   _adc_sel_channel
                                           ;   _adc_get_val
                                           ;   _delay_ms
                                           ;   _stop_charging_the_host
                                           ;   _delay_ms
                                           ;   _delay_ms
                                           ;   _is_in_charging
                                           ;   _delay_ms
                                           ;   _adc_sel_channel
                                           ;   _adc_get_val
                                           ;   _is_in_charging
                                           ;   _delay_ms
                                           ;   _stop_charging_the_host
                                           ;   _set_timer0_pwm_when_detecting
                                           ;   _is_open_lid
                                           ;   _stop_charging_the_host
                                           ;   _delay_ms
                                           ;   _is_detect_load
                                           ;   _stop_charging_the_host
                                           ;   _set_timer0_pwm_when_charging
                                           ;   _low_power_scan_handle
                                           ;   _Sys_Init
                                           ;   _delay_ms
                                           ;   _delay_ms
                                           ;   _is_open_lid
                                           ;   _is_in_charging
                                           ;   _delay_ms
                                           ;   _set_timer0_pwm_when_detecting
                                           ;   _is_open_lid
                                           ;   _stop_charging_the_host
                                           ;   _delay_ms
                                           ;   _adc_sel_channel
                                           ;   _adc_get_val
                                           ;   _delay_ms
                                           ;   _set_timer0_pwm_when_charging
                                           ;   _stop_charging_the_host
                                           ;   _is_open_lid
                                           ;   _stop_charging_the_host
                                           ;   _low_power_scan_handle
                                           ;   _is_detect_load
                                           ;   _stop_charging_the_host
                                           ;   _delay_ms
                                           ;   _stop_charging_the_host
                                           ;   _adc_sel_channel
                                           ;   _adc_get_val
                                           ;   _delay_ms
                                           ;   _stop_charging_the_host
                                           ;   _delay_ms
                                           ;   _delay_ms
                                           ;   _is_in_charging
                                           ;   _delay_ms
                                           ;   _adc_sel_channel
                                           ;   _adc_get_val
                                           ;   _is_in_charging
                                           ;   _delay_ms
                                           ;   _stop_charging_the_host
                                           ;   _set_timer0_pwm_when_detecting
                                           ;   _is_open_lid
                                           ;   _stop_charging_the_host
                                           ;   _delay_ms
                                           ;   _is_detect_load
                                           ;   _stop_charging_the_host
                                           ;   _set_timer0_pwm_when_charging
                                           ;   _low_power_scan_handle
                                           ;9 compiler assigned registers:
                                           ;   STK00
                                           ;   r0x1034
                                           ;   r0x1035
                                           ;   r0x1036
                                           ;   r0x1037
                                           ;   r0x1038
                                           ;   r0x1039
                                           ;   r0x103A
                                           ;   r0x103B
                                           ;; Starting pCode block
                                           _main	;Function start
                                           ; 2 exit points
                                           ;	.line	715; "MC32F7361.c"	Sys_Init();
                                           	CALL	_Sys_Init
                                           ;	.line	716; "MC32F7361.c"	delay_ms(10);
                                           	MOVAI	0x0a
                                           	MOVRA	STK00
                                           	MOVAI	0x00
                                           	CALL	_delay_ms
                                           ;	.line	718; "MC32F7361.c"	LED_GREEN_ON();
                                           	BSET	_IOP0bits,0
                                           ;	.line	719; "MC32F7361.c"	delay_ms(1000);
                                           	MOVAI	0xe8
                                           	MOVRA	STK00
                                           	MOVAI	0x03
                                           	CALL	_delay_ms
                                           ;	.line	720; "MC32F7361.c"	LED_GREEN_OFF();
                                           	BCLR	_IOP0bits,0
                                           _00553_DS_
                                           ;	.line	735; "MC32F7361.c"	flag_is_open_lid = is_open_lid();
                                           	CALL	_is_open_lid
                                           	MOVRA	r0x1034
                                           	RRAR	r0x1034
                                           	JBSET	PFLAG,0
                                           	BCLR	_flag1,5
                                           	JBCLR	PFLAG,0
                                           	BSET	_flag1,5
                                           ;	.line	737; "MC32F7361.c"	if (CUR_STATUS_NONE == cur_dev_status)
                                           	MOVAI	0x00
                                           	ORAR	_cur_dev_status
                                           	JBSET	PFLAG,2
                                           	GOTO	_00550_DS_
                                           ;	.line	742; "MC32F7361.c"	ret_u8 = is_in_charging(); // 5V
                                           	CALL	_is_in_charging
                                           	MOVRA	_ret_u8
                                           ;	.line	743; "MC32F7361.c"	if (ret_u8)
                                           	MOVAI	0x00
                                           	ORAR	_ret_u8
                                           	JBCLR	PFLAG,2
                                           	GOTO	_00443_DS_
                                           ;	.line	750; "MC32F7361.c"	cur_dev_status = CUR_STATUS_BE_CHARGING; //
                                           	MOVAI	0x01
                                           	MOVRA	_cur_dev_status
                                           ;	.line	751; "MC32F7361.c"	delay_ms(1);
                                           	MOVAI	0x01
                                           	MOVRA	STK00
                                           	MOVAI	0x00
                                           	CALL	_delay_ms
                                           ;	.line	752; "MC32F7361.c"	continue; //
                                           	GOTO	_00553_DS_
                                           _00443_DS_
                                           ;	.line	755; "MC32F7361.c"	if (0 == flag_is_open_lid) // 
                                           	JBCLR	_flag1,5
                                           	GOTO	_00473_DS_
                                           ;	.line	760; "MC32F7361.c"	set_timer0_pwm_when_detecting();
                                           	CALL	_set_timer0_pwm_when_detecting
                                           ;	.line	762; "MC32F7361.c"	PWM_ENABLE();
                                           	BSET	_T0CRbits,6
                                           	BSET	_T0CRbits,7
                                           ;	.line	763; "MC32F7361.c"	LED_GREEN_ON(); //
                                           	BSET	_IOP0bits,0
                                           ;	.line	768; "MC32F7361.c"	for (i = 0; i < 500; i++) // 500ms
                                           	CLRR	r0x1034
                                           	CLRR	r0x1035
                                           _00555_DS_
                                           ;	.line	770; "MC32F7361.c"	if (is_open_lid()) // 
                                           	CALL	_is_open_lid
                                           	MOVRA	r0x1036
                                           	MOVAI	0x00
                                           	ORAR	r0x1036
                                           	JBCLR	PFLAG,2
                                           	GOTO	_00451_DS_
                                           ;	.line	772; "MC32F7361.c"	stop_charging_the_host(); // pwm
                                           	CALL	_stop_charging_the_host
                                           ;	.line	773; "MC32F7361.c"	break;
                                           	GOTO	_00452_DS_
                                           _00451_DS_
                                           ;	.line	776; "MC32F7361.c"	delay_ms(1);
                                           	MOVAI	0x01
                                           	MOVRA	STK00
                                           	MOVAI	0x00
                                           	CALL	_delay_ms
                                           ;	.line	768; "MC32F7361.c"	for (i = 0; i < 500; i++) // 500ms
                                           	INCR	r0x1034
                                           	JBCLR	PFLAG,2
                                           	INCR	r0x1035
                                           ;;unsigned compare: left < lit(0x1F4=500), size=2
                                           	MOVAI	0x01
                                           	RSUBAR	r0x1035
                                           	JBSET	PFLAG,2
                                           	GOTO	_00725_DS_
                                           	MOVAI	0xf4
                                           	RSUBAR	r0x1034
                                           _00725_DS_
                                           	JBSET	PFLAG,0
                                           	GOTO	_00555_DS_
                                           ;;genSkipc:3291: created from rifx:013B5EFC
                                           _00452_DS_
                                           ;	.line	782; "MC32F7361.c"	adc_sel_channel(ADC_CHANNEL_LOAD);
                                           	MOVAI	0x02
                                           	CALL	_adc_sel_channel
                                           ;	.line	783; "MC32F7361.c"	detect_load_cnt = 0;
                                           	CLRR	_detect_load_cnt
                                           	CLRR	(_detect_load_cnt + 1)
                                           	CLRR	(_detect_load_cnt + 2)
                                           	CLRR	(_detect_load_cnt + 3)
                                           ;	.line	784; "MC32F7361.c"	undetect_load_cnt = 0;
                                           	CLRR	_undetect_load_cnt
                                           	CLRR	(_undetect_load_cnt + 1)
                                           	CLRR	(_undetect_load_cnt + 2)
                                           	CLRR	(_undetect_load_cnt + 3)
                                           _00470_DS_
                                           ;	.line	789; "MC32F7361.c"	adc_val = adc_get_val();
                                           	CALL	_adc_get_val
                                           	MOVRA	(_adc_val + 1)
                                           	MOVAR	STK00
                                           	MOVRA	_adc_val
                                           ;;unsigned compare: left < lit(0xE41=3649), size=2
                                           ;	.line	793; "MC32F7361.c"	if (adc_val < 3649)
                                           	MOVAI	0x0e
                                           	RSUBAR	(_adc_val + 1)
                                           	JBSET	PFLAG,2
                                           	GOTO	_00726_DS_
                                           	MOVAI	0x41
                                           	RSUBAR	_adc_val
                                           _00726_DS_
                                           	JBCLR	PFLAG,0
                                           	GOTO	_00456_DS_
                                           ;;genSkipc:3291: created from rifx:013B5EFC
                                           ;	.line	795; "MC32F7361.c"	detect_load_cnt++;
                                           	INCR	_detect_load_cnt
                                           	JBCLR	PFLAG,2
                                           	INCR	(_detect_load_cnt + 1)
                                           	JBCLR	PFLAG,2
                                           	INCR	(_detect_load_cnt + 2)
                                           	JBCLR	PFLAG,2
                                           	INCR	(_detect_load_cnt + 3)
                                           	GOTO	_00457_DS_
                                           ;;swapping arguments (AOP_TYPEs 1/3)
                                           ;;unsigned compare: left >= lit(0xF21=3873), size=2
                                           _00456_DS_
                                           ;	.line	799; "MC32F7361.c"	else if (adc_val > 3872)
                                           	MOVAI	0x0f
                                           	RSUBAR	(_adc_val + 1)
                                           	JBSET	PFLAG,2
                                           	GOTO	_00727_DS_
                                           	MOVAI	0x21
                                           	RSUBAR	_adc_val
                                           _00727_DS_
                                           	JBSET	PFLAG,0
                                           	GOTO	_00457_DS_
                                           ;;genSkipc:3291: created from rifx:013B5EFC
                                           ;	.line	801; "MC32F7361.c"	undetect_load_cnt++;
                                           	INCR	_undetect_load_cnt
                                           	JBCLR	PFLAG,2
                                           	INCR	(_undetect_load_cnt + 1)
                                           	JBCLR	PFLAG,2
                                           	INCR	(_undetect_load_cnt + 2)
                                           	JBCLR	PFLAG,2
                                           	INCR	(_undetect_load_cnt + 3)
                                           _00457_DS_
                                           ;	.line	804; "MC32F7361.c"	delay_ms(1);
                                           	MOVAI	0x01
                                           	MOVRA	STK00
                                           	MOVAI	0x00
                                           	CALL	_delay_ms
                                           ;	.line	805; "MC32F7361.c"	__detect_ms_cnt++;
                                           	INCR	_main___detect_ms_cnt_327680_106
                                           	JBCLR	PFLAG,2
                                           	INCR	(_main___detect_ms_cnt_327680_106 + 1)
                                           ;;unsigned compare: left < lit(0x9C4=2500), size=2
                                           ;	.line	808; "MC32F7361.c"	if (__detect_ms_cnt >= 2500)
                                           	MOVAI	0x09
                                           	RSUBAR	(_main___detect_ms_cnt_327680_106 + 1)
                                           	JBSET	PFLAG,2
                                           	GOTO	_00728_DS_
                                           	MOVAI	0xc4
                                           	RSUBAR	_main___detect_ms_cnt_327680_106
                                           _00728_DS_
                                           	JBSET	PFLAG,0
                                           	GOTO	_00466_DS_
                                           ;;genSkipc:3291: created from rifx:013B5EFC
                                           ;	.line	810; "MC32F7361.c"	__detect_ms_cnt = 0;
                                           	CLRR	_main___detect_ms_cnt_327680_106
                                           	CLRR	(_main___detect_ms_cnt_327680_106 + 1)
                                           ;	.line	812; "MC32F7361.c"	if (detect_load_cnt > undetect_load_cnt)
                                           	MOVAR	(_detect_load_cnt + 3)
                                           	RSUBAR	(_undetect_load_cnt + 3)
                                           	JBSET	PFLAG,2
                                           	GOTO	_00729_DS_
                                           	MOVAR	(_detect_load_cnt + 2)
                                           	RSUBAR	(_undetect_load_cnt + 2)
                                           	JBSET	PFLAG,2
                                           	GOTO	_00729_DS_
                                           	MOVAR	(_detect_load_cnt + 1)
                                           	RSUBAR	(_undetect_load_cnt + 1)
                                           	JBSET	PFLAG,2
                                           	GOTO	_00729_DS_
                                           	MOVAR	_detect_load_cnt
                                           	RSUBAR	_undetect_load_cnt
                                           _00729_DS_
                                           	JBCLR	PFLAG,0
                                           	GOTO	_00463_DS_
                                           ;;genSkipc:3291: created from rifx:013B5EFC
                                           ;	.line	815; "MC32F7361.c"	if ((detect_load_cnt - undetect_load_cnt) > (undetect_load_cnt / 2))
                                           	MOVAR	_undetect_load_cnt
                                           	RSUBAR	_detect_load_cnt
                                           	MOVRA	r0x1034
                                           	MOVAR	(_detect_load_cnt + 1)
                                           	MOVRA	r0x1035
                                           	MOVAR	(_undetect_load_cnt + 1)
                                           	JBSET	PFLAG,0
                                           	JZAR	(_undetect_load_cnt + 1)
                                           	RSUBRA	r0x1035
                                           	MOVAR	(_detect_load_cnt + 2)
                                           	MOVRA	r0x1036
                                           	MOVAR	(_undetect_load_cnt + 2)
                                           	JBSET	PFLAG,0
                                           	JZAR	(_undetect_load_cnt + 2)
                                           	RSUBRA	r0x1036
                                           	MOVAR	(_undetect_load_cnt + 3)
                                           	JBSET	PFLAG,0
                                           	INCAR	(_undetect_load_cnt + 3)
                                           	RSUBAR	(_detect_load_cnt + 3)
                                           	MOVRA	r0x1037
                                           ;;shiftRight_Left2ResultLit:5339: shCount=1, size=4, sign=0, same=0, offr=0
                                           	BCLR	PFLAG,0
                                           	RRAR	(_undetect_load_cnt + 3)
                                           	MOVRA	r0x1038
                                           	RRAR	(_undetect_load_cnt + 2)
                                           	MOVRA	r0x1039
                                           	RRAR	(_undetect_load_cnt + 1)
                                           	MOVRA	r0x103A
                                           	RRAR	_undetect_load_cnt
                                           	MOVRA	r0x103B
                                           	MOVAR	r0x1037
                                           	RSUBAR	r0x1038
                                           	JBSET	PFLAG,2
                                           	GOTO	_00730_DS_
                                           	MOVAR	r0x1036
                                           	RSUBAR	r0x1039
                                           	JBSET	PFLAG,2
                                           	GOTO	_00730_DS_
                                           	MOVAR	r0x1035
                                           	RSUBAR	r0x103A
                                           	JBSET	PFLAG,2
                                           	GOTO	_00730_DS_
                                           	MOVAR	r0x1034
                                           	RSUBAR	r0x103B
                                           _00730_DS_
                                           	JBCLR	PFLAG,0
                                           	GOTO	_00464_DS_
                                           ;;genSkipc:3291: created from rifx:013B5EFC
                                           ;	.line	821; "MC32F7361.c"	cur_dev_status = CUR_STATUS_IN_CHARGING;
                                           	MOVAI	0x02
                                           	MOVRA	_cur_dev_status
                                           ;	.line	822; "MC32F7361.c"	set_timer0_pwm_when_charging();
                                           	CALL	_set_timer0_pwm_when_charging
                                           	GOTO	_00464_DS_
                                           _00463_DS_
                                           ;	.line	829; "MC32F7361.c"	if ((undetect_load_cnt - detect_load_cnt) > (detect_load_cnt / 2))
                                           	MOVAR	_detect_load_cnt
                                           	RSUBAR	_undetect_load_cnt
                                           	MOVRA	r0x1034
                                           	MOVAR	(_undetect_load_cnt + 1)
                                           	MOVRA	r0x1035
                                           	MOVAR	(_detect_load_cnt + 1)
                                           	JBSET	PFLAG,0
                                           	JZAR	(_detect_load_cnt + 1)
                                           	RSUBRA	r0x1035
                                           	MOVAR	(_undetect_load_cnt + 2)
                                           	MOVRA	r0x1036
                                           	MOVAR	(_detect_load_cnt + 2)
                                           	JBSET	PFLAG,0
                                           	JZAR	(_detect_load_cnt + 2)
                                           	RSUBRA	r0x1036
                                           	MOVAR	(_detect_load_cnt + 3)
                                           	JBSET	PFLAG,0
                                           	INCAR	(_detect_load_cnt + 3)
                                           	RSUBAR	(_undetect_load_cnt + 3)
                                           	MOVRA	r0x1037
                                           ;;shiftRight_Left2ResultLit:5339: shCount=1, size=4, sign=0, same=0, offr=0
                                           	BCLR	PFLAG,0
                                           	RRAR	(_detect_load_cnt + 3)
                                           	MOVRA	r0x1038
                                           	RRAR	(_detect_load_cnt + 2)
                                           	MOVRA	r0x1039
                                           	RRAR	(_detect_load_cnt + 1)
                                           	MOVRA	r0x103A
                                           	RRAR	_detect_load_cnt
                                           	MOVRA	r0x103B
                                           	MOVAR	r0x1037
                                           	RSUBAR	r0x1038
                                           	JBSET	PFLAG,2
                                           	GOTO	_00731_DS_
                                           	MOVAR	r0x1036
                                           	RSUBAR	r0x1039
                                           	JBSET	PFLAG,2
                                           	GOTO	_00731_DS_
                                           	MOVAR	r0x1035
                                           	RSUBAR	r0x103A
                                           	JBSET	PFLAG,2
                                           	GOTO	_00731_DS_
                                           	MOVAR	r0x1034
                                           	RSUBAR	r0x103B
                                           _00731_DS_
                                           	JBCLR	PFLAG,0
                                           	GOTO	_00464_DS_
                                           ;;genSkipc:3291: created from rifx:013B5EFC
                                           ;	.line	835; "MC32F7361.c"	stop_charging_the_host(); // pwm
                                           	CALL	_stop_charging_the_host
                                           _00464_DS_
                                           ;	.line	840; "MC32F7361.c"	detect_load_cnt = 0;
                                           	CLRR	_detect_load_cnt
                                           	CLRR	(_detect_load_cnt + 1)
                                           	CLRR	(_detect_load_cnt + 2)
                                           	CLRR	(_detect_load_cnt + 3)
                                           ;	.line	841; "MC32F7361.c"	undetect_load_cnt = 0;
                                           	CLRR	_undetect_load_cnt
                                           	CLRR	(_undetect_load_cnt + 1)
                                           	CLRR	(_undetect_load_cnt + 2)
                                           	CLRR	(_undetect_load_cnt + 3)
                                           ;	.line	842; "MC32F7361.c"	break;
                                           	GOTO	_00473_DS_
                                           _00466_DS_
                                           ;	.line	845; "MC32F7361.c"	if (1 == is_open_lid())
                                           	CALL	_is_open_lid
                                           	MOVRA	r0x1034
                                           	MOVAR	r0x1034
                                           	XORAI	0x01
                                           	JBSET	PFLAG,2
                                           	GOTO	_00470_DS_
                                           ;	.line	848; "MC32F7361.c"	detect_load_cnt = 0;
                                           	CLRR	_detect_load_cnt
                                           	CLRR	(_detect_load_cnt + 1)
                                           	CLRR	(_detect_load_cnt + 2)
                                           	CLRR	(_detect_load_cnt + 3)
                                           ;	.line	849; "MC32F7361.c"	undetect_load_cnt = 0;
                                           	CLRR	_undetect_load_cnt
                                           	CLRR	(_undetect_load_cnt + 1)
                                           	CLRR	(_undetect_load_cnt + 2)
                                           	CLRR	(_undetect_load_cnt + 3)
                                           ;	.line	850; "MC32F7361.c"	__detect_ms_cnt = 0;
                                           	CLRR	_main___detect_ms_cnt_327680_106
                                           	CLRR	(_main___detect_ms_cnt_327680_106 + 1)
                                           ;	.line	853; "MC32F7361.c"	stop_charging_the_host(); // pwm
                                           	CALL	_stop_charging_the_host
                                           _00473_DS_
                                           ;	.line	861; "MC32F7361.c"	low_power_scan_handle();
                                           	CALL	_low_power_scan_handle
                                           	GOTO	_00551_DS_
                                           _00550_DS_
                                           ;	.line	863; "MC32F7361.c"	else if (CUR_STATUS_IN_CHARGING == cur_dev_status)
                                           	MOVAR	_cur_dev_status
                                           	XORAI	0x02
                                           	JBSET	PFLAG,2
                                           	GOTO	_00547_DS_
                                           ;	.line	871; "MC32F7361.c"	ret_u8 = is_detect_load();
                                           	CALL	_is_detect_load
                                           	MOVRA	_ret_u8
                                           ;	.line	872; "MC32F7361.c"	if (1 == ret_u8)
                                           	MOVAR	_ret_u8
                                           	XORAI	0x01
                                           	JBSET	PFLAG,2
                                           	GOTO	_00732_DS_
                                           	GOTO	_00479_DS_
                                           _00732_DS_
                                           ;	.line	877; "MC32F7361.c"	else if (0 == ret_u8)
                                           	MOVAI	0x00
                                           	ORAR	_ret_u8
                                           	JBSET	PFLAG,2
                                           	GOTO	_00479_DS_
                                           ;	.line	880; "MC32F7361.c"	flag_is_fully_charged = 1;
                                           	BSET	_flag1,1
                                           ;	.line	888; "MC32F7361.c"	stop_charging_the_host();              // PWM
                                           	CALL	_stop_charging_the_host
                                           ;	.line	889; "MC32F7361.c"	flag_is_low_bat = 0;                   // 
                                           	BCLR	_flag1,0
                                           ;	.line	890; "MC32F7361.c"	cur_dev_status = CUR_STATUS_POWER_OFF; // 
                                           	MOVAI	0x03
                                           	MOVRA	_cur_dev_status
                                           ;	.line	891; "MC32F7361.c"	continue;
                                           	GOTO	_00553_DS_
                                           _00479_DS_
                                           ;	.line	899; "MC32F7361.c"	if (flag_is_open_lid)
                                           	JBSET	_flag1,5
                                           	GOTO	_00481_DS_
                                           ;	.line	902; "MC32F7361.c"	cur_dev_status = CUR_STATUS_NONE;
                                           	CLRR	_cur_dev_status
                                           ;	.line	904; "MC32F7361.c"	flag_is_fully_charged = 0;
                                           	BCLR	_flag1,1
                                           ;	.line	905; "MC32F7361.c"	flag_is_enable_detect_load = 0; // 
                                           	BCLR	_flag1,3
                                           ;	.line	906; "MC32F7361.c"	delay_ms(1);
                                           	MOVAI	0x01
                                           	MOVRA	STK00
                                           	MOVAI	0x00
                                           	CALL	_delay_ms
                                           ;	.line	907; "MC32F7361.c"	stop_charging_the_host(); // PWM
                                           	CALL	_stop_charging_the_host
                                           ;	.line	908; "MC32F7361.c"	continue;                 // 
                                           	GOTO	_00553_DS_
                                           _00481_DS_
                                           ;	.line	912; "MC32F7361.c"	adc_sel_channel(ADC_CHANNEL_BAT);
                                           	MOVAI	0x01
                                           	CALL	_adc_sel_channel
                                           ;	.line	913; "MC32F7361.c"	adc_val = adc_get_val();
                                           	CALL	_adc_get_val
                                           	MOVRA	(_adc_val + 1)
                                           	MOVAR	STK00
                                           	MOVRA	_adc_val
                                           ;;unsigned compare: left < lit(0x600=1536), size=2
                                           ;	.line	917; "MC32F7361.c"	if (adc_val < 1536) // 3.0V
                                           	MOVAI	0x06
                                           	RSUBAR	(_adc_val + 1)
                                           	JBSET	PFLAG,2
                                           	GOTO	_00733_DS_
                                           	MOVAI	0x00
                                           	RSUBAR	_adc_val
                                           _00733_DS_
                                           	JBCLR	PFLAG,0
                                           	GOTO	_00491_DS_
                                           ;;genSkipc:3291: created from rifx:013B5EFC
                                           ;	.line	921; "MC32F7361.c"	cur_dev_status = CUR_STATUS_POWER_OFF;
                                           	MOVAI	0x03
                                           	MOVRA	_cur_dev_status
                                           ;	.line	922; "MC32F7361.c"	flag_is_fully_charged = 0;
                                           	BCLR	_flag1,1
                                           ;	.line	923; "MC32F7361.c"	flag_is_enable_detect_load = 0; // 
                                           	BCLR	_flag1,3
                                           ;	.line	924; "MC32F7361.c"	delay_ms(1);
                                           	MOVAI	0x01
                                           	MOVRA	STK00
                                           	MOVAI	0x00
                                           	CALL	_delay_ms
                                           ;	.line	925; "MC32F7361.c"	stop_charging_the_host();
                                           	CALL	_stop_charging_the_host
                                           ;	.line	926; "MC32F7361.c"	continue;
                                           	GOTO	_00553_DS_
                                           ;;unsigned compare: left < lit(0x699=1689), size=2
                                           _00491_DS_
                                           ;	.line	930; "MC32F7361.c"	else if (adc_val < 1689) // 3.3V
                                           	MOVAI	0x06
                                           	RSUBAR	(_adc_val + 1)
                                           	JBSET	PFLAG,2
                                           	GOTO	_00734_DS_
                                           	MOVAI	0x99
                                           	RSUBAR	_adc_val
                                           _00734_DS_
                                           	JBCLR	PFLAG,0
                                           	GOTO	_00488_DS_
                                           ;;genSkipc:3291: created from rifx:013B5EFC
                                           ;	.line	933; "MC32F7361.c"	LED_GREEN_OFF(); // 
                                           	BCLR	_IOP0bits,0
                                           ;	.line	934; "MC32F7361.c"	delay_ms(1);     // 
                                           	MOVAI	0x01
                                           	MOVRA	STK00
                                           	MOVAI	0x00
                                           	CALL	_delay_ms
                                           ;	.line	935; "MC32F7361.c"	flag_is_low_bat = 1;
                                           	BSET	_flag1,0
                                           	GOTO	_00492_DS_
                                           ;;swapping arguments (AOP_TYPEs 1/3)
                                           ;;unsigned compare: left >= lit(0x6C3=1731), size=2
                                           _00488_DS_
                                           ;	.line	939; "MC32F7361.c"	else if (adc_val > 1689 + AD_OFFSET) //  (3.3V) ad
                                           	MOVAI	0x06
                                           	RSUBAR	(_adc_val + 1)
                                           	JBSET	PFLAG,2
                                           	GOTO	_00735_DS_
                                           	MOVAI	0xc3
                                           	RSUBAR	_adc_val
                                           _00735_DS_
                                           	JBSET	PFLAG,0
                                           	GOTO	_00492_DS_
                                           ;;genSkipc:3291: created from rifx:013B5EFC
                                           ;	.line	941; "MC32F7361.c"	flag_is_low_bat = 0;
                                           	BCLR	_flag1,0
                                           ;	.line	942; "MC32F7361.c"	delay_ms(1); // 
                                           	MOVAI	0x01
                                           	MOVRA	STK00
                                           	MOVAI	0x00
                                           	CALL	_delay_ms
                                           _00492_DS_
                                           ;	.line	949; "MC32F7361.c"	if (is_in_charging())
                                           	CALL	_is_in_charging
                                           	MOVRA	r0x1034
                                           	MOVAI	0x00
                                           	ORAR	r0x1034
                                           	JBCLR	PFLAG,2
                                           	GOTO	_00551_DS_
                                           ;	.line	965; "MC32F7361.c"	cur_dev_status = CUR_STATUS_BE_CHARGING; //
                                           	MOVAI	0x01
                                           	MOVRA	_cur_dev_status
                                           ;	.line	966; "MC32F7361.c"	flag_is_low_bat = 0;                     // 
                                           	BCLR	_flag1,0
                                           ;	.line	967; "MC32F7361.c"	flag_is_enable_detect_load = 0;          // 
                                           	BCLR	_flag1,3
                                           ;	.line	968; "MC32F7361.c"	delay_ms(1);
                                           	MOVAI	0x01
                                           	MOVRA	STK00
                                           	MOVAI	0x00
                                           	CALL	_delay_ms
                                           ;	.line	969; "MC32F7361.c"	LED_GREEN_OFF(); // 
                                           	BCLR	_IOP0bits,0
                                           ;	.line	970; "MC32F7361.c"	continue;
                                           	GOTO	_00553_DS_
                                           _00547_DS_
                                           ;	.line	974; "MC32F7361.c"	else if (CUR_STATUS_BE_CHARGING == cur_dev_status) // 
                                           	MOVAR	_cur_dev_status
                                           	XORAI	0x01
                                           	JBSET	PFLAG,2
                                           	GOTO	_00544_DS_
                                           ;	.line	988; "MC32F7361.c"	if (0 == __lid_status) // 
                                           	MOVAI	0x00
                                           	ORAR	_main___lid_status_196608_128
                                           	JBSET	PFLAG,2
                                           	GOTO	_00502_DS_
                                           ;	.line	990; "MC32F7361.c"	if (P13D) // 
                                           	JBSET	_IOP1bits,3
                                           	GOTO	_00499_DS_
                                           ;	.line	992; "MC32F7361.c"	__lid_status = 2;
                                           	MOVAI	0x02
                                           	MOVRA	_main___lid_status_196608_128
                                           	GOTO	_00502_DS_
                                           _00499_DS_
                                           ;	.line	996; "MC32F7361.c"	__lid_status = 1; // 
                                           	MOVAI	0x01
                                           	MOVRA	_main___lid_status_196608_128
                                           _00502_DS_
                                           ;	.line	1001; "MC32F7361.c"	adc_sel_channel(ADC_CHANNEL_BAT);
                                           	MOVAI	0x01
                                           	CALL	_adc_sel_channel
                                           ;	.line	1002; "MC32F7361.c"	adc_val = adc_get_val();
                                           	CALL	_adc_get_val
                                           	MOVRA	(_adc_val + 1)
                                           	MOVAR	STK00
                                           	MOVRA	_adc_val
                                           ;;unsigned compare: left < lit(0x800=2048), size=2
                                           ;	.line	1007; "MC32F7361.c"	if (adc_val >= 2048) // 4V
                                           	MOVAI	0x08
                                           	RSUBAR	(_adc_val + 1)
                                           	JBSET	PFLAG,2
                                           	GOTO	_00736_DS_
                                           	MOVAI	0x00
                                           	RSUBAR	_adc_val
                                           _00736_DS_
                                           	JBSET	PFLAG,0
                                           	GOTO	_00504_DS_
                                           ;;genSkipc:3291: created from rifx:013B5EFC
                                           ;	.line	1009; "MC32F7361.c"	flag_bat_is_fully_charged = 1; // 
                                           	BSET	_flag1,6
                                           _00504_DS_
                                           ;	.line	1013; "MC32F7361.c"	ret_u8 = is_in_charging();
                                           	CALL	_is_in_charging
                                           	MOVRA	_ret_u8
                                           ;	.line	1014; "MC32F7361.c"	if (0 == ret_u8)
                                           	MOVAI	0x00
                                           	ORAR	_ret_u8
                                           	JBSET	PFLAG,2
                                           	GOTO	_00509_DS_
                                           ;	.line	1019; "MC32F7361.c"	if (flag_is_detect_load_when_charged) // 
                                           	JBSET	_flag1,7
                                           	GOTO	_00506_DS_
                                           ;	.line	1021; "MC32F7361.c"	cur_dev_status = CUR_STATUS_IN_CHARGING;
                                           	MOVAI	0x02
                                           	MOVRA	_cur_dev_status
                                           	GOTO	_00507_DS_
                                           _00506_DS_
                                           ;	.line	1025; "MC32F7361.c"	cur_dev_status = CUR_STATUS_POWER_OFF;
                                           	MOVAI	0x03
                                           	MOVRA	_cur_dev_status
                                           _00507_DS_
                                           ;	.line	1028; "MC32F7361.c"	flag_is_detect_load_when_charged = 0;
                                           	BCLR	_flag1,7
                                           ;	.line	1029; "MC32F7361.c"	__lid_status = 0; // 
                                           	CLRR	_main___lid_status_196608_128
                                           ;	.line	1030; "MC32F7361.c"	continue;
                                           	GOTO	_00553_DS_
                                           _00509_DS_
                                           ;	.line	1034; "MC32F7361.c"	if (flag_is_open_lid && __lid_status == 1)
                                           	JBSET	_flag1,5
                                           	GOTO	_00538_DS_
                                           	MOVAR	_main___lid_status_196608_128
                                           	XORAI	0x01
                                           	JBSET	PFLAG,2
                                           	GOTO	_00538_DS_
                                           ;	.line	1037; "MC32F7361.c"	__lid_status = 2; // 
                                           	MOVAI	0x02
                                           	MOVRA	_main___lid_status_196608_128
                                           ;	.line	1039; "MC32F7361.c"	__flag_detect_load_status = 0;
                                           	CLRR	_main___flag_detect_load_status_196608_128
                                           ;	.line	1040; "MC32F7361.c"	flag_is_enable_detect_load = 0; // 
                                           	BCLR	_flag1,3
                                           ;	.line	1041; "MC32F7361.c"	delay_ms(1);
                                           	MOVAI	0x01
                                           	MOVRA	STK00
                                           	MOVAI	0x00
                                           	CALL	_delay_ms
                                           ;	.line	1042; "MC32F7361.c"	flag_is_detect_load_when_charged = 0;
                                           	BCLR	_flag1,7
                                           ;	.line	1043; "MC32F7361.c"	stop_charging_the_host(); // PWM
                                           	CALL	_stop_charging_the_host
                                           	GOTO	_00551_DS_
                                           _00538_DS_
                                           ;	.line	1045; "MC32F7361.c"	else if (((1 == __flag_detect_load_status) ||         /*  */
                                           	MOVAR	_main___flag_detect_load_status_196608_128
                                           	XORAI	0x01
                                           	JBSET	PFLAG,2
                                           	GOTO	_00737_DS_
                                           	GOTO	_00532_DS_
                                           _00737_DS_
                                           ;	.line	1046; "MC32F7361.c"	(3 == __flag_detect_load_status)) ||        /*  */
                                           	MOVAR	_main___flag_detect_load_status_196608_128
                                           	XORAI	0x03
                                           	JBSET	PFLAG,2
                                           	GOTO	_00738_DS_
                                           	GOTO	_00532_DS_
                                           _00738_DS_
                                           ;	.line	1047; "MC32F7361.c"	(__lid_status == 2 && 0 == flag_is_open_lid) // 
                                           	MOVAR	_main___lid_status_196608_128
                                           	XORAI	0x02
                                           	JBSET	PFLAG,2
                                           	GOTO	_00551_DS_
                                           	JBCLR	_flag1,5
                                           	GOTO	_00551_DS_
                                           _00532_DS_
                                           ;	.line	1050; "MC32F7361.c"	__lid_status = 1; // 
                                           	MOVAI	0x01
                                           	MOVRA	_main___lid_status_196608_128
                                           ;	.line	1053; "MC32F7361.c"	if (0 == __flag_detect_load_status)
                                           	MOVAI	0x00
                                           	ORAR	_main___flag_detect_load_status_196608_128
                                           	JBSET	PFLAG,2
                                           	GOTO	_00520_DS_
                                           ;	.line	1056; "MC32F7361.c"	__flag_detect_load_status = 1; // 
                                           	MOVAI	0x01
                                           	MOVRA	_main___flag_detect_load_status_196608_128
                                           ;	.line	1057; "MC32F7361.c"	set_timer0_pwm_when_detecting();
                                           	CALL	_set_timer0_pwm_when_detecting
                                           ;	.line	1058; "MC32F7361.c"	PWM_ENABLE();
                                           	BSET	_T0CRbits,6
                                           	BSET	_T0CRbits,7
                                           ;	.line	1059; "MC32F7361.c"	LED_GREEN_ON();
                                           	BSET	_IOP0bits,0
                                           ;	.line	1064; "MC32F7361.c"	for (i = 0; i < 500; i++)
                                           	CLRR	r0x1034
                                           	CLRR	r0x1035
                                           _00557_DS_
                                           ;	.line	1066; "MC32F7361.c"	if (is_open_lid()) // 
                                           	CALL	_is_open_lid
                                           	MOVRA	r0x1036
                                           	MOVAI	0x00
                                           	ORAR	r0x1036
                                           	JBCLR	PFLAG,2
                                           	GOTO	_00517_DS_
                                           ;	.line	1068; "MC32F7361.c"	__flag_detect_load_status = 0;
                                           	CLRR	_main___flag_detect_load_status_196608_128
                                           ;	.line	1069; "MC32F7361.c"	flag_is_detect_load_when_charged = 0;
                                           	BCLR	_flag1,7
                                           ;	.line	1070; "MC32F7361.c"	stop_charging_the_host(); // pwm
                                           	CALL	_stop_charging_the_host
                                           ;	.line	1071; "MC32F7361.c"	break;
                                           	GOTO	_00520_DS_
                                           _00517_DS_
                                           ;	.line	1074; "MC32F7361.c"	delay_ms(1);
                                           	MOVAI	0x01
                                           	MOVRA	STK00
                                           	MOVAI	0x00
                                           	CALL	_delay_ms
                                           ;	.line	1064; "MC32F7361.c"	for (i = 0; i < 500; i++)
                                           	INCR	r0x1034
                                           	JBCLR	PFLAG,2
                                           	INCR	r0x1035
                                           ;;unsigned compare: left < lit(0x1F4=500), size=2
                                           	MOVAI	0x01
                                           	RSUBAR	r0x1035
                                           	JBSET	PFLAG,2
                                           	GOTO	_00739_DS_
                                           	MOVAI	0xf4
                                           	RSUBAR	r0x1034
                                           _00739_DS_
                                           	JBSET	PFLAG,0
                                           	GOTO	_00557_DS_
                                           ;;genSkipc:3291: created from rifx:013B5EFC
                                           _00520_DS_
                                           ;	.line	1079; "MC32F7361.c"	if ((1 == __flag_detect_load_status) || /*  */
                                           	MOVAR	_main___flag_detect_load_status_196608_128
                                           	XORAI	0x01
                                           	JBSET	PFLAG,2
                                           	GOTO	_00740_DS_
                                           	GOTO	_00529_DS_
                                           _00740_DS_
                                           ;	.line	1080; "MC32F7361.c"	(3 == __flag_detect_load_status))   /*  */
                                           	MOVAR	_main___flag_detect_load_status_196608_128
                                           	XORAI	0x03
                                           	JBSET	PFLAG,2
                                           	GOTO	_00551_DS_
                                           _00529_DS_
                                           ;	.line	1082; "MC32F7361.c"	ret_u8 = is_detect_load();
                                           	CALL	_is_detect_load
                                           	MOVRA	_ret_u8
                                           ;	.line	1083; "MC32F7361.c"	if (0 == ret_u8)
                                           	MOVAI	0x00
                                           	ORAR	_ret_u8
                                           	JBSET	PFLAG,2
                                           	GOTO	_00527_DS_
                                           ;	.line	1086; "MC32F7361.c"	__flag_detect_load_status = 2;
                                           	MOVAI	0x02
                                           	MOVRA	_main___flag_detect_load_status_196608_128
                                           ;	.line	1087; "MC32F7361.c"	flag_is_detect_load_when_charged = 0;
                                           	BCLR	_flag1,7
                                           ;	.line	1088; "MC32F7361.c"	stop_charging_the_host(); // PWM
                                           	CALL	_stop_charging_the_host
                                           	GOTO	_00551_DS_
                                           _00527_DS_
                                           ;	.line	1090; "MC32F7361.c"	else if (1 == ret_u8)
                                           	MOVAR	_ret_u8
                                           	XORAI	0x01
                                           	JBSET	PFLAG,2
                                           	GOTO	_00524_DS_
                                           ;	.line	1093; "MC32F7361.c"	if (1 == __flag_detect_load_status)
                                           	MOVAR	_main___flag_detect_load_status_196608_128
                                           	XORAI	0x01
                                           	JBSET	PFLAG,2
                                           	GOTO	_00522_DS_
                                           ;	.line	1095; "MC32F7361.c"	set_timer0_pwm_when_charging();
                                           	CALL	_set_timer0_pwm_when_charging
                                           _00522_DS_
                                           ;	.line	1098; "MC32F7361.c"	__flag_detect_load_status = 3;
                                           	MOVAI	0x03
                                           	MOVRA	_main___flag_detect_load_status_196608_128
                                           ;	.line	1099; "MC32F7361.c"	flag_is_detect_load_when_charged = 1;
                                           	BSET	_flag1,7
                                           	GOTO	_00551_DS_
                                           _00524_DS_
                                           ;	.line	1101; "MC32F7361.c"	else if (2 == ret_u8)
                                           	GOTO	_00551_DS_
                                           _00544_DS_
                                           ;	.line	1109; "MC32F7361.c"	else if (CUR_STATUS_POWER_OFF == cur_dev_status)
                                           	MOVAR	_cur_dev_status
                                           	XORAI	0x03
                                           	JBSET	PFLAG,2
                                           	GOTO	_00551_DS_
                                           ;	.line	1112; "MC32F7361.c"	low_power_scan_handle();
                                           	CALL	_low_power_scan_handle
                                           ;	.line	1116; "MC32F7361.c"	cur_dev_status = CUR_STATUS_NONE;
                                           	CLRR	_cur_dev_status
                                           _00551_DS_
                                           ;	.line	1122; "MC32F7361.c"	__endasm;
                                           	;
                                           	clrwdt;
                                           	
                                           	GOTO	_00553_DS_
                                           ;	.line	1124; "MC32F7361.c"	}
                                           	RETURN	
                                           ; exit point of _main
                                           
                                           ;***
                                           ;  pBlock Stats: dbName = C
                                           ;***
                                           ;entry:  _low_power_scan_handle	;Function start
                                           ; 2 exit points
                                           ;has an exit
                                           ;functions called:
                                           ;   _Sys_Init
                                           ;   _delay_ms
                                           ;   _Sys_Init
                                           ;   _delay_ms
                                           ;1 compiler assigned register :
                                           ;   STK00
                                           ;; Starting pCode block
                                           _low_power_scan_handle	;Function start
                                           ; 2 exit points
                                           ;	.line	618; "MC32F7361.c"	if (CUR_STATUS_NONE == cur_dev_status ||    /*  */
                                           	MOVAI	0x00
                                           	ORAR	_cur_dev_status
                                           	JBCLR	PFLAG,2
                                           	GOTO	_00412_DS_
                                           ;	.line	619; "MC32F7361.c"	CUR_STATUS_POWER_OFF == cur_dev_status) /*  */
                                           	MOVAR	_cur_dev_status
                                           	XORAI	0x03
                                           	JBSET	PFLAG,2
                                           	GOTO	_00431_DS_
                                           _00412_DS_
                                           ;	.line	623; "MC32F7361.c"	GIE = 0; // 
                                           	BCLR	_MCRbits,7
                                           ;	.line	624; "MC32F7361.c"	LED_GREEN_OFF();
                                           	BCLR	_IOP0bits,0
                                           ;	.line	625; "MC32F7361.c"	LED_RED_OFF();
                                           	BCLR	_IOP1bits,7
                                           ;	.line	626; "MC32F7361.c"	PWM_DISABLE();
                                           	BCLR	_T0CRbits,6
                                           	BCLR	_T0CRbits,7
                                           ;	.line	631; "MC32F7361.c"	P16D = 0;
                                           	BCLR	_IOP1bits,6
                                           ;	.line	633; "MC32F7361.c"	T3EN = 0;
                                           	BCLR	_T3CRbits,7
                                           ;	.line	634; "MC32F7361.c"	T3IE = 0;
                                           	BCLR	_INTEbits,7
                                           ;	.line	642; "MC32F7361.c"	P15OE = 0; // 
                                           	BCLR	_OEP1bits,5
                                           ;	.line	643; "MC32F7361.c"	P15DC = 0; // 
                                           	BCLR	_P1ADCRbits,5
                                           ;	.line	647; "MC32F7361.c"	ADCHS3 = 0;
                                           	BCLR	_ADCR0bits,7
                                           ;	.line	648; "MC32F7361.c"	ADCHS2 = 0;
                                           	BCLR	_ADCR0bits,6
                                           ;	.line	649; "MC32F7361.c"	ADCHS1 = 0;
                                           	BCLR	_ADCR0bits,5
                                           ;	.line	650; "MC32F7361.c"	ADCHS0 = 0;
                                           	BCLR	_ADCR0bits,4
                                           ;	.line	651; "MC32F7361.c"	ADEN = 0;
                                           	BCLR	_ADCR0bits,0
                                           ;	.line	653; "MC32F7361.c"	P13KE = 1;
                                           	BSET	_P1KBCRbits,3
                                           ;	.line	658; "MC32F7361.c"	P04KE = 1;
                                           	BSET	_P0KBCRbits,4
                                           ;	.line	660; "MC32F7361.c"	KBIF = 0;
                                           	BCLR	_INTFbits,4
                                           ;	.line	661; "MC32F7361.c"	KBIE = 1;
                                           	BSET	_INTEbits,4
                                           ;	.line	662; "MC32F7361.c"	LVDEN = 0; // LVD
                                           	BCLR	_LVDCRbits,7
                                           ;	.line	663; "MC32F7361.c"	HFEN = 0;  // 
                                           	BCLR	_OSCMRbits,0
                                           ;	.line	664; "MC32F7361.c"	LFEN = 0;  // 
                                           	BCLR	_OSCMRbits,1
                                           ;	.line	666; "MC32F7361.c"	Nop();
                                           	nop	
                                           ;	.line	667; "MC32F7361.c"	Nop();
                                           	nop	
                                           ;	.line	668; "MC32F7361.c"	Stop();
                                           	stop	
                                           ;	.line	669; "MC32F7361.c"	Nop();
                                           	nop	
                                           ;	.line	670; "MC32F7361.c"	Nop();
                                           	nop	
                                           ;	.line	671; "MC32F7361.c"	HFEN = 1; // 
                                           	BSET	_OSCMRbits,0
                                           ;	.line	672; "MC32F7361.c"	LVDEN = 1;
                                           	BSET	_LVDCRbits,7
                                           ;	.line	676; "MC32F7361.c"	P04KE = 0;
                                           	BCLR	_P0KBCRbits,4
                                           ;	.line	678; "MC32F7361.c"	P13KE = 0; // 
                                           	BCLR	_P1KBCRbits,3
                                           ;	.line	679; "MC32F7361.c"	KBIE = 0;
                                           	BCLR	_INTEbits,4
                                           ;	.line	680; "MC32F7361.c"	KBIF = 0;
                                           	BCLR	_INTFbits,4
                                           ;	.line	683; "MC32F7361.c"	if (CHARGE_PIN || 0 == P13D)
                                           	JBCLR	_IOP0bits,4
                                           	GOTO	_00424_DS_
                                           	JBCLR	_IOP1bits,3
                                           	GOTO	_00412_DS_
                                           _00424_DS_
                                           ;	.line	695; "MC32F7361.c"	GIE = 1;
                                           	BSET	_MCRbits,7
                                           ;	.line	696; "MC32F7361.c"	Sys_Init();
                                           	CALL	_Sys_Init
                                           ;	.line	697; "MC32F7361.c"	delay_ms(1);
                                           	MOVAI	0x01
                                           	MOVRA	STK00
                                           	MOVAI	0x00
                                           	CALL	_delay_ms
                                           ;	.line	699; "MC32F7361.c"	if (CHARGE_PIN)
                                           	JBSET	_IOP0bits,4
                                           	GOTO	_00431_DS_
                                           ;	.line	701; "MC32F7361.c"	cur_dev_status = CUR_STATUS_BE_CHARGING; // 
                                           	MOVAI	0x01
                                           	MOVRA	_cur_dev_status
                                           _00431_DS_
                                           ;	.line	704; "MC32F7361.c"	}
                                           	RETURN	
                                           ; exit point of _low_power_scan_handle
                                           
                                           ;***
                                           ;  pBlock Stats: dbName = C
                                           ;***
                                           ;entry:  _stop_charging_the_host	;Function start
                                           ; 2 exit points
                                           ;has an exit
                                           ;; Starting pCode block
                                           _stop_charging_the_host	;Function start
                                           ; 2 exit points
                                           ;	.line	612; "MC32F7361.c"	LED_GREEN_OFF();
                                           	BCLR	_IOP0bits,0
                                           ;	.line	613; "MC32F7361.c"	PWM_DISABLE(); // pwm
                                           	BCLR	_T0CRbits,6
                                           	BCLR	_T0CRbits,7
                                           ;	.line	614; "MC32F7361.c"	}
                                           	RETURN	
                                           ; exit point of _stop_charging_the_host
                                           
                                           ;***
                                           ;  pBlock Stats: dbName = C
                                           ;***
                                           ;entry:  _is_detect_load	;Function start
                                           ; 2 exit points
                                           ;has an exit
                                           ;functions called:
                                           ;   _adc_sel_channel
                                           ;   _adc_get_val
                                           ;   _delay_ms
                                           ;   _adc_sel_channel
                                           ;   _adc_get_val
                                           ;   _delay_ms
                                           ;10 compiler assigned registers:
                                           ;   r0x102B
                                           ;   STK00
                                           ;   r0x102C
                                           ;   r0x102D
                                           ;   r0x102E
                                           ;   r0x102F
                                           ;   r0x1030
                                           ;   r0x1031
                                           ;   r0x1032
                                           ;   r0x1033
                                           ;; Starting pCode block
                                           _is_detect_load	;Function start
                                           ; 2 exit points
                                           ;	.line	498; "MC32F7361.c"	u8 ret = 2; // 
                                           	MOVAI	0x02
                                           	MOVRA	r0x102B
                                           ;	.line	507; "MC32F7361.c"	if (0 == flag_is_enable_detect_load)
                                           	JBCLR	_flag1,3
                                           	GOTO	_00309_DS_
                                           ;	.line	511; "MC32F7361.c"	detect_load_cnt = 0;
                                           	CLRR	_detect_load_cnt
                                           	CLRR	(_detect_load_cnt + 1)
                                           	CLRR	(_detect_load_cnt + 2)
                                           	CLRR	(_detect_load_cnt + 3)
                                           ;	.line	512; "MC32F7361.c"	undetect_load_cnt = 0;
                                           	CLRR	_undetect_load_cnt
                                           	CLRR	(_undetect_load_cnt + 1)
                                           	CLRR	(_undetect_load_cnt + 2)
                                           	CLRR	(_undetect_load_cnt + 3)
                                           ;	.line	513; "MC32F7361.c"	flag_tim_set_scan_time_is_arrive = 0;
                                           	BCLR	_flag1,4
                                           ;	.line	514; "MC32F7361.c"	flag_is_enable_detect_load = 1; // 
                                           	BSET	_flag1,3
                                           _00309_DS_
                                           ;	.line	517; "MC32F7361.c"	adc_sel_channel(ADC_CHANNEL_LOAD);
                                           	MOVAI	0x02
                                           	CALL	_adc_sel_channel
                                           ;	.line	518; "MC32F7361.c"	adc_val = adc_get_val();
                                           	CALL	_adc_get_val
                                           	MOVRA	(_adc_val + 1)
                                           	MOVAR	STK00
                                           	MOVRA	_adc_val
                                           ;	.line	524; "MC32F7361.c"	(cur_dev_status == CUR_STATUS_BE_CHARGING && 114 == T0LOAD && adc_val < DETECT_LOAD_ADC_VAL_WHEN_BE_CHARGING) || /* 282KHzPWM */
                                           	MOVAR	_cur_dev_status
                                           	XORAI	0x01
                                           	JBSET	PFLAG,2
                                           	GOTO	_00326_DS_
                                           	MOVAR	_T0LOAD
                                           	XORAI	0x72
                                           	JBSET	PFLAG,2
                                           	GOTO	_00326_DS_
                                           ;;unsigned compare: left < lit(0xDD9=3545), size=2
                                           	MOVAI	0x0d
                                           	RSUBAR	(_adc_val + 1)
                                           	JBSET	PFLAG,2
                                           	GOTO	_00394_DS_
                                           	MOVAI	0xd9
                                           	RSUBAR	_adc_val
                                           _00394_DS_
                                           	JBSET	PFLAG,0
                                           	GOTO	_00319_DS_
                                           ;;genSkipc:3291: created from rifx:013B5EFC
                                           _00326_DS_
                                           ;	.line	525; "MC32F7361.c"	(cur_dev_status == CUR_STATUS_BE_CHARGING && 114 != T0LOAD && adc_val < 3725) ||                                 /* 326KHzPWM */
                                           	MOVAR	_cur_dev_status
                                           	XORAI	0x01
                                           	JBSET	PFLAG,2
                                           	GOTO	_00328_DS_
                                           	MOVAR	_T0LOAD
                                           	XORAI	0x72
                                           	JBSET	PFLAG,2
                                           	GOTO	_00395_DS_
                                           	GOTO	_00328_DS_
                                           ;;unsigned compare: left < lit(0xE8D=3725), size=2
                                           _00395_DS_
                                           	MOVAI	0x0e
                                           	RSUBAR	(_adc_val + 1)
                                           	JBSET	PFLAG,2
                                           	GOTO	_00396_DS_
                                           	MOVAI	0x8d
                                           	RSUBAR	_adc_val
                                           _00396_DS_
                                           	JBSET	PFLAG,0
                                           	GOTO	_00319_DS_
                                           ;;genSkipc:3291: created from rifx:013B5EFC
                                           _00328_DS_
                                           ;	.line	528; "MC32F7361.c"	(cur_dev_status == CUR_STATUS_IN_CHARGING && adc_val < 3882) /* 326KHzPWM */
                                           	MOVAR	_cur_dev_status
                                           	XORAI	0x02
                                           	JBSET	PFLAG,2
                                           	GOTO	_00320_DS_
                                           ;;unsigned compare: left < lit(0xF2A=3882), size=2
                                           	MOVAI	0x0f
                                           	RSUBAR	(_adc_val + 1)
                                           	JBSET	PFLAG,2
                                           	GOTO	_00397_DS_
                                           	MOVAI	0x2a
                                           	RSUBAR	_adc_val
                                           _00397_DS_
                                           	JBCLR	PFLAG,0
                                           	GOTO	_00320_DS_
                                           ;;genSkipc:3291: created from rifx:013B5EFC
                                           _00319_DS_
                                           ;	.line	531; "MC32F7361.c"	detect_load_cnt++;
                                           	INCR	_detect_load_cnt
                                           	JBCLR	PFLAG,2
                                           	INCR	(_detect_load_cnt + 1)
                                           	JBCLR	PFLAG,2
                                           	INCR	(_detect_load_cnt + 2)
                                           	JBCLR	PFLAG,2
                                           	INCR	(_detect_load_cnt + 3)
                                           	GOTO	_00321_DS_
                                           _00320_DS_
                                           ;	.line	542; "MC32F7361.c"	(cur_dev_status == CUR_STATUS_BE_CHARGING && 114 == T0LOAD && adc_val > UNDETECT_LOAD_ADC_VAL_WHEN_BE_CHARGING) || /* 282KHzPWM */
                                           	MOVAR	_cur_dev_status
                                           	XORAI	0x01
                                           	JBSET	PFLAG,2
                                           	GOTO	_00316_DS_
                                           	MOVAR	_T0LOAD
                                           	XORAI	0x72
                                           	JBSET	PFLAG,2
                                           	GOTO	_00316_DS_
                                           ;;swapping arguments (AOP_TYPEs 1/3)
                                           ;;unsigned compare: left >= lit(0xEBE=3774), size=2
                                           	MOVAI	0x0e
                                           	RSUBAR	(_adc_val + 1)
                                           	JBSET	PFLAG,2
                                           	GOTO	_00398_DS_
                                           	MOVAI	0xbe
                                           	RSUBAR	_adc_val
                                           _00398_DS_
                                           	JBCLR	PFLAG,0
                                           	GOTO	_00310_DS_
                                           ;;genSkipc:3291: created from rifx:013B5EFC
                                           _00316_DS_
                                           ;	.line	543; "MC32F7361.c"	(cur_dev_status == CUR_STATUS_BE_CHARGING && 114 != T0LOAD && adc_val > 3910) ||                                   /* 326KHzPWM */
                                           	MOVAR	_cur_dev_status
                                           	XORAI	0x01
                                           	JBSET	PFLAG,2
                                           	GOTO	_00318_DS_
                                           	MOVAR	_T0LOAD
                                           	XORAI	0x72
                                           	JBSET	PFLAG,2
                                           	GOTO	_00399_DS_
                                           	GOTO	_00318_DS_
                                           ;;swapping arguments (AOP_TYPEs 1/3)
                                           ;;unsigned compare: left >= lit(0xF47=3911), size=2
                                           _00399_DS_
                                           	MOVAI	0x0f
                                           	RSUBAR	(_adc_val + 1)
                                           	JBSET	PFLAG,2
                                           	GOTO	_00400_DS_
                                           	MOVAI	0x47
                                           	RSUBAR	_adc_val
                                           _00400_DS_
                                           	JBCLR	PFLAG,0
                                           	GOTO	_00310_DS_
                                           ;;genSkipc:3291: created from rifx:013B5EFC
                                           _00318_DS_
                                           ;	.line	546; "MC32F7361.c"	(cur_dev_status == CUR_STATUS_IN_CHARGING && adc_val > 3983) /* 326KHzPWM */
                                           	MOVAR	_cur_dev_status
                                           	XORAI	0x02
                                           	JBSET	PFLAG,2
                                           	GOTO	_00321_DS_
                                           ;;swapping arguments (AOP_TYPEs 1/3)
                                           ;;unsigned compare: left >= lit(0xF90=3984), size=2
                                           	MOVAI	0x0f
                                           	RSUBAR	(_adc_val + 1)
                                           	JBSET	PFLAG,2
                                           	GOTO	_00401_DS_
                                           	MOVAI	0x90
                                           	RSUBAR	_adc_val
                                           _00401_DS_
                                           	JBSET	PFLAG,0
                                           	GOTO	_00321_DS_
                                           ;;genSkipc:3291: created from rifx:013B5EFC
                                           _00310_DS_
                                           ;	.line	549; "MC32F7361.c"	undetect_load_cnt++;
                                           	INCR	_undetect_load_cnt
                                           	JBCLR	PFLAG,2
                                           	INCR	(_undetect_load_cnt + 1)
                                           	JBCLR	PFLAG,2
                                           	INCR	(_undetect_load_cnt + 2)
                                           	JBCLR	PFLAG,2
                                           	INCR	(_undetect_load_cnt + 3)
                                           _00321_DS_
                                           ;	.line	571; "MC32F7361.c"	if (flag_tim_set_scan_time_is_arrive)
                                           	JBSET	_flag1,4
                                           	GOTO	_00335_DS_
                                           ;	.line	573; "MC32F7361.c"	flag_tim_set_scan_time_is_arrive = 0;
                                           	BCLR	_flag1,4
                                           ;	.line	574; "MC32F7361.c"	flag_is_enable_detect_load = 0; // 
                                           	BCLR	_flag1,3
                                           ;	.line	575; "MC32F7361.c"	delay_ms(1);
                                           	MOVAI	0x01
                                           	MOVRA	STK00
                                           	MOVAI	0x00
                                           	CALL	_delay_ms
                                           ;	.line	577; "MC32F7361.c"	if (detect_load_cnt > undetect_load_cnt)
                                           	MOVAR	(_detect_load_cnt + 3)
                                           	RSUBAR	(_undetect_load_cnt + 3)
                                           	JBSET	PFLAG,2
                                           	GOTO	_00402_DS_
                                           	MOVAR	(_detect_load_cnt + 2)
                                           	RSUBAR	(_undetect_load_cnt + 2)
                                           	JBSET	PFLAG,2
                                           	GOTO	_00402_DS_
                                           	MOVAR	(_detect_load_cnt + 1)
                                           	RSUBAR	(_undetect_load_cnt + 1)
                                           	JBSET	PFLAG,2
                                           	GOTO	_00402_DS_
                                           	MOVAR	_detect_load_cnt
                                           	RSUBAR	_undetect_load_cnt
                                           _00402_DS_
                                           	JBCLR	PFLAG,0
                                           	GOTO	_00332_DS_
                                           ;;genSkipc:3291: created from rifx:013B5EFC
                                           ;	.line	580; "MC32F7361.c"	if ((detect_load_cnt - undetect_load_cnt) > (undetect_load_cnt / 2))
                                           	MOVAR	_undetect_load_cnt
                                           	RSUBAR	_detect_load_cnt
                                           	MOVRA	r0x102C
                                           	MOVAR	(_detect_load_cnt + 1)
                                           	MOVRA	r0x102D
                                           	MOVAR	(_undetect_load_cnt + 1)
                                           	JBSET	PFLAG,0
                                           	JZAR	(_undetect_load_cnt + 1)
                                           	RSUBRA	r0x102D
                                           	MOVAR	(_detect_load_cnt + 2)
                                           	MOVRA	r0x102E
                                           	MOVAR	(_undetect_load_cnt + 2)
                                           	JBSET	PFLAG,0
                                           	JZAR	(_undetect_load_cnt + 2)
                                           	RSUBRA	r0x102E
                                           	MOVAR	(_undetect_load_cnt + 3)
                                           	JBSET	PFLAG,0
                                           	INCAR	(_undetect_load_cnt + 3)
                                           	RSUBAR	(_detect_load_cnt + 3)
                                           	MOVRA	r0x102F
                                           ;;shiftRight_Left2ResultLit:5339: shCount=1, size=4, sign=0, same=0, offr=0
                                           	BCLR	PFLAG,0
                                           	RRAR	(_undetect_load_cnt + 3)
                                           	MOVRA	r0x1030
                                           	RRAR	(_undetect_load_cnt + 2)
                                           	MOVRA	r0x1031
                                           	RRAR	(_undetect_load_cnt + 1)
                                           	MOVRA	r0x1032
                                           	RRAR	_undetect_load_cnt
                                           	MOVRA	r0x1033
                                           	MOVAR	r0x102F
                                           	RSUBAR	r0x1030
                                           	JBSET	PFLAG,2
                                           	GOTO	_00403_DS_
                                           	MOVAR	r0x102E
                                           	RSUBAR	r0x1031
                                           	JBSET	PFLAG,2
                                           	GOTO	_00403_DS_
                                           	MOVAR	r0x102D
                                           	RSUBAR	r0x1032
                                           	JBSET	PFLAG,2
                                           	GOTO	_00403_DS_
                                           	MOVAR	r0x102C
                                           	RSUBAR	r0x1033
                                           _00403_DS_
                                           	JBCLR	PFLAG,0
                                           	GOTO	_00333_DS_
                                           ;;genSkipc:3291: created from rifx:013B5EFC
                                           ;	.line	583; "MC32F7361.c"	ret = 1;
                                           	MOVAI	0x01
                                           	MOVRA	r0x102B
                                           	GOTO	_00333_DS_
                                           _00332_DS_
                                           ;	.line	596; "MC32F7361.c"	ret = 0;
                                           	CLRR	r0x102B
                                           _00333_DS_
                                           ;	.line	599; "MC32F7361.c"	detect_load_cnt = 0;
                                           	CLRR	_detect_load_cnt
                                           	CLRR	(_detect_load_cnt + 1)
                                           	CLRR	(_detect_load_cnt + 2)
                                           	CLRR	(_detect_load_cnt + 3)
                                           ;	.line	600; "MC32F7361.c"	undetect_load_cnt = 0;
                                           	CLRR	_undetect_load_cnt
                                           	CLRR	(_undetect_load_cnt + 1)
                                           	CLRR	(_undetect_load_cnt + 2)
                                           	CLRR	(_undetect_load_cnt + 3)
                                           _00335_DS_
                                           ;	.line	606; "MC32F7361.c"	return ret;
                                           	MOVAR	r0x102B
                                           ;	.line	607; "MC32F7361.c"	}
                                           	RETURN	
                                           ; exit point of _is_detect_load
                                           
                                           ;***
                                           ;  pBlock Stats: dbName = C
                                           ;***
                                           ;entry:  _is_open_lid	;Function start
                                           ; 2 exit points
                                           ;has an exit
                                           ;functions called:
                                           ;   _delay_ms
                                           ;   _delay_ms
                                           ;   _delay_ms
                                           ;   _delay_ms
                                           ;4 compiler assigned registers:
                                           ;   r0x1022
                                           ;   r0x1023
                                           ;   r0x1024
                                           ;   STK00
                                           ;; Starting pCode block
                                           _is_open_lid	;Function start
                                           ; 2 exit points
                                           ;	.line	437; "MC32F7361.c"	if (P13D)
                                           	JBSET	_IOP1bits,3
                                           	GOTO	_00272_DS_
                                           ;	.line	439; "MC32F7361.c"	ret = 1;
                                           	MOVAI	0x01
                                           	MOVRA	r0x1022
                                           	GOTO	_00273_DS_
                                           _00272_DS_
                                           ;	.line	443; "MC32F7361.c"	ret = 0;
                                           	CLRR	r0x1022
                                           _00273_DS_
                                           ;	.line	447; "MC32F7361.c"	if (ret == last_status)
                                           	MOVAR	_is_open_lid_last_status_65536_47
                                           	XORAR	r0x1022
                                           	JBSET	PFLAG,2
                                           	GOTO	_00275_DS_
                                           ;	.line	449; "MC32F7361.c"	return ret;
                                           	MOVAR	r0x1022
                                           	GOTO	_00293_DS_
                                           _00275_DS_
                                           ;	.line	452; "MC32F7361.c"	if (P13D) // 
                                           	JBSET	_IOP1bits,3
                                           	GOTO	_00303_DS_
                                           ;	.line	455; "MC32F7361.c"	for (i = 0; i < 200; i++)
                                           	CLRR	r0x1023
                                           	CLRR	r0x1024
                                           _00289_DS_
                                           ;	.line	457; "MC32F7361.c"	if (P13D)
                                           	JBSET	_IOP1bits,3
                                           	GOTO	_00277_DS_
                                           ;	.line	459; "MC32F7361.c"	cnt++;
                                           	INCR	r0x1023
                                           _00277_DS_
                                           ;	.line	462; "MC32F7361.c"	delay_ms(1);
                                           	MOVAI	0x01
                                           	MOVRA	STK00
                                           	MOVAI	0x00
                                           	CALL	_delay_ms
                                           ;	.line	455; "MC32F7361.c"	for (i = 0; i < 200; i++)
                                           	INCR	r0x1024
                                           ;;unsigned compare: left < lit(0xC8=200), size=1
                                           	MOVAI	0xc8
                                           	RSUBAR	r0x1024
                                           	JBSET	PFLAG,0
                                           	GOTO	_00289_DS_
                                           ;;genSkipc:3291: created from rifx:013B5EFC
                                           ;;unsigned compare: left < lit(0xC8=200), size=1
                                           ;	.line	465; "MC32F7361.c"	if (cnt >= 200)
                                           	MOVAI	0xc8
                                           	RSUBAR	r0x1023
                                           	JBSET	PFLAG,0
                                           	GOTO	_00288_DS_
                                           ;;genSkipc:3291: created from rifx:013B5EFC
                                           ;	.line	467; "MC32F7361.c"	ret = 1;
                                           	MOVAI	0x01
                                           	MOVRA	r0x1022
                                           	GOTO	_00288_DS_
                                           _00303_DS_
                                           ;	.line	473; "MC32F7361.c"	for (i = 0; i < 200; i++)
                                           	CLRR	r0x1023
                                           	CLRR	r0x1024
                                           _00291_DS_
                                           ;	.line	475; "MC32F7361.c"	if (0 == P13D)
                                           	JBCLR	_IOP1bits,3
                                           	GOTO	_00282_DS_
                                           ;	.line	477; "MC32F7361.c"	cnt++;
                                           	INCR	r0x1023
                                           _00282_DS_
                                           ;	.line	480; "MC32F7361.c"	delay_ms(1);
                                           	MOVAI	0x01
                                           	MOVRA	STK00
                                           	MOVAI	0x00
                                           	CALL	_delay_ms
                                           ;	.line	473; "MC32F7361.c"	for (i = 0; i < 200; i++)
                                           	INCR	r0x1024
                                           ;;unsigned compare: left < lit(0xC8=200), size=1
                                           	MOVAI	0xc8
                                           	RSUBAR	r0x1024
                                           	JBSET	PFLAG,0
                                           	GOTO	_00291_DS_
                                           ;;genSkipc:3291: created from rifx:013B5EFC
                                           ;;unsigned compare: left < lit(0xC8=200), size=1
                                           ;	.line	483; "MC32F7361.c"	if (cnt >= 200)
                                           	MOVAI	0xc8
                                           	RSUBAR	r0x1023
                                           	JBSET	PFLAG,0
                                           	GOTO	_00288_DS_
                                           ;;genSkipc:3291: created from rifx:013B5EFC
                                           ;	.line	485; "MC32F7361.c"	ret = 0;
                                           	CLRR	r0x1022
                                           _00288_DS_
                                           ;	.line	489; "MC32F7361.c"	last_status = ret;
                                           	MOVAR	r0x1022
                                           	MOVRA	_is_open_lid_last_status_65536_47
                                           ;	.line	491; "MC32F7361.c"	return ret;
                                           	MOVAR	r0x1022
                                           _00293_DS_
                                           ;	.line	492; "MC32F7361.c"	}
                                           	RETURN	
                                           ; exit point of _is_open_lid
                                           
                                           ;***
                                           ;  pBlock Stats: dbName = C
                                           ;***
                                           ;entry:  _is_in_charging	;Function start
                                           ; 2 exit points
                                           ;has an exit
                                           ;functions called:
                                           ;   _delay_ms
                                           ;   _delay_ms
                                           ;   _delay_ms
                                           ;   _delay_ms
                                           ;4 compiler assigned registers:
                                           ;   r0x1022
                                           ;   r0x1023
                                           ;   r0x1024
                                           ;   STK00
                                           ;; Starting pCode block
                                           _is_in_charging	;Function start
                                           ; 2 exit points
                                           ;	.line	373; "MC32F7361.c"	if (CHARGE_PIN)
                                           	JBSET	_IOP0bits,4
                                           	GOTO	_00235_DS_
                                           ;	.line	375; "MC32F7361.c"	ret = 1;
                                           	MOVAI	0x01
                                           	MOVRA	r0x1022
                                           	GOTO	_00236_DS_
                                           _00235_DS_
                                           ;	.line	379; "MC32F7361.c"	ret = 0;
                                           	CLRR	r0x1022
                                           _00236_DS_
                                           ;	.line	382; "MC32F7361.c"	if (ret == last_status)
                                           	MOVAR	_is_in_charging_last_status_65536_32
                                           	XORAR	r0x1022
                                           	JBSET	PFLAG,2
                                           	GOTO	_00238_DS_
                                           ;	.line	384; "MC32F7361.c"	return ret;
                                           	MOVAR	r0x1022
                                           	GOTO	_00256_DS_
                                           _00238_DS_
                                           ;	.line	387; "MC32F7361.c"	if (CHARGE_PIN)
                                           	JBSET	_IOP0bits,4
                                           	GOTO	_00266_DS_
                                           ;	.line	390; "MC32F7361.c"	for (i = 0; i < 200; i++)
                                           	CLRR	r0x1023
                                           	CLRR	r0x1024
                                           _00252_DS_
                                           ;	.line	392; "MC32F7361.c"	if (CHARGE_PIN)
                                           	JBSET	_IOP0bits,4
                                           	GOTO	_00240_DS_
                                           ;	.line	394; "MC32F7361.c"	cnt++;
                                           	INCR	r0x1023
                                           _00240_DS_
                                           ;	.line	397; "MC32F7361.c"	delay_ms(1);
                                           	MOVAI	0x01
                                           	MOVRA	STK00
                                           	MOVAI	0x00
                                           	CALL	_delay_ms
                                           ;	.line	390; "MC32F7361.c"	for (i = 0; i < 200; i++)
                                           	INCR	r0x1024
                                           ;;unsigned compare: left < lit(0xC8=200), size=1
                                           	MOVAI	0xc8
                                           	RSUBAR	r0x1024
                                           	JBSET	PFLAG,0
                                           	GOTO	_00252_DS_
                                           ;;genSkipc:3291: created from rifx:013B5EFC
                                           ;;unsigned compare: left < lit(0xB4=180), size=1
                                           ;	.line	400; "MC32F7361.c"	if (cnt >= 180)
                                           	MOVAI	0xb4
                                           	RSUBAR	r0x1023
                                           	JBSET	PFLAG,0
                                           	GOTO	_00251_DS_
                                           ;;genSkipc:3291: created from rifx:013B5EFC
                                           ;	.line	403; "MC32F7361.c"	ret = 1;
                                           	MOVAI	0x01
                                           	MOVRA	r0x1022
                                           	GOTO	_00251_DS_
                                           _00266_DS_
                                           ;	.line	409; "MC32F7361.c"	for (i = 0; i < 200; i++)
                                           	CLRR	r0x1023
                                           	CLRR	r0x1024
                                           _00254_DS_
                                           ;	.line	411; "MC32F7361.c"	if (0 == CHARGE_PIN)
                                           	JBCLR	_IOP0bits,4
                                           	GOTO	_00245_DS_
                                           ;	.line	413; "MC32F7361.c"	cnt++;
                                           	INCR	r0x1023
                                           _00245_DS_
                                           ;	.line	416; "MC32F7361.c"	delay_ms(1);
                                           	MOVAI	0x01
                                           	MOVRA	STK00
                                           	MOVAI	0x00
                                           	CALL	_delay_ms
                                           ;	.line	409; "MC32F7361.c"	for (i = 0; i < 200; i++)
                                           	INCR	r0x1024
                                           ;;unsigned compare: left < lit(0xC8=200), size=1
                                           	MOVAI	0xc8
                                           	RSUBAR	r0x1024
                                           	JBSET	PFLAG,0
                                           	GOTO	_00254_DS_
                                           ;;genSkipc:3291: created from rifx:013B5EFC
                                           ;;unsigned compare: left < lit(0xB4=180), size=1
                                           ;	.line	419; "MC32F7361.c"	if (cnt >= 180)
                                           	MOVAI	0xb4
                                           	RSUBAR	r0x1023
                                           	JBSET	PFLAG,0
                                           	GOTO	_00251_DS_
                                           ;;genSkipc:3291: created from rifx:013B5EFC
                                           ;	.line	422; "MC32F7361.c"	ret = 0;
                                           	CLRR	r0x1022
                                           _00251_DS_
                                           ;	.line	426; "MC32F7361.c"	last_status = ret;
                                           	MOVAR	r0x1022
                                           	MOVRA	_is_in_charging_last_status_65536_32
                                           ;	.line	428; "MC32F7361.c"	return ret;
                                           	MOVAR	r0x1022
                                           _00256_DS_
                                           ;	.line	429; "MC32F7361.c"	}
                                           	RETURN	
                                           ; exit point of _is_in_charging
                                           
                                           ;***
                                           ;  pBlock Stats: dbName = C
                                           ;***
                                           ;entry:  _Sys_Init	;Function start
                                           ; 2 exit points
                                           ;has an exit
                                           ;functions called:
                                           ;   _CLR_RAM
                                           ;   _IO_Init
                                           ;   _timer0_pwm_config
                                           ;   _timer3_config
                                           ;   _adc_config
                                           ;   _CLR_RAM
                                           ;   _IO_Init
                                           ;   _timer0_pwm_config
                                           ;   _timer3_config
                                           ;   _adc_config
                                           ;; Starting pCode block
                                           _Sys_Init	;Function start
                                           ; 2 exit points
                                           ;	.line	339; "MC32F7361.c"	GIE = 0;
                                           	BCLR	_MCRbits,7
                                           ;	.line	340; "MC32F7361.c"	CLR_RAM();
                                           	CALL	_CLR_RAM
                                           ;	.line	341; "MC32F7361.c"	IO_Init();
                                           	CALL	_IO_Init
                                           ;	.line	343; "MC32F7361.c"	timer0_pwm_config();
                                           	CALL	_timer0_pwm_config
                                           ;	.line	344; "MC32F7361.c"	timer3_config();
                                           	CALL	_timer3_config
                                           ;	.line	345; "MC32F7361.c"	adc_config();
                                           	CALL	_adc_config
                                           ;	.line	354; "MC32F7361.c"	P04OE = 0; // 
                                           	BCLR	_OEP0bits,4
                                           ;	.line	358; "MC32F7361.c"	P13PU = 0; //   --  
                                           	BCLR	_PUP1bits,3
                                           ;	.line	359; "MC32F7361.c"	P13OE = 0; // 
                                           	BCLR	_OEP1bits,3
                                           ;	.line	362; "MC32F7361.c"	GIE = 1;
                                           	BSET	_MCRbits,7
                                           ;	.line	363; "MC32F7361.c"	}
                                           	RETURN	
                                           ; exit point of _Sys_Init
                                           
                                           ;***
                                           ;  pBlock Stats: dbName = C
                                           ;***
                                           ;entry:  _adc_get_val	;Function start
                                           ; 2 exit points
                                           ;has an exit
                                           ;16 compiler assigned registers:
                                           ;   r0x101C
                                           ;   r0x101D
                                           ;   r0x101E
                                           ;   r0x101F
                                           ;   r0x1020
                                           ;   r0x1021
                                           ;   r0x1022
                                           ;   r0x1023
                                           ;   r0x1024
                                           ;   r0x1025
                                           ;   r0x1026
                                           ;   r0x1027
                                           ;   r0x1028
                                           ;   r0x1029
                                           ;   r0x102A
                                           ;   STK00
                                           ;; Starting pCode block
                                           _adc_get_val	;Function start
                                           ; 2 exit points
                                           ;	.line	269; "MC32F7361.c"	u32 g_tmpbuff = 0;
                                           	CLRR	r0x101C
                                           	CLRR	r0x101D
                                           	CLRR	r0x101E
                                           	CLRR	r0x101F
                                           ;	.line	270; "MC32F7361.c"	u16 g_adcmax = 0;
                                           	CLRR	r0x1020
                                           	CLRR	r0x1021
                                           ;	.line	271; "MC32F7361.c"	u16 g_adcmin = 0xFFFF;
                                           	MOVAI	0xff
                                           	MOVRA	r0x1022
                                           	MOVRA	r0x1023
                                           ;	.line	274; "MC32F7361.c"	for (i = 0; i < 20; i++)
                                           	CLRR	r0x1024
                                           _00184_DS_
                                           ;	.line	276; "MC32F7361.c"	ADEOC = 0; // ADCAD
                                           	BCLR	_ADCR0bits,1
                                           _00173_DS_
                                           ;	.line	277; "MC32F7361.c"	while (!ADEOC)
                                           	JBSET	_ADCR0bits,1
                                           	GOTO	_00173_DS_
                                           ;	.line	279; "MC32F7361.c"	g_temp_value = ADRH; // 
                                           	MOVAR	_ADRH
                                           	MOVRA	r0x1025
                                           	CLRR	r0x1026
                                           ;	.line	280; "MC32F7361.c"	g_temp_value = g_temp_value << 4 | (ADRL & 0x0F);
                                           	SWAPAR	r0x1026
                                           	ANDAI	0xf0
                                           	MOVRA	r0x1027
                                           	SWAPAR	r0x1025
                                           	MOVRA	r0x1028
                                           	ANDAI	0x0f
                                           	ORRA	r0x1027
                                           	XORRA	r0x1028
                                           	MOVAR	_ADRL
                                           	MOVRA	r0x1025
                                           	CLRR	r0x1026
                                           	MOVAI	0x0f
                                           	ANDRA	r0x1025
                                           	CLRR	r0x1026
                                           ;;114	MOVAR	r0x1025
                                           	MOVAI	0x00
                                           	MOVRA	r0x102A
                                           ;;113	MOVAR	r0x1029
                                           	MOVAR	r0x1025
                                           	MOVRA	r0x1029
                                           	ORAR	r0x1028
                                           	MOVRA	r0x1025
                                           	MOVAR	r0x102A
                                           	ORAR	r0x1027
                                           	MOVRA	r0x1026
                                           ;;unsigned compare: left < lit(0x2=2), size=1
                                           ;	.line	281; "MC32F7361.c"	if (i < 2)
                                           	MOVAI	0x02
                                           	RSUBAR	r0x1024
                                           	JBSET	PFLAG,0
                                           	GOTO	_00182_DS_
                                           ;;genSkipc:3291: created from rifx:013B5EFC
                                           ;	.line	283; "MC32F7361.c"	if (g_temp_value > g_adcmax)
                                           	MOVAR	r0x1026
                                           	RSUBAR	r0x1021
                                           	JBSET	PFLAG,2
                                           	GOTO	_00224_DS_
                                           	MOVAR	r0x1025
                                           	RSUBAR	r0x1020
                                           _00224_DS_
                                           	JBCLR	PFLAG,0
                                           	GOTO	_00179_DS_
                                           ;;genSkipc:3291: created from rifx:013B5EFC
                                           ;	.line	284; "MC32F7361.c"	g_adcmax = g_temp_value; // 
                                           	MOVAR	r0x1025
                                           	MOVRA	r0x1020
                                           	MOVAR	r0x1026
                                           	MOVRA	r0x1021
                                           _00179_DS_
                                           ;	.line	285; "MC32F7361.c"	if (g_temp_value < g_adcmin)
                                           	MOVAR	r0x1023
                                           	RSUBAR	r0x1026
                                           	JBSET	PFLAG,2
                                           	GOTO	_00225_DS_
                                           	MOVAR	r0x1022
                                           	RSUBAR	r0x1025
                                           _00225_DS_
                                           	JBCLR	PFLAG,0
                                           	GOTO	_00181_DS_
                                           ;;genSkipc:3291: created from rifx:013B5EFC
                                           ;	.line	286; "MC32F7361.c"	g_adcmin = g_temp_value; // 
                                           	MOVAR	r0x1025
                                           	MOVRA	r0x1022
                                           	MOVAR	r0x1026
                                           	MOVRA	r0x1023
                                           ;;110	MOVAR	r0x1025
                                           ;;112	MOVAR	r0x1026
                                           _00181_DS_
                                           ;	.line	287; "MC32F7361.c"	g_tmpbuff += g_temp_value;
                                           	CLRR	r0x1029
                                           	CLRR	r0x102A
                                           ;;109	MOVAR	r0x1028
                                           	MOVAR	r0x1025
                                           	MOVRA	r0x1028
                                           	ADDRA	r0x101C
                                           ;;111	MOVAR	r0x1027
                                           	MOVAR	r0x1026
                                           	MOVRA	r0x1027
                                           	JBCLR	PFLAG,0
                                           	JZAR	r0x1027
                                           	ADDRA	r0x101D
                                           	MOVAR	r0x1029
                                           	JBCLR	PFLAG,0
                                           	JZAR	r0x1029
                                           	ADDRA	r0x101E
                                           	MOVAR	r0x102A
                                           	JBCLR	PFLAG,0
                                           	JZAR	r0x102A
                                           	ADDRA	r0x101F
                                           _00182_DS_
                                           ;	.line	274; "MC32F7361.c"	for (i = 0; i < 20; i++)
                                           	INCR	r0x1024
                                           ;;unsigned compare: left < lit(0x14=20), size=1
                                           	MOVAI	0x14
                                           	RSUBAR	r0x1024
                                           	JBSET	PFLAG,0
                                           	GOTO	_00184_DS_
                                           ;;genSkipc:3291: created from rifx:013B5EFC
                                           ;;108	MOVAR	r0x1020
                                           ;	.line	289; "MC32F7361.c"	g_tmpbuff -= g_adcmax;           // 
                                           	MOVAR	r0x1021
                                           	MOVRA	r0x1025
                                           	CLRR	r0x1026
                                           	CLRR	r0x1028
                                           ;;107	MOVAR	r0x1024
                                           	MOVAR	r0x1020
                                           	MOVRA	r0x1024
                                           	RSUBAR	r0x101C
                                           	MOVRA	r0x1020
                                           	MOVAR	r0x101D
                                           	MOVRA	r0x1021
                                           	MOVAR	r0x1025
                                           	JBSET	PFLAG,0
                                           	JZAR	r0x1025
                                           	RSUBRA	r0x1021
                                           	MOVAR	r0x101E
                                           	MOVRA	r0x1027
                                           	MOVAR	r0x1026
                                           	JBSET	PFLAG,0
                                           	JZAR	r0x1026
                                           	RSUBRA	r0x1027
                                           	MOVAR	r0x1028
                                           	JBSET	PFLAG,0
                                           	INCAR	r0x1028
                                           	RSUBAR	r0x101F
                                           	MOVRA	r0x1029
                                           ;;100	MOVAR	r0x1022
                                           ;;102	MOVAR	r0x1023
                                           ;	.line	290; "MC32F7361.c"	g_tmpbuff -= g_adcmin;           // 
                                           	CLRR	r0x101E
                                           	CLRR	r0x101F
                                           ;;99	MOVAR	r0x101C
                                           	MOVAR	r0x1022
                                           	MOVRA	r0x101C
                                           	RSUBRA	r0x1020
                                           ;;101	MOVAR	r0x101D
                                           	MOVAR	r0x1023
                                           	MOVRA	r0x101D
                                           	JBSET	PFLAG,0
                                           	JZAR	r0x101D
                                           	RSUBRA	r0x1021
                                           	MOVAR	r0x101E
                                           	JBSET	PFLAG,0
                                           	JZAR	r0x101E
                                           	RSUBRA	r0x1027
                                           	MOVAR	r0x101F
                                           	JBSET	PFLAG,0
                                           	JZAR	r0x101F
                                           	RSUBRA	r0x1029
                                           ;	.line	291; "MC32F7361.c"	g_temp_value = (g_tmpbuff >> 4); // 16
                                           	SWAPAR	r0x1020
                                           	ANDAI	0x0f
                                           	MOVRA	r0x101C
                                           	SWAPAR	r0x1021
                                           	MOVRA	r0x101D
                                           	ANDAI	0xf0
                                           	ORRA	r0x101C
                                           	XORRA	r0x101D
                                           	SWAPAR	r0x1027
                                           	MOVRA	r0x101E
                                           	ANDAI	0xf0
                                           	ORRA	r0x101D
                                           	XORRA	r0x101E
                                           	SWAPAR	r0x1029
                                           	MOVRA	r0x101F
                                           	ANDAI	0xf0
                                           	ORRA	r0x101E
                                           	XORRA	r0x101F
                                           ;;104	MOVAR	r0x101C
                                           ;;106	MOVAR	r0x101D
                                           ;;103	MOVAR	r0x1020
                                           ;	.line	293; "MC32F7361.c"	return g_temp_value;
                                           	MOVAR	r0x101C
                                           	MOVRA	r0x1020
                                           	MOVRA	STK00
                                           ;;105	MOVAR	r0x1021
                                           	MOVAR	r0x101D
                                           	MOVRA	r0x1021
                                           ;	.line	294; "MC32F7361.c"	}
                                           	RETURN	
                                           ; exit point of _adc_get_val
                                           
                                           ;***
                                           ;  pBlock Stats: dbName = C
                                           ;***
                                           ;entry:  _adc_sel_channel	;Function start
                                           ; 2 exit points
                                           ;has an exit
                                           ;functions called:
                                           ;   _delay_ms
                                           ;   _delay_ms
                                           ;2 compiler assigned registers:
                                           ;   r0x1022
                                           ;   STK00
                                           ;; Starting pCode block
                                           _adc_sel_channel	;Function start
                                           ; 2 exit points
                                           ;	.line	205; "MC32F7361.c"	void adc_sel_channel(u8 adc_channel)
                                           	MOVRA	r0x1022
                                           ;	.line	209; "MC32F7361.c"	if (last_adc_channel == adc_channel)
                                           	MOVAR	r0x1022
                                           	XORAR	_adc_sel_channel_last_adc_channel_65536_22
                                           	JBSET	PFLAG,2
                                           	GOTO	_00148_DS_
                                           ;	.line	211; "MC32F7361.c"	return;
                                           	GOTO	_00153_DS_
                                           _00148_DS_
                                           ;	.line	214; "MC32F7361.c"	last_adc_channel = adc_channel;
                                           	MOVAR	r0x1022
                                           	MOVRA	_adc_sel_channel_last_adc_channel_65536_22
                                           ;	.line	216; "MC32F7361.c"	switch (adc_channel)
                                           	MOVAR	r0x1022
                                           	XORAI	0x01
                                           	JBSET	PFLAG,2
                                           	GOTO	_00167_DS_
                                           	GOTO	_00149_DS_
                                           _00167_DS_
                                           	MOVAR	r0x1022
                                           	XORAI	0x02
                                           	JBSET	PFLAG,2
                                           	GOTO	_00168_DS_
                                           	GOTO	_00150_DS_
                                           _00168_DS_
                                           	GOTO	_00152_DS_
                                           _00149_DS_
                                           ;	.line	232; "MC32F7361.c"	ADCHS3 = 1;
                                           	BSET	_ADCR0bits,7
                                           ;	.line	233; "MC32F7361.c"	ADCHS2 = 0;
                                           	BCLR	_ADCR0bits,6
                                           ;	.line	234; "MC32F7361.c"	ADCHS1 = 1;
                                           	BSET	_ADCR0bits,5
                                           ;	.line	235; "MC32F7361.c"	ADCHS0 = 0;
                                           	BCLR	_ADCR0bits,4
                                           ;	.line	237; "MC32F7361.c"	ADCR1 = 0x80; // adc FHIRC/322.0V
                                           	MOVAI	0x80
                                           	MOVRA	_ADCR1
                                           ;	.line	238; "MC32F7361.c"	break;
                                           	GOTO	_00152_DS_
                                           _00150_DS_
                                           ;	.line	249; "MC32F7361.c"	ADCHS3 = 1;
                                           	BSET	_ADCR0bits,7
                                           ;	.line	250; "MC32F7361.c"	ADCHS2 = 0;
                                           	BCLR	_ADCR0bits,6
                                           ;	.line	251; "MC32F7361.c"	ADCHS1 = 0;
                                           	BCLR	_ADCR0bits,5
                                           ;	.line	252; "MC32F7361.c"	ADCHS0 = 1;
                                           	BSET	_ADCR0bits,4
                                           ;	.line	254; "MC32F7361.c"	ADCR1 = 0x83; // adc FHIRC/32VDD
                                           	MOVAI	0x83
                                           	MOVRA	_ADCR1
                                           _00152_DS_
                                           ;	.line	261; "MC32F7361.c"	delay_ms(1); // adc
                                           	MOVAI	0x01
                                           	MOVRA	STK00
                                           	MOVAI	0x00
                                           	CALL	_delay_ms
                                           _00153_DS_
                                           ;	.line	262; "MC32F7361.c"	}
                                           	RETURN	
                                           ; exit point of _adc_sel_channel
                                           
                                           ;***
                                           ;  pBlock Stats: dbName = C
                                           ;***
                                           ;entry:  _timer3_config	;Function start
                                           ; 2 exit points
                                           ;has an exit
                                           ;; Starting pCode block
                                           _timer3_config	;Function start
                                           ; 2 exit points
                                           ;	.line	200; "MC32F7361.c"	T3LOAD = 135 - 1; // FCPU 641ms
                                           	MOVAI	0x86
                                           	MOVRA	_T3LOAD
                                           ;	.line	201; "MC32F7361.c"	T3CR = 0x86;      // FCPU64
                                           	MOVAI	0x86
                                           	MOVRA	_T3CR
                                           ;	.line	202; "MC32F7361.c"	T3IE = 1;
                                           	BSET	_INTEbits,7
                                           ;	.line	203; "MC32F7361.c"	}
                                           	RETURN	
                                           ; exit point of _timer3_config
                                           
                                           ;***
                                           ;  pBlock Stats: dbName = C
                                           ;***
                                           ;entry:  _set_timer0_pwm_when_charging	;Function start
                                           ; 2 exit points
                                           ;has an exit
                                           ;functions called:
                                           ;   _delay_ms
                                           ;   _delay_ms
                                           ;1 compiler assigned register :
                                           ;   STK00
                                           ;; Starting pCode block
                                           _set_timer0_pwm_when_charging	;Function start
                                           ; 2 exit points
                                           ;	.line	171; "MC32F7361.c"	T0EN = 0;   // 
                                           	BCLR	_T0CRbits,7
                                           ;	.line	172; "MC32F7361.c"	PWM0EC = 0; // PWM0
                                           	BCLR	_T0CRbits,6
                                           ;	.line	179; "MC32F7361.c"	T0CR = 0x49; // PWM,FTMR,2 (0.03125us)
                                           	MOVAI	0x49
                                           	MOVRA	_T0CR
                                           ;	.line	184; "MC32F7361.c"	T0LOAD = 97; //  326K
                                           	MOVAI	0x61
                                           	MOVRA	_T0LOAD
                                           ;	.line	185; "MC32F7361.c"	T0DATA = 19;
                                           	MOVAI	0x13
                                           	MOVRA	_T0DATA
                                           ;	.line	192; "MC32F7361.c"	T0EN = 1;   // 
                                           	BSET	_T0CRbits,7
                                           ;	.line	193; "MC32F7361.c"	PWM0EC = 1; // PWM0
                                           	BSET	_T0CRbits,6
                                           ;	.line	194; "MC32F7361.c"	delay_ms(1);
                                           	MOVAI	0x01
                                           	MOVRA	STK00
                                           	MOVAI	0x00
                                           	CALL	_delay_ms
                                           ;	.line	195; "MC32F7361.c"	}
                                           	RETURN	
                                           ; exit point of _set_timer0_pwm_when_charging
                                           
                                           ;***
                                           ;  pBlock Stats: dbName = C
                                           ;***
                                           ;entry:  _set_timer0_pwm_when_detecting	;Function start
                                           ; 2 exit points
                                           ;has an exit
                                           ;functions called:
                                           ;   _delay_ms
                                           ;   _delay_ms
                                           ;1 compiler assigned register :
                                           ;   STK00
                                           ;; Starting pCode block
                                           _set_timer0_pwm_when_detecting	;Function start
                                           ; 2 exit points
                                           ;	.line	158; "MC32F7361.c"	T0EN = 0;     // 
                                           	BCLR	_T0CRbits,7
                                           ;	.line	159; "MC32F7361.c"	PWM0EC = 0;   // PWM0
                                           	BCLR	_T0CRbits,6
                                           ;	.line	160; "MC32F7361.c"	T0CR = 0x49;  // PWM,FTMR,2 (0.03125us)
                                           	MOVAI	0x49
                                           	MOVRA	_T0CR
                                           ;	.line	161; "MC32F7361.c"	T0LOAD = 114; // 282KHz
                                           	MOVAI	0x72
                                           	MOVRA	_T0LOAD
                                           ;	.line	163; "MC32F7361.c"	T0DATA = 35;
                                           	MOVAI	0x23
                                           	MOVRA	_T0DATA
                                           ;	.line	164; "MC32F7361.c"	T0EN = 1;   // 
                                           	BSET	_T0CRbits,7
                                           ;	.line	165; "MC32F7361.c"	PWM0EC = 1; // PWM0
                                           	BSET	_T0CRbits,6
                                           ;	.line	166; "MC32F7361.c"	delay_ms(1);
                                           	MOVAI	0x01
                                           	MOVRA	STK00
                                           	MOVAI	0x00
                                           	CALL	_delay_ms
                                           ;	.line	167; "MC32F7361.c"	}
                                           	RETURN	
                                           ; exit point of _set_timer0_pwm_when_detecting
                                           
                                           ;***
                                           ;  pBlock Stats: dbName = C
                                           ;***
                                           ;entry:  _timer0_pwm_config	;Function start
                                           ; 2 exit points
                                           ;has an exit
                                           ;; Starting pCode block
                                           _timer0_pwm_config	;Function start
                                           ; 2 exit points
                                           ;	.line	102; "MC32F7361.c"	T0CR = 0x49;  // PWM,FTMR,2 (0.03125us)
                                           	MOVAI	0x49
                                           	MOVRA	_T0CR
                                           ;	.line	103; "MC32F7361.c"	T0LOAD = 118; // 271KHz
                                           	MOVAI	0x76
                                           	MOVRA	_T0LOAD
                                           ;	.line	111; "MC32F7361.c"	T0DATA = 41;
                                           	MOVAI	0x29
                                           	MOVRA	_T0DATA
                                           ;	.line	147; "MC32F7361.c"	PWMCR0 = 0x00; // 
                                           	CLRR	_PWMCR0
                                           ;	.line	148; "MC32F7361.c"	PWMCR1 = 0x18; // FHOSC  2  
                                           	MOVAI	0x18
                                           	MOVRA	_PWMCR1
                                           ;	.line	152; "MC32F7361.c"	T0EN = 0;   // 
                                           	BCLR	_T0CRbits,7
                                           ;	.line	153; "MC32F7361.c"	PWM0EC = 0; // PWM0
                                           	BCLR	_T0CRbits,6
                                           ;	.line	154; "MC32F7361.c"	}
                                           	RETURN	
                                           ; exit point of _timer0_pwm_config
                                           
                                           ;***
                                           ;  pBlock Stats: dbName = C
                                           ;***
                                           ;entry:  _adc_config	;Function start
                                           ; 2 exit points
                                           ;has an exit
                                           ;; Starting pCode block
                                           _adc_config	;Function start
                                           ; 2 exit points
                                           ;	.line	76; "MC32F7361.c"	P15OE = 0; // 
                                           	BCLR	_OEP1bits,5
                                           ;	.line	77; "MC32F7361.c"	P15DC = 1; // 
                                           	BSET	_P1ADCRbits,5
                                           ;	.line	80; "MC32F7361.c"	ADCR0 = 0x0B; // 12adc
                                           	MOVAI	0x0b
                                           	MOVRA	_ADCR0
                                           ;	.line	81; "MC32F7361.c"	ADCR1 = 0x80; // adc FHIRC/322.0V
                                           	MOVAI	0x80
                                           	MOVRA	_ADCR1
                                           ;	.line	82; "MC32F7361.c"	ADCR2 = 0x0F; // 15  ADCLK
                                           	MOVAI	0x0f
                                           	MOVRA	_ADCR2
                                           ;	.line	83; "MC32F7361.c"	}
                                           	RETURN	
                                           ; exit point of _adc_config
                                           
                                           ;***
                                           ;  pBlock Stats: dbName = C
                                           ;***
                                           ;entry:  _IO_Init	;Function start
                                           ; 2 exit points
                                           ;has an exit
                                           ;; Starting pCode block
                                           _IO_Init	;Function start
                                           ; 2 exit points
                                           ;	.line	37; "MC32F7361.c"	IOP0 = 0x00;   // io
                                           	CLRR	_IOP0
                                           ;	.line	38; "MC32F7361.c"	OEP0 = 0x3F;   // io 1:out  0:in
                                           	MOVAI	0x3f
                                           	MOVRA	_OEP0
                                           ;	.line	39; "MC32F7361.c"	PUP0 = 0x00;   // io   1:enable  0:disable
                                           	CLRR	_PUP0
                                           ;	.line	40; "MC32F7361.c"	PDP0 = 0x00;   // io   1:enable  0:disable
                                           	CLRR	_PDP0
                                           ;	.line	41; "MC32F7361.c"	P0ADCR = 0x00; // io  1:  0:io
                                           	CLRR	_P0ADCR
                                           ;	.line	43; "MC32F7361.c"	IOP1 = 0x00;   // io
                                           	CLRR	_IOP1
                                           ;	.line	44; "MC32F7361.c"	OEP1 = 0xFF;   // io 1:out  0:in
                                           	MOVAI	0xff
                                           	MOVRA	_OEP1
                                           ;	.line	45; "MC32F7361.c"	PUP1 = 0x00;   // io   1:enable  0:disable
                                           	CLRR	_PUP1
                                           ;	.line	46; "MC32F7361.c"	PDP1 = 0x00;   // io   1:enable  0:disable
                                           	CLRR	_PDP1
                                           ;	.line	47; "MC32F7361.c"	P1ADCR = 0x00; // io  1:  0:io
                                           	CLRR	_P1ADCR
                                           ;	.line	49; "MC32F7361.c"	IOP2 = 0x00; // io
                                           	CLRR	_IOP2
                                           ;	.line	50; "MC32F7361.c"	OEP2 = 0x0F; // io 1:out  0:in
                                           	MOVAI	0x0f
                                           	MOVRA	_OEP2
                                           ;	.line	51; "MC32F7361.c"	PUP2 = 0x00; // io   1:enable  0:disable
                                           	CLRR	_PUP2
                                           ;	.line	52; "MC32F7361.c"	PDP2 = 0x00; // io   1:enable  0:disablea
                                           	CLRR	_PDP2
                                           ;	.line	54; "MC32F7361.c"	PMOD = 0x00;  // P00P01P13 io
                                           	CLRR	_PMOD
                                           ;	.line	55; "MC32F7361.c"	DRVCR = 0x80; // 
                                           	MOVAI	0x80
                                           	MOVRA	_DRVCR
                                           ;	.line	56; "MC32F7361.c"	}
                                           	RETURN	
                                           ; exit point of _IO_Init
                                           
                                           ;***
                                           ;  pBlock Stats: dbName = C
                                           ;***
                                           ;entry:  _CLR_RAM	;Function start
                                           ; 2 exit points
                                           ;has an exit
                                           ;; Starting pCode block
                                           _CLR_RAM	;Function start
                                           ; 2 exit points
                                           ;	.line	22; "MC32F7361.c"	for (FSR0 = 0; FSR0 < 0xff; FSR0++)
                                           	CLRR	_FSR0
                                           ;;unsigned compare: left < lit(0xFF=255), size=1
                                           _00118_DS_
                                           	MOVAI	0xff
                                           	RSUBAR	_FSR0
                                           	JBCLR	PFLAG,0
                                           	GOTO	_00116_DS_
                                           ;;genSkipc:3291: created from rifx:013B5EFC
                                           ;	.line	24; "MC32F7361.c"	INDF0 = 0x00;
                                           	CLRR	_INDF0
                                           ;	.line	22; "MC32F7361.c"	for (FSR0 = 0; FSR0 < 0xff; FSR0++)
                                           	INCR	_FSR0
                                           	GOTO	_00118_DS_
                                           _00116_DS_
                                           ;	.line	26; "MC32F7361.c"	FSR0 = 0xFF;
                                           	MOVAI	0xff
                                           	MOVRA	_FSR0
                                           ;	.line	27; "MC32F7361.c"	INDF0 = 0x00;
                                           	CLRR	_INDF0
                                           ;	.line	28; "MC32F7361.c"	}
                                           	RETURN	
                                           ; exit point of _CLR_RAM
                                           
                                           ;***
                                           ;  pBlock Stats: dbName = C
                                           ;***
                                           ;entry:  _delay_ms	;Function start
                                           ; 2 exit points
                                           ;has an exit
                                           ;7 compiler assigned registers:
                                           ;   r0x101C
                                           ;   STK00
                                           ;   r0x101D
                                           ;   r0x101E
                                           ;   r0x101F
                                           ;   r0x1020
                                           ;   r0x1021
                                           ;; Starting pCode block
                                           _delay_ms	;Function start
                                           ; 2 exit points
                                           ;	.line	221; "user.h"	void delay_ms(u16 xms)
                                           	MOVRA	r0x101C
                                           	MOVAR	STK00
                                           	MOVRA	r0x101D
                                           _00108_DS_
                                           ;	.line	223; "user.h"	while (xms)
                                           	MOVAR	r0x101D
                                           	ORAR	r0x101C
                                           	JBCLR	PFLAG,2
                                           	GOTO	_00111_DS_
                                           ;	.line	226; "user.h"	while (i--)
                                           	MOVAI	0x3c
                                           	MOVRA	r0x101E
                                           	MOVAI	0x02
                                           	MOVRA	r0x101F
                                           _00105_DS_
                                           	MOVAR	r0x101E
                                           	MOVRA	r0x1020
                                           	MOVAR	r0x101F
                                           	MOVRA	r0x1021
                                           	MOVAI	0xff
                                           	ADDRA	r0x101E
                                           	JBSET	PFLAG,0
                                           	DECR	r0x101F
                                           	MOVAR	r0x1020
                                           	ORAR	r0x1021
                                           	JBCLR	PFLAG,2
                                           	GOTO	_00107_DS_
                                           ;	.line	228; "user.h"	Nop();
                                           	nop	
                                           	GOTO	_00105_DS_
                                           _00107_DS_
                                           ;	.line	230; "user.h"	xms--; //  --while()
                                           	MOVAI	0xff
                                           	ADDRA	r0x101D
                                           	JBSET	PFLAG,0
                                           	DECR	r0x101C
                                           ;	.line	234; "user.h"	__endasm;
                                           	;
                                           	clrwdt;
                                           	
                                           	GOTO	_00108_DS_
                                           _00111_DS_
                                           ;	.line	236; "user.h"	}
                                           	RETURN	
                                           ; exit point of _delay_ms
                                           
                                           
                                           ;	code size estimation:
                                           ;	 1383+    0 =  1383 instructions ( 2766 byte)
                                           
                                           	end


MEMORY USAGE MAP ('X' = Used,  '-' = Unused)

0000 : XX-------------- XXXXXXXXXXXXXXXX XXXXXXXXXXXXXXXX XXXXXXXXXXXXXXXX
0040 : XXXXXXXXXXXXXXXX XXXXXXXXXXXXXXXX XXXXXXXXXXXXXXXX XXXXXXXXXXXXXXXX
0080 : XXXXXXXXXXXXXXXX XXXXXXXXXXXXXXXX XXXXXXXXXXXXXXXX XXXXXXXXXXXXXXXX
00C0 : XXXXXXXXXXXXXXXX XXXXXXXXXXXXXXXX XXXXXXXXXXXXXXXX XXXXXXXXXXXXXXXX
0100 : XXXXXXXXXXXXXXXX XXXXXXXXXXXXXXXX XXXXXXXXXXXXXXXX XXXXXXXXXXXXXXXX
0140 : XXXXXXXXXXXXXXXX XXXXXXXXXXXXXXXX XXXXXXXXXXXXXXXX XXXXXXXXXXXXXXXX
0180 : XXXXXXXXXXXXXXXX XXXXXXXXXXXXXXXX XXXXXXXXXXXXXXXX XXXXXXXXXXXXXXXX
01C0 : XXXXXXXXXXXXXXXX XXXXXXXXXXXXXXXX XXXXXXXXXXXXXXXX XXXXXXXXXXXXXXXX
0200 : XXXXXXXXXXXXXXXX XXXXXXXXXXXXXXXX XXXXXXXXXXXXXXXX XXXXXXXXXXXXXXXX
0240 : XXXXXXXXXXXXXXXX XXXXXXXXXXXXXXXX XXXXXXXXXXXXXXXX XXXXXXXXXXXXXXXX
0280 : XXXXXXXXXXXXXXXX XXXXXXXXXXXXXXXX XXXXXXXXXXXXXXXX XXXXXXXXXXXXXXXX
02C0 : XXXXXXXXXXXXXXXX XXXXXXXXXXXXXXXX XXXXXXXXXXXXXXXX XXXXXXXXXXXXXXXX
0300 : XXXXXXXXXXXXXXXX XXXXXXXXXXXXXXXX XXXXXXXXXXXXXXXX XXXXXXXXXXXXXXXX
0340 : XXXXXXXXXXXXXXXX XXXXXXXXXXXXXXXX XXXXXXXXXXXXXXXX XXXXXXXXXXXXXXXX
0380 : XXXXXXXXXXXXXXXX XXXXXXXXXXXXXXXX XXXXXXXXXXXXXXXX XXXXXXXXXXXXXXXX
03C0 : XXXXXXXXXXXXXXXX XXXXXXXXXXXXXXXX XXXXXXXXXXXXXXXX XXXXXXXXXXXXXXXX
0400 : XXXXXXXXXXXXXXXX XXXXXXXXXXXXXXXX XXXXXXXXXXXXXXXX XXXXXXXXXXXXXXXX
0440 : XXXXXXXXXXXXXXXX XXXXXXXXXXXXXXXX XXXXXXXXXXXXXXXX XXXXXXXXXXXXXXXX
0480 : XXXXXXXXXXXXXXXX XXXXXXXXXXXXXXXX XXXXXXXXXXXXXXXX XXXXXXXXXXXXXXXX
04C0 : XXXXXXXXXXXXXXXX XXXXXXXXXXXXXXXX XXXXXXXXXXXXXXXX XXXXXXXXXXXXXXXX
0500 : XXXXXXXXXXXXXXXX XXXXXXXXXXXXXXXX XXXXXXXXXXXXXXXX XXXXXXXXXXXXXXXX
0540 : XXXXXXXXXXXXXXXX XXXXXXXXXXXXXXXX XXXXXXXXXXXXXXXX XXXXXXXXXXXXXXXX
0580 : XXXXXXXXXXXXXXXX XXXXXXXXXXXXXXXX XXXXXXXXXXXXXXXX XXXXXXXXXXXXXXXX
05C0 : XXXXXXXXXXXXXXXX XXXXXXXXXXXXXXXX XXXXXXXXXXXXXXXX XXXXXXXXXXXXXXXX
0600 : XXXXXXXXXXXXXXXX XXXXXXXXXXXXXXXX XXXXXXXXXXXXXXXX XXXXXXXXXXXXXXXX
0640 : XXXXXXXXXXXXXXXX XXXXXXXXXXXXXXXX XXXXXXXXXXXXXXXX XXXXXXXXXXXXXXXX
0680 : XXXXXXXXXXXXXXXX XXXXXXXXXXXXXXXX XXXXXXXXXXXXXXXX XXXXXXXXXXXXXXXX
06C0 : XXXXXXXXXXXXXXXX XXXXXXXXXXXXXXXX XXXXXXXXXXXXXXXX XXXXXXXXXXXXXXXX
0700 : XXXXXXXXXXXXXXXX XXXXXXXXXXXXXXXX XXXXXXXXXXXXXXXX XXXXXXXXXXXXXXXX
0740 : XXXXXXXXXXXXXXXX XXXXXXXXXXXXXXXX XXXXXXXXXXXXXXXX XXXXXXXXXXXXXXXX
0780 : XXXXXXXXXXXXXXXX XXXXXXXXXXXXXXXX XXXXXXXXXXXXXXXX XXXXXXXXXXXXXXXX
07C0 : XXXXXXXXXXXXXXXX XXXXXXXXXXXXXXXX XXXXXXXXXXXXXXXX XXXXXXXXXXXXXXXX
0800 : XXXXXXXXXXXXXXXX XXXXXXXXXXXXXXXX XXXXXXXXXXXXXXXX XXXXXXXXXXXXXXXX
0840 : XXXXXXXXXXXXXXXX XXXXXXXXXXXXXXXX XXXXXXXXXXXXXXXX XXXXXXXXXXXXXXXX
0880 : XXXXXXXXXXXXXXXX XXXXXXXXXXXXXXXX XXXXXXXXXXXXXXXX XXXXXXXXXXXXXXXX
08C0 : XXXXXXXXXXXXXXXX XXXXXXXXXXXXXXXX XXXXXXXXXXXXXXXX XXXXXXXXXXXXXXXX
0900 : XXXXXXXXXXXXXXXX XXXXXXXXXXXXXXXX XXXXXXXXXXXXXXXX XXXXXXXXXXXXXXXX
0940 : XXXXXXXXXXXXXXXX XXXXXXXXXXXXXXXX XXXXXXXXXXXXXXXX XXXXXXXXXXXXXXXX
0980 : XXXXXXXXXXXXXXXX XXXXXXXXXXXXXXXX XXXXXXXXXXXXXXXX XXXXXXXXXXXXXXXX
09C0 : XXXXXXXXXXXXXXXX XXXXXXXXXXXXXXXX XXXXXXXXXXXXXXXX XXXXXXXXXXXXXXXX
0A00 : XXXXXXXXXXXXXXXX XXXXXXXXXXXXXXXX XXXXXXXXXXXXXXXX XXXXXXXXXXXXXXXX
0A40 : XXXXXXXXXXXXXXXX XXXXXXXXXXXXXXXX XXXXXXXXXXXXXXXX XXXXXXXXXXXXXXXX
0A80 : XXXXXXXXXXXXXXXX XXXXXXXXXXXXXXXX XXXXXXXXXXXXXXXX XXXXXXXXXXXXXXXX
0AC0 : XXXXXXXXXXXXXXXX XXXXXXXXXXXXXXXX XXXXXXXXXXXXXXXX XXXXXXXXXXXX----

All other memory blocks unused.

Program Memory Words Used:  1399

