gplink-2.2.37 (Jan 22 2024)
Listing File Generated: 2025-1-10  17:02:24
 
 
Address  Value    Disassembly              Source
-------  -----    -----------              ------
                                           ;--------------------------------------------------------
                                           ; external declarations
                                           ;--------------------------------------------------------
                                           	extern	_INDF0bits
                                           	extern	_INDF1bits
                                           	extern	_INDF2bits
                                           	extern	_HIBYTEbits
                                           	extern	_FSR0bits
                                           	extern	_FSR1bits
                                           	extern	_PCLbits
                                           	extern	_PFLAGbits
                                           	extern	_MCRbits
                                           	extern	_INDF3bits
                                           	extern	_INTEbits
                                           	extern	_INTFbits
                                           	extern	_DRVCRbits
                                           	extern	_P0KBCRbits
                                           	extern	_P1KBCRbits
                                           	extern	_P2KBCRbits
                                           	extern	_IOP0bits
                                           	extern	_OEP0bits
                                           	extern	_PUP0bits
                                           	extern	_PDP0bits
                                           	extern	_IOP1bits
                                           	extern	_OEP1bits
                                           	extern	_PUP1bits
                                           	extern	_PDP1bits
                                           	extern	_T0CRbits
                                           	extern	_T0CNTbits
                                           	extern	_T0LOADbits
                                           	extern	_T0DATAbits
                                           	extern	_T1CRbits
                                           	extern	_T1CNTbits
                                           	extern	_T1LOADbits
                                           	extern	_T1DATAbits
                                           	extern	_T2CRbits
                                           	extern	_T2CNTbits
                                           	extern	_T2LOADbits
                                           	extern	_T2DATAbits
                                           	extern	_T3CRbits
                                           	extern	_T3CNTbits
                                           	extern	_T3LOADbits
                                           	extern	_PWM0DRbits
                                           	extern	_PWM1DRbits
                                           	extern	_PWM2DRbits
                                           	extern	_PWMCR0bits
                                           	extern	_PWMCR1bits
                                           	extern	_OSCMRbits
                                           	extern	_LVDCRbits
                                           	extern	_ADCR0bits
                                           	extern	_ADCR1bits
                                           	extern	_ADCR2bits
                                           	extern	_OSADJCRbits
                                           	extern	_ADRHbits
                                           	extern	_ADRLbits
                                           	extern	_P0ADCRbits
                                           	extern	_P1ADCRbits
                                           	extern	_IOP2bits
                                           	extern	_OEP2bits
                                           	extern	_PUP2bits
                                           	extern	_PDP2bits
                                           	extern	_PMODbits
                                           	extern	_PWMCR3bits
                                           	extern	_PWMCR2bits
                                           	extern	_PFRCCRbits
                                           	extern	_PFRCCALbits
                                           	extern	_EECRbits
                                           	extern	_EEPRbits
                                           	extern	_EEARbits
                                           	extern	_EEDRHbits
                                           	extern	_EEDRLbits
                                           	extern	_DBGCRbits
                                           	extern	_DBGPRbits
                                           	extern	_HIRCCALbits
                                           	extern	_INDF0
                                           	extern	_INDF1
                                           	extern	_INDF2
                                           	extern	_HIBYTE
                                           	extern	_FSR0
                                           	extern	_FSR1
                                           	extern	_PCL
                                           	extern	_PFLAG
                                           	extern	_MCR
                                           	extern	_INDF3
                                           	extern	_INTE
                                           	extern	_INTF
                                           	extern	_DRVCR
                                           	extern	_P0KBCR
                                           	extern	_P1KBCR
                                           	extern	_P2KBCR
                                           	extern	_IOP0
                                           	extern	_OEP0
                                           	extern	_PUP0
                                           	extern	_PDP0
                                           	extern	_IOP1
                                           	extern	_OEP1
                                           	extern	_PUP1
                                           	extern	_PDP1
                                           	extern	_T0CR
                                           	extern	_T0CNT
                                           	extern	_T0LOAD
                                           	extern	_T0DATA
                                           	extern	_T1CR
                                           	extern	_T1CNT
                                           	extern	_T1LOAD
                                           	extern	_T1DATA
                                           	extern	_T2CR
                                           	extern	_T2CNT
                                           	extern	_T2LOAD
                                           	extern	_T2DATA
                                           	extern	_T3CR
                                           	extern	_T3CNT
                                           	extern	_T3LOAD
                                           	extern	_PWM0DR
                                           	extern	_PWM1DR
                                           	extern	_PWM2DR
                                           	extern	_PWMCR0
                                           	extern	_PWMCR1
                                           	extern	_OSCMR
                                           	extern	_LVDCR
                                           	extern	_ADCR0
                                           	extern	_ADCR1
                                           	extern	_ADCR2
                                           	extern	_OSADJCR
                                           	extern	_ADRH
                                           	extern	_ADRL
                                           	extern	_P0ADCR
                                           	extern	_P1ADCR
                                           	extern	_IOP2
                                           	extern	_OEP2
                                           	extern	_PUP2
                                           	extern	_PDP2
                                           	extern	_PMOD
                                           	extern	_PWMCR3
                                           	extern	_PWMCR2
                                           	extern	_PFRCCR
                                           	extern	_PFRCCAL
                                           	extern	_EECR
                                           	extern	_EEPR
                                           	extern	_EEAR
                                           	extern	_EEDRH
                                           	extern	_EEDRL
                                           	extern	_DBGCR
                                           	extern	_DBGPR
                                           	extern	_HIRCCAL
                                           ;--------------------------------------------------------
                                           ; global declarations
                                           ;--------------------------------------------------------
                                           	global	_delay_ms
                                           	global	_send_data_msb
                                           	global	_CLR_RAM
                                           	global	_IO_Init
                                           	global	_adc_config
                                           	global	_timer0_pwm_config
                                           	global	_adc_sel_channel
                                           	global	_adc_get_val
                                           	global	_adc_get_val_once
                                           	global	_key_event_handle
                                           	global	_Sys_Init
                                           	global	_charge_scan
                                           	global	_power_on_scan
                                           	global	_main
                                           	global	_int_isr
                                           	global	_abuf
                                           	global	_statusbuf
                                           	global	_i
                                           	global	_cnt
                                           	global	_adc_val
                                           	global	_flag1
                                           
                                           	global STK06
                                           	global STK05
                                           	global STK04
                                           	global STK03
                                           	global STK02
                                           	global STK01
                                           	global STK00
                                           
                                           sharebank udata_ovr 0x0000
                                           STK06	res 1
                                           STK05	res 1
                                           STK04	res 1
                                           STK03	res 1
                                           STK02	res 1
                                           STK01	res 1
                                           STK00	res 1
                                           
                                           ;--------------------------------------------------------
                                           ; global definitions
                                           ;--------------------------------------------------------
                                           UD_MC32F7361_0	udata
                                           _abuf	res	1
                                           
                                           UD_MC32F7361_1	udata
                                           _statusbuf	res	1
                                           
                                           UD_MC32F7361_2	udata
                                           _i	res	1
                                           
                                           UD_MC32F7361_3	udata
                                           _cnt	res	1
                                           
                                           UD_MC32F7361_4	udata
                                           _adc_val	res	2
                                           
                                           UD_MC32F7361_5	udata
                                           _flag1	res	1
                                           
                                           ;--------------------------------------------------------
                                           ; absolute symbol definitions
                                           ;--------------------------------------------------------
                                           ;--------------------------------------------------------
                                           ; compiler-defined variables
                                           ;--------------------------------------------------------
                                           UDL_MC32F7361_0	udata
                                           r0x1007	res	1
                                           r0x1006	res	1
                                           r0x1008	res	1
                                           r0x1009	res	1
                                           r0x100A	res	1
                                           r0x100B	res	1
                                           r0x100F	res	1
                                           r0x100E	res	1
                                           r0x100D	res	1
                                           r0x100C	res	1
                                           r0x1010	res	1
                                           r0x1011	res	1
                                           r0x1015	res	1
                                           r0x1014	res	1
                                           r0x1013	res	1
                                           r0x1012	res	1
                                           r0x101A	res	1
                                           r0x101B	res	1
                                           r0x101D	res	1
                                           r0x101C	res	1
                                           r0x1016	res	1
                                           r0x1017	res	1
                                           r0x1020	res	1
                                           r0x1021	res	1
                                           _adc_sel_channel_last_adc_channel_65536_22	res	1
                                           ;--------------------------------------------------------
                                           ; initialized data
                                           ;--------------------------------------------------------
                                           
                                           ;@Allocation info for local variables in function 'delay_ms'
                                           ;@delay_ms delay_ms                  Allocated to registers ;size:2
                                           ;@delay_ms INDF0bits                 Allocated to registers ;size:1
                                           ;@delay_ms INDF1bits                 Allocated to registers ;size:1
                                           ;@delay_ms INDF2bits                 Allocated to registers ;size:1
                                           ;@delay_ms HIBYTEbits                Allocated to registers ;size:1
                                           ;@delay_ms FSR0bits                  Allocated to registers ;size:1
                                           ;@delay_ms FSR1bits                  Allocated to registers ;size:1
                                           ;@delay_ms PCLbits                   Allocated to registers ;size:1
                                           ;@delay_ms PFLAGbits                 Allocated to registers ;size:1
                                           ;@delay_ms MCRbits                   Allocated to registers ;size:1
                                           ;@delay_ms INDF3bits                 Allocated to registers ;size:1
                                           ;@delay_ms INTEbits                  Allocated to registers ;size:1
                                           ;@delay_ms INTFbits                  Allocated to registers ;size:1
                                           ;@delay_ms DRVCRbits                 Allocated to registers ;size:1
                                           ;@delay_ms P0KBCRbits                Allocated to registers ;size:1
                                           ;@delay_ms P1KBCRbits                Allocated to registers ;size:1
                                           ;@delay_ms P2KBCRbits                Allocated to registers ;size:1
                                           ;@delay_ms IOP0bits                  Allocated to registers ;size:1
                                           ;@delay_ms OEP0bits                  Allocated to registers ;size:1
                                           ;@delay_ms PUP0bits                  Allocated to registers ;size:1
                                           ;@delay_ms PDP0bits                  Allocated to registers ;size:1
                                           ;@delay_ms IOP1bits                  Allocated to registers ;size:1
                                           ;@delay_ms OEP1bits                  Allocated to registers ;size:1
                                           ;@delay_ms PUP1bits                  Allocated to registers ;size:1
                                           ;@delay_ms PDP1bits                  Allocated to registers ;size:1
                                           ;@delay_ms T0CRbits                  Allocated to registers ;size:1
                                           ;@delay_ms T0CNTbits                 Allocated to registers ;size:1
                                           ;@delay_ms T0LOADbits                Allocated to registers ;size:1
                                           ;@delay_ms T0DATAbits                Allocated to registers ;size:1
                                           ;@delay_ms T1CRbits                  Allocated to registers ;size:1
                                           ;@delay_ms T1CNTbits                 Allocated to registers ;size:1
                                           ;@delay_ms T1LOADbits                Allocated to registers ;size:1
                                           ;@delay_ms T1DATAbits                Allocated to registers ;size:1
                                           ;@delay_ms T2CRbits                  Allocated to registers ;size:1
                                           ;@delay_ms T2CNTbits                 Allocated to registers ;size:1
                                           ;@delay_ms T2LOADbits                Allocated to registers ;size:1
                                           ;@delay_ms T2DATAbits                Allocated to registers ;size:1
                                           ;@delay_ms T3CRbits                  Allocated to registers ;size:1
                                           ;@delay_ms T3CNTbits                 Allocated to registers ;size:1
                                           ;@delay_ms T3LOADbits                Allocated to registers ;size:1
                                           ;@delay_ms PWM0DRbits                Allocated to registers ;size:1
                                           ;@delay_ms PWM1DRbits                Allocated to registers ;size:1
                                           ;@delay_ms PWM2DRbits                Allocated to registers ;size:1
                                           ;@delay_ms PWMCR0bits                Allocated to registers ;size:1
                                           ;@delay_ms PWMCR1bits                Allocated to registers ;size:1
                                           ;@delay_ms OSCMRbits                 Allocated to registers ;size:1
                                           ;@delay_ms LVDCRbits                 Allocated to registers ;size:1
                                           ;@delay_ms ADCR0bits                 Allocated to registers ;size:1
                                           ;@delay_ms ADCR1bits                 Allocated to registers ;size:1
                                           ;@delay_ms ADCR2bits                 Allocated to registers ;size:1
                                           ;@delay_ms OSADJCRbits               Allocated to registers ;size:1
                                           ;@delay_ms ADRHbits                  Allocated to registers ;size:1
                                           ;@delay_ms ADRLbits                  Allocated to registers ;size:1
                                           ;@delay_ms P0ADCRbits                Allocated to registers ;size:1
                                           ;@delay_ms P1ADCRbits                Allocated to registers ;size:1
                                           ;@delay_ms IOP2bits                  Allocated to registers ;size:1
                                           ;@delay_ms OEP2bits                  Allocated to registers ;size:1
                                           ;@delay_ms PUP2bits                  Allocated to registers ;size:1
                                           ;@delay_ms PDP2bits                  Allocated to registers ;size:1
                                           ;@delay_ms PMODbits                  Allocated to registers ;size:1
                                           ;@delay_ms PWMCR3bits                Allocated to registers ;size:1
                                           ;@delay_ms PWMCR2bits                Allocated to registers ;size:1
                                           ;@delay_ms PFRCCRbits                Allocated to registers ;size:1
                                           ;@delay_ms PFRCCALbits               Allocated to registers ;size:1
                                           ;@delay_ms EECRbits                  Allocated to registers ;size:1
                                           ;@delay_ms EEPRbits                  Allocated to registers ;size:1
                                           ;@delay_ms EEARbits                  Allocated to registers ;size:1
                                           ;@delay_ms EEDRHbits                 Allocated to registers ;size:1
                                           ;@delay_ms EEDRLbits                 Allocated to registers ;size:1
                                           ;@delay_ms DBGCRbits                 Allocated to registers ;size:1
                                           ;@delay_ms DBGPRbits                 Allocated to registers ;size:1
                                           ;@delay_ms HIRCCALbits               Allocated to registers ;size:1
                                           ;@delay_ms abuf                      Allocated to registers ;size:1
                                           ;@delay_ms statusbuf                 Allocated to registers ;size:1
                                           ;@delay_ms i                         Allocated to registers ;size:1
                                           ;@delay_ms cnt                       Allocated to registers ;size:1
                                           ;@delay_ms adc_val                   Allocated to registers ;size:2
                                           ;@delay_ms flag1                     Allocated to registers ;size:1
                                           ;@delay_ms xms                       Allocated to registers ;size:2
                                           ;@delay_ms i                         Allocated to registers r0x1008 r0x1009 ;size:2
                                           ;@delay_ms INDF0                     Allocated to registers ;size:1
                                           ;@delay_ms INDF1                     Allocated to registers ;size:1
                                           ;@delay_ms INDF2                     Allocated to registers ;size:1
                                           ;@delay_ms HIBYTE                    Allocated to registers ;size:1
                                           ;@delay_ms FSR0                      Allocated to registers ;size:1
                                           ;@delay_ms FSR1                      Allocated to registers ;size:1
                                           ;@delay_ms PCL                       Allocated to registers ;size:1
                                           ;@delay_ms PFLAG                     Allocated to registers ;size:1
                                           ;@delay_ms MCR                       Allocated to registers ;size:1
                                           ;@delay_ms INDF3                     Allocated to registers ;size:1
                                           ;@delay_ms INTE                      Allocated to registers ;size:1
                                           ;@delay_ms INTF                      Allocated to registers ;size:1
                                           ;@delay_ms DRVCR                     Allocated to registers ;size:1
                                           ;@delay_ms P0KBCR                    Allocated to registers ;size:1
                                           ;@delay_ms P1KBCR                    Allocated to registers ;size:1
                                           ;@delay_ms P2KBCR                    Allocated to registers ;size:1
                                           ;@delay_ms IOP0                      Allocated to registers ;size:1
                                           ;@delay_ms OEP0                      Allocated to registers ;size:1
                                           ;@delay_ms PUP0                      Allocated to registers ;size:1
                                           ;@delay_ms PDP0                      Allocated to registers ;size:1
                                           ;@delay_ms IOP1                      Allocated to registers ;size:1
                                           ;@delay_ms OEP1                      Allocated to registers ;size:1
                                           ;@delay_ms PUP1                      Allocated to registers ;size:1
                                           ;@delay_ms PDP1                      Allocated to registers ;size:1
                                           ;@delay_ms T0CR                      Allocated to registers ;size:1
                                           ;@delay_ms T0CNT                     Allocated to registers ;size:1
                                           ;@delay_ms T0LOAD                    Allocated to registers ;size:1
                                           ;@delay_ms T0DATA                    Allocated to registers ;size:1
                                           ;@delay_ms T1CR                      Allocated to registers ;size:1
                                           ;@delay_ms T1CNT                     Allocated to registers ;size:1
                                           ;@delay_ms T1LOAD                    Allocated to registers ;size:1
                                           ;@delay_ms T1DATA                    Allocated to registers ;size:1
                                           ;@delay_ms T2CR                      Allocated to registers ;size:1
                                           ;@delay_ms T2CNT                     Allocated to registers ;size:1
                                           ;@delay_ms T2LOAD                    Allocated to registers ;size:1
                                           ;@delay_ms T2DATA                    Allocated to registers ;size:1
                                           ;@delay_ms T3CR                      Allocated to registers ;size:1
                                           ;@delay_ms T3CNT                     Allocated to registers ;size:1
                                           ;@delay_ms T3LOAD                    Allocated to registers ;size:1
                                           ;@delay_ms PWM0DR                    Allocated to registers ;size:1
                                           ;@delay_ms PWM1DR                    Allocated to registers ;size:1
                                           ;@delay_ms PWM2DR                    Allocated to registers ;size:1
                                           ;@delay_ms PWMCR0                    Allocated to registers ;size:1
                                           ;@delay_ms PWMCR1                    Allocated to registers ;size:1
                                           ;@delay_ms OSCMR                     Allocated to registers ;size:1
                                           ;@delay_ms LVDCR                     Allocated to registers ;size:1
                                           ;@delay_ms ADCR0                     Allocated to registers ;size:1
                                           ;@delay_ms ADCR1                     Allocated to registers ;size:1
                                           ;@delay_ms ADCR2                     Allocated to registers ;size:1
                                           ;@delay_ms OSADJCR                   Allocated to registers ;size:1
                                           ;@delay_ms ADRH                      Allocated to registers ;size:1
                                           ;@delay_ms ADRL                      Allocated to registers ;size:1
                                           ;@delay_ms P0ADCR                    Allocated to registers ;size:1
                                           ;@delay_ms P1ADCR                    Allocated to registers ;size:1
                                           ;@delay_ms IOP2                      Allocated to registers ;size:1
                                           ;@delay_ms OEP2                      Allocated to registers ;size:1
                                           ;@delay_ms PUP2                      Allocated to registers ;size:1
                                           ;@delay_ms PDP2                      Allocated to registers ;size:1
                                           ;@delay_ms PMOD                      Allocated to registers ;size:1
                                           ;@delay_ms PWMCR3                    Allocated to registers ;size:1
                                           ;@delay_ms PWMCR2                    Allocated to registers ;size:1
                                           ;@delay_ms PFRCCR                    Allocated to registers ;size:1
                                           ;@delay_ms PFRCCAL                   Allocated to registers ;size:1
                                           ;@delay_ms EECR                      Allocated to registers ;size:1
                                           ;@delay_ms EEPR                      Allocated to registers ;size:1
                                           ;@delay_ms EEAR                      Allocated to registers ;size:1
                                           ;@delay_ms EEDRH                     Allocated to registers ;size:1
                                           ;@delay_ms EEDRL                     Allocated to registers ;size:1
                                           ;@delay_ms DBGCR                     Allocated to registers ;size:1
                                           ;@delay_ms DBGPR                     Allocated to registers ;size:1
                                           ;@delay_ms HIRCCAL                   Allocated to registers ;size:1
                                           ;@end Allocation info for local variables in function 'delay_ms';
                                           ;@Allocation info for local variables in function 'send_data_msb'
                                           ;@send_data_msb send_data                 Allocated to registers r0x100F r0x100E r0x100D r0x100C ;size:4
                                           ;@send_data_msb i                         Allocated to registers r0x1010 ;size:1
                                           ;@end Allocation info for local variables in function 'send_data_msb';
                                           ;@Allocation info for local variables in function 'CLR_RAM'
                                           ;@end Allocation info for local variables in function 'CLR_RAM';
                                           ;@Allocation info for local variables in function 'IO_Init'
                                           ;@end Allocation info for local variables in function 'IO_Init';
                                           ;@Allocation info for local variables in function 'adc_config'
                                           ;@end Allocation info for local variables in function 'adc_config';
                                           ;@Allocation info for local variables in function 'timer0_pwm_config'
                                           ;@end Allocation info for local variables in function 'timer0_pwm_config';
                                           ;@Allocation info for local variables in function 'adc_sel_channel'
                                           ;@adc_sel_channel adc_channel               Allocated to registers r0x100C ;size:1
                                           ;@adc_sel_channel last_adc_channel          Allocated to registers ;size:1
                                           ;@end Allocation info for local variables in function 'adc_sel_channel';
                                           ;@Allocation info for local variables in function 'adc_sel_channel'
                                           ;@adc_sel_channel adc_channel               Allocated to registers r0x100C ;size:1
                                           ;@adc_sel_channel last_adc_channel          Allocated to registers ;size:1
                                           ;@end Allocation info for local variables in function 'adc_sel_channel';
                                           ;@Allocation info for local variables in function 'adc_get_val'
                                           ;@adc_get_val i                         Allocated to registers r0x100E ;size:1
                                           ;@adc_get_val g_temp_value              Allocated to registers r0x100F r0x1010 ;size:2
                                           ;@adc_get_val g_tmpbuff                 Allocated to registers r0x100A r0x100B r0x1011 r0x1013 ;size:4
                                           ;@adc_get_val g_adcmax                  Allocated to registers r0x100A r0x100B ;size:2
                                           ;@adc_get_val g_adcmin                  Allocated to registers r0x100C r0x100D ;size:2
                                           ;@end Allocation info for local variables in function 'adc_get_val';
                                           ;@Allocation info for local variables in function 'adc_get_val_once'
                                           ;@adc_get_val_once g_temp_value              Allocated to registers r0x101D r0x101C ;size:2
                                           ;@end Allocation info for local variables in function 'adc_get_val_once';
                                           ;@Allocation info for local variables in function 'key_event_handle'
                                           ;@end Allocation info for local variables in function 'key_event_handle';
                                           ;@Allocation info for local variables in function 'Sys_Init'
                                           ;@end Allocation info for local variables in function 'Sys_Init';
                                           ;@Allocation info for local variables in function 'charge_scan'
                                           ;@end Allocation info for local variables in function 'charge_scan';
                                           ;@Allocation info for local variables in function 'power_on_scan'
                                           ;@end Allocation info for local variables in function 'power_on_scan';
                                           ;@Allocation info for local variables in function 'main'
                                           ;@end Allocation info for local variables in function 'main';
                                           ;@Allocation info for local variables in function 'int_isr'
                                           ;@end Allocation info for local variables in function 'int_isr';
                                           
                                           ;--------------------------------------------------------
                                           ; overlayable items in internal ram 
                                           ;--------------------------------------------------------
                                           ;	udata_ovr
                                           ;--------------------------------------------------------
                                           ; reset vector 
                                           ;--------------------------------------------------------
                                           STARTUP	code 0x0000
000000   a01d     goto    0x1d             	goto	_main
                                           ;--------------------------------------------------------
                                           ; interrupt and initialization code
                                           ;--------------------------------------------------------
                                           c_interrupt	code	0x8
                                           __sdcc_interrupt
                                           ;***
                                           ;  pBlock Stats: dbName = I
                                           ;***
                                           ;entry:  _int_isr	;Function start
                                           ; 0 exit points
                                           ;2 compiler assigned registers:
                                           ;   r0x1020
                                           ;   r0x1021
                                           ;; Starting pCode block
                                           _int_isr	;Function start
                                           ; 0 exit points
                                           ;	.line	417; "MC32F7361.c"	__endasm;
                                           	;
000008   5622     movra   0x22             	movra	_abuf;
000009   4587     swapar  0x187            	swapar	_PFLAG;
00000a   5623     movra   0x23             	movra	_statusbuf;
                                           	
                                           ;	.line	419; "MC32F7361.c"	if (KBIF & KBIE)
00000b   761d     clrr    0x1d             	CLRR	r0x1020
00000c   f98b     jbclr   0x18b, 0x4       	JBCLR	_INTFbits,4
00000d   661d     incr    0x1d             	INCR	r0x1020
00000e   761e     clrr    0x1e             	CLRR	r0x1021
00000f   f98a     jbclr   0x18a, 0x4       	JBCLR	_INTEbits,4
000010   661e     incr    0x1e             	INCR	r0x1021
000011   581e     movar   0x1e             	MOVAR	r0x1021
000012   7a1d     andra   0x1d             	ANDRA	r0x1020
000013   3c00     movai   0                	MOVAI	0x00
000014   5c1d     orar    0x1d             	ORAR	r0x1020
000015   f587     jbclr   0x187, 0x2       	JBCLR	PFLAG,2
000016   a018     goto    0x18             	GOTO	_00396_DS_
                                           ;	.line	421; "MC32F7361.c"	KBIF = 0;
000017   d98b     bclr    0x18b, 0x4       	BCLR	_INTFbits,4
                                           _00396_DS_
                                           ;	.line	429; "MC32F7361.c"	__endasm;
                                           	;
000018   4423     swapar  0x23             	swapar	_statusbuf;
000019   5787     movra   0x187            	movra	_PFLAG;
00001a   4622     swapr   0x22             	swapr	_abuf;
00001b   4422     swapar  0x22             	swapar	_abuf;
                                           	
                                           END_OF_INTERRUPT
                                           ;	.line	430; "MC32F7361.c"	}
00001c   000d     retie                    	RETIE	
                                           
                                           ;--------------------------------------------------------
                                           ; code
                                           ;--------------------------------------------------------
                                           code_MC32F7361	code
                                           ;***
                                           ;  pBlock Stats: dbName = M
                                           ;***
                                           ;entry:  _main	;Function start
                                           ; 2 exit points
                                           ;has an exit
                                           ;functions called:
                                           ;   _Sys_Init
                                           ;   _delay_ms
                                           ;   _power_on_scan
                                           ;   _adc_sel_channel
                                           ;   _adc_get_val
                                           ;   _send_data_msb
                                           ;   _adc_sel_channel
                                           ;   _adc_get_val
                                           ;   _Sys_Init
                                           ;   _delay_ms
                                           ;   _power_on_scan
                                           ;   _adc_sel_channel
                                           ;   _adc_get_val
                                           ;   _send_data_msb
                                           ;   _adc_sel_channel
                                           ;   _adc_get_val
                                           ;7 compiler assigned registers:
                                           ;   STK00
                                           ;   r0x1016
                                           ;   r0x1017
                                           ;   r0x1018
                                           ;   r0x1019
                                           ;   STK02
                                           ;   STK01
                                           ;; Starting pCode block
                                           _main	;Function start
                                           ; 2 exit points
                                           ;	.line	325; "MC32F7361.c"	Sys_Init();
00001d   80ce     call    0xce             	CALL	_Sys_Init
                                           ;	.line	326; "MC32F7361.c"	delay_ms(10);
00001e   3c0a     movai   0xa              	MOVAI	0x0a
00001f   5606     movra   0x6              	MOVRA	STK00
000020   3c00     movai   0                	MOVAI	0x00
000021   823b     call    0x23b            	CALL	_delay_ms
                                           ;	.line	328; "MC32F7361.c"	PWM_ENABEL();
000022   cd98     bset    0x198, 0x6       	BSET	_T0CRbits,6
000023   cf98     bset    0x198, 0x7       	BSET	_T0CRbits,7
                                           _00340_DS_
                                           ;	.line	332; "MC32F7361.c"	power_on_scan();
000024   8071     call    0x71             	CALL	_power_on_scan
                                           ;	.line	341; "MC32F7361.c"	flag_is_enable_detect = 0;
000025   d626     bclr    0x26, 0x3        	BCLR	_flag1,3
                                           ;	.line	346; "MC32F7361.c"	adc_sel_channel(ADC_CHANNEL_LOAD);
000026   3c02     movai   0x2              	MOVAI	0x02
000027   8193     call    0x193            	CALL	_adc_sel_channel
                                           ;	.line	347; "MC32F7361.c"	cnt = 0;
000028   7625     clrr    0x25             	CLRR	_cnt
                                           ;	.line	348; "MC32F7361.c"	for (i = 0; i < 100; i++)
000029   7624     clrr    0x24             	CLRR	_i
                                           ;;unsigned compare: left < lit(0x64=100), size=1
                                           _00343_DS_
00002a   3c64     movai   0x64             	MOVAI	0x64
00002b   4824     rsubar  0x24             	RSUBAR	_i
00002c   f187     jbclr   0x187, 0         	JBCLR	PFLAG,0
00002d   a049     goto    0x49             	GOTO	_00317_DS_
                                           ;;genSkipc:3291: created from rifx:013B5EFC
                                           ;	.line	350; "MC32F7361.c"	adc_val = adc_get_val();
00002e   80f6     call    0xf6             	CALL	_adc_get_val
00002f   5621     movra   0x21             	MOVRA	(_adc_val + 1)
000030   5806     movar   0x6              	MOVAR	STK00
000031   5620     movra   0x20             	MOVRA	_adc_val
                                           ;	.line	351; "MC32F7361.c"	send_data_msb(adc_val);
000032   5820     movar   0x20             	MOVAR	_adc_val
000033   561b     movra   0x1b             	MOVRA	r0x1016
000034   5821     movar   0x21             	MOVAR	(_adc_val + 1)
000035   561c     movra   0x1c             	MOVRA	r0x1017
                                           ;;1	CLRR	r0x1018
                                           ;;1	CLRR	r0x1019
000036   581b     movar   0x1b             	MOVAR	r0x1016
000037   5604     movra   0x4              	MOVRA	STK02
000038   581c     movar   0x1c             	MOVAR	r0x1017
000039   5605     movra   0x5              	MOVRA	STK01
00003a   3c00     movai   0                	MOVAI	0x00
00003b   5606     movra   0x6              	MOVRA	STK00
00003c   3c00     movai   0                	MOVAI	0x00
00003d   81ea     call    0x1ea            	CALL	_send_data_msb
                                           ;;unsigned compare: left < lit(0x733=1843), size=2
                                           ;	.line	352; "MC32F7361.c"	if (adc_val < 1843)
00003e   3c07     movai   0x7              	MOVAI	0x07
00003f   4821     rsubar  0x21             	RSUBAR	(_adc_val + 1)
000040   e587     jbset   0x187, 0x2       	JBSET	PFLAG,2
000041   a044     goto    0x44             	GOTO	_00387_DS_
000042   3c33     movai   0x33             	MOVAI	0x33
000043   4820     rsubar  0x20             	RSUBAR	_adc_val
                                           _00387_DS_
000044   f187     jbclr   0x187, 0         	JBCLR	PFLAG,0
000045   a047     goto    0x47             	GOTO	_00344_DS_
                                           ;;genSkipc:3291: created from rifx:013B5EFC
                                           ;	.line	354; "MC32F7361.c"	cnt++;
000046   6625     incr    0x25             	INCR	_cnt
                                           _00344_DS_
                                           ;	.line	348; "MC32F7361.c"	for (i = 0; i < 100; i++)
000047   6624     incr    0x24             	INCR	_i
000048   a02a     goto    0x2a             	GOTO	_00343_DS_
                                           ;;unsigned compare: left < lit(0x50=80), size=1
                                           _00317_DS_
                                           ;	.line	358; "MC32F7361.c"	if (cnt >= 80)
000049   3c50     movai   0x50             	MOVAI	0x50
00004a   4825     rsubar  0x25             	RSUBAR	_cnt
00004b   e187     jbset   0x187, 0         	JBSET	PFLAG,0
00004c   a04f     goto    0x4f             	GOTO	_00321_DS_
                                           ;;genSkipc:3291: created from rifx:013B5EFC
                                           ;	.line	361; "MC32F7361.c"	LED_RED_ON();
00004d   cf94     bset    0x194, 0x7       	BSET	_IOP1bits,7
00004e   a050     goto    0x50             	GOTO	_00326_DS_
                                           _00321_DS_
                                           ;	.line	366; "MC32F7361.c"	LED_RED_OFF();
00004f   df94     bclr    0x194, 0x7       	BCLR	_IOP1bits,7
                                           _00326_DS_
                                           ;	.line	372; "MC32F7361.c"	adc_sel_channel(ADC_CHANNEL_LOAD);
000050   3c02     movai   0x2              	MOVAI	0x02
000051   8193     call    0x193            	CALL	_adc_sel_channel
                                           ;	.line	373; "MC32F7361.c"	cnt = 0;
000052   7625     clrr    0x25             	CLRR	_cnt
                                           ;	.line	374; "MC32F7361.c"	for (i = 0; i < 100; i++)
000053   7624     clrr    0x24             	CLRR	_i
                                           ;;unsigned compare: left < lit(0x64=100), size=1
                                           _00346_DS_
000054   3c64     movai   0x64             	MOVAI	0x64
000055   4824     rsubar  0x24             	RSUBAR	_i
000056   f187     jbclr   0x187, 0         	JBCLR	PFLAG,0
000057   a067     goto    0x67             	GOTO	_00329_DS_
                                           ;;genSkipc:3291: created from rifx:013B5EFC
                                           ;	.line	376; "MC32F7361.c"	adc_val = adc_get_val();
000058   80f6     call    0xf6             	CALL	_adc_get_val
000059   5621     movra   0x21             	MOVRA	(_adc_val + 1)
00005a   5806     movar   0x6              	MOVAR	STK00
00005b   5620     movra   0x20             	MOVRA	_adc_val
                                           ;;unsigned compare: left < lit(0x4CD=1229), size=2
                                           ;	.line	377; "MC32F7361.c"	if (adc_val < 1229)
00005c   3c04     movai   0x4              	MOVAI	0x04
00005d   4821     rsubar  0x21             	RSUBAR	(_adc_val + 1)
00005e   e587     jbset   0x187, 0x2       	JBSET	PFLAG,2
00005f   a062     goto    0x62             	GOTO	_00390_DS_
000060   3ccd     movai   0xcd             	MOVAI	0xcd
000061   4820     rsubar  0x20             	RSUBAR	_adc_val
                                           _00390_DS_
000062   f187     jbclr   0x187, 0         	JBCLR	PFLAG,0
000063   a065     goto    0x65             	GOTO	_00347_DS_
                                           ;;genSkipc:3291: created from rifx:013B5EFC
                                           ;	.line	379; "MC32F7361.c"	cnt++;
000064   6625     incr    0x25             	INCR	_cnt
                                           _00347_DS_
                                           ;	.line	374; "MC32F7361.c"	for (i = 0; i < 100; i++)
000065   6624     incr    0x24             	INCR	_i
000066   a054     goto    0x54             	GOTO	_00346_DS_
                                           ;;unsigned compare: left < lit(0x50=80), size=1
                                           _00329_DS_
                                           ;	.line	385; "MC32F7361.c"	if (cnt >= 80)
000067   3c50     movai   0x50             	MOVAI	0x50
000068   4825     rsubar  0x25             	RSUBAR	_cnt
000069   e187     jbset   0x187, 0         	JBSET	PFLAG,0
00006a   a06d     goto    0x6d             	GOTO	_00333_DS_
                                           ;;genSkipc:3291: created from rifx:013B5EFC
                                           ;	.line	388; "MC32F7361.c"	LED_GREEN_ON();
00006b   c190     bset    0x190, 0         	BSET	_IOP0bits,0
00006c   a06e     goto    0x6e             	GOTO	_00338_DS_
                                           _00333_DS_
                                           ;	.line	392; "MC32F7361.c"	LED_GREEN_OFF();
00006d   d190     bclr    0x190, 0         	BCLR	_IOP0bits,0
                                           _00338_DS_
                                           ;	.line	402; "MC32F7361.c"	__endasm;
                                           	;
00006e   000e     clrwdt                   	clrwdt;
                                           	
00006f   a024     goto    0x24             	GOTO	_00340_DS_
                                           ;	.line	404; "MC32F7361.c"	}
000070   000c     return                   	RETURN	
                                           ; exit point of _main
                                           
                                           ;***
                                           ;  pBlock Stats: dbName = C
                                           ;***
                                           ;entry:  _power_on_scan	;Function start
                                           ; 2 exit points
                                           ;has an exit
                                           ;functions called:
                                           ;   _delay_ms
                                           ;   _delay_ms
                                           ;   _delay_ms
                                           ;   _delay_ms
                                           ;1 compiler assigned register :
                                           ;   STK00
                                           ;; Starting pCode block
                                           _power_on_scan	;Function start
                                           ; 2 exit points
                                           ;	.line	270; "MC32F7361.c"	if (flag_is_device_open)
000071   e226     jbset   0x26, 0x1        	JBSET	_flag1,1
000072   a08a     goto    0x8a             	GOTO	_00299_DS_
                                           ;	.line	272; "MC32F7361.c"	if (P13D)
000073   e794     jbset   0x194, 0x3       	JBSET	_IOP1bits,3
000074   a0a1     goto    0xa1             	GOTO	_00307_DS_
                                           ;	.line	274; "MC32F7361.c"	cnt = 0;
000075   7625     clrr    0x25             	CLRR	_cnt
                                           ;	.line	275; "MC32F7361.c"	for (i = 0; i < 200; i++)
000076   7624     clrr    0x24             	CLRR	_i
                                           ;;unsigned compare: left < lit(0xC8=200), size=1
                                           _00302_DS_
000077   3cc8     movai   0xc8             	MOVAI	0xc8
000078   4824     rsubar  0x24             	RSUBAR	_i
000079   f187     jbclr   0x187, 0         	JBCLR	PFLAG,0
00007a   a084     goto    0x84             	GOTO	_00286_DS_
                                           ;;genSkipc:3291: created from rifx:013B5EFC
                                           ;	.line	277; "MC32F7361.c"	if (P13D)
00007b   e794     jbset   0x194, 0x3       	JBSET	_IOP1bits,3
00007c   a07e     goto    0x7e             	GOTO	_00285_DS_
                                           ;	.line	279; "MC32F7361.c"	cnt++;
00007d   6625     incr    0x25             	INCR	_cnt
                                           _00285_DS_
                                           ;	.line	282; "MC32F7361.c"	delay_ms(1);
00007e   3c01     movai   0x1              	MOVAI	0x01
00007f   5606     movra   0x6              	MOVRA	STK00
000080   3c00     movai   0                	MOVAI	0x00
000081   823b     call    0x23b            	CALL	_delay_ms
                                           ;	.line	275; "MC32F7361.c"	for (i = 0; i < 200; i++)
000082   6624     incr    0x24             	INCR	_i
000083   a077     goto    0x77             	GOTO	_00302_DS_
                                           ;;unsigned compare: left < lit(0xC8=200), size=1
                                           _00286_DS_
                                           ;	.line	285; "MC32F7361.c"	if (cnt >= 200)
000084   3cc8     movai   0xc8             	MOVAI	0xc8
000085   4825     rsubar  0x25             	RSUBAR	_cnt
000086   e187     jbset   0x187, 0         	JBSET	PFLAG,0
000087   a0a1     goto    0xa1             	GOTO	_00307_DS_
                                           ;;genSkipc:3291: created from rifx:013B5EFC
                                           ;	.line	288; "MC32F7361.c"	flag_is_device_open = 0;
000088   d226     bclr    0x26, 0x1        	BCLR	_flag1,1
000089   a0a1     goto    0xa1             	GOTO	_00307_DS_
                                           _00299_DS_
                                           ;	.line	294; "MC32F7361.c"	if (0 == P13D)
00008a   f794     jbclr   0x194, 0x3       	JBCLR	_IOP1bits,3
00008b   a0a1     goto    0xa1             	GOTO	_00307_DS_
                                           ;	.line	296; "MC32F7361.c"	cnt = 0;
00008c   7625     clrr    0x25             	CLRR	_cnt
                                           ;	.line	297; "MC32F7361.c"	for (i = 0; i < 200; i++)
00008d   7624     clrr    0x24             	CLRR	_i
                                           ;;unsigned compare: left < lit(0xC8=200), size=1
                                           _00305_DS_
00008e   3cc8     movai   0xc8             	MOVAI	0xc8
00008f   4824     rsubar  0x24             	RSUBAR	_i
000090   f187     jbclr   0x187, 0         	JBCLR	PFLAG,0
000091   a09b     goto    0x9b             	GOTO	_00293_DS_
                                           ;;genSkipc:3291: created from rifx:013B5EFC
                                           ;	.line	299; "MC32F7361.c"	if (0 == P13D)
000092   f794     jbclr   0x194, 0x3       	JBCLR	_IOP1bits,3
000093   a095     goto    0x95             	GOTO	_00292_DS_
                                           ;	.line	301; "MC32F7361.c"	cnt++;
000094   6625     incr    0x25             	INCR	_cnt
                                           _00292_DS_
                                           ;	.line	304; "MC32F7361.c"	delay_ms(1);
000095   3c01     movai   0x1              	MOVAI	0x01
000096   5606     movra   0x6              	MOVRA	STK00
000097   3c00     movai   0                	MOVAI	0x00
000098   823b     call    0x23b            	CALL	_delay_ms
                                           ;	.line	297; "MC32F7361.c"	for (i = 0; i < 200; i++)
000099   6624     incr    0x24             	INCR	_i
00009a   a08e     goto    0x8e             	GOTO	_00305_DS_
                                           ;;unsigned compare: left < lit(0xC8=200), size=1
                                           _00293_DS_
                                           ;	.line	307; "MC32F7361.c"	if (cnt >= 200)
00009b   3cc8     movai   0xc8             	MOVAI	0xc8
00009c   4825     rsubar  0x25             	RSUBAR	_cnt
00009d   e187     jbset   0x187, 0         	JBSET	PFLAG,0
00009e   a0a1     goto    0xa1             	GOTO	_00307_DS_
                                           ;;genSkipc:3291: created from rifx:013B5EFC
                                           ;	.line	310; "MC32F7361.c"	flag_is_device_open = 1;
00009f   c226     bset    0x26, 0x1        	BSET	_flag1,1
                                           ;	.line	311; "MC32F7361.c"	flag_is_enable_detect = 1;
0000a0   c626     bset    0x26, 0x3        	BSET	_flag1,3
                                           _00307_DS_
                                           ;	.line	315; "MC32F7361.c"	}
0000a1   000c     return                   	RETURN	
                                           ; exit point of _power_on_scan
                                           
                                           ;***
                                           ;  pBlock Stats: dbName = C
                                           ;***
                                           ;entry:  _charge_scan	;Function start
                                           ; 2 exit points
                                           ;has an exit
                                           ;functions called:
                                           ;   _delay_ms
                                           ;   _delay_ms
                                           ;   _delay_ms
                                           ;   _delay_ms
                                           ;1 compiler assigned register :
                                           ;   STK00
                                           ;; Starting pCode block
                                           _charge_scan	;Function start
                                           ; 2 exit points
                                           ;	.line	227; "MC32F7361.c"	if (CHARGE_PIN)
0000a2   e790     jbset   0x190, 0x3       	JBSET	_IOP0bits,3
0000a3   a0b9     goto    0xb9             	GOTO	_00271_DS_
                                           ;	.line	229; "MC32F7361.c"	cnt = 0;
0000a4   7625     clrr    0x25             	CLRR	_cnt
                                           ;	.line	230; "MC32F7361.c"	for (i = 0; i < 200; i++)
0000a5   7624     clrr    0x24             	CLRR	_i
                                           ;;unsigned compare: left < lit(0xC8=200), size=1
                                           _00274_DS_
0000a6   3cc8     movai   0xc8             	MOVAI	0xc8
0000a7   4824     rsubar  0x24             	RSUBAR	_i
0000a8   f187     jbclr   0x187, 0         	JBCLR	PFLAG,0
0000a9   a0b3     goto    0xb3             	GOTO	_00262_DS_
                                           ;;genSkipc:3291: created from rifx:013B5EFC
                                           ;	.line	232; "MC32F7361.c"	if (CHARGE_PIN)
0000aa   e790     jbset   0x190, 0x3       	JBSET	_IOP0bits,3
0000ab   a0ad     goto    0xad             	GOTO	_00261_DS_
                                           ;	.line	234; "MC32F7361.c"	cnt++;
0000ac   6625     incr    0x25             	INCR	_cnt
                                           _00261_DS_
                                           ;	.line	237; "MC32F7361.c"	delay_ms(1);
0000ad   3c01     movai   0x1              	MOVAI	0x01
0000ae   5606     movra   0x6              	MOVRA	STK00
0000af   3c00     movai   0                	MOVAI	0x00
0000b0   823b     call    0x23b            	CALL	_delay_ms
                                           ;	.line	230; "MC32F7361.c"	for (i = 0; i < 200; i++)
0000b1   6624     incr    0x24             	INCR	_i
0000b2   a0a6     goto    0xa6             	GOTO	_00274_DS_
                                           ;;unsigned compare: left < lit(0xB4=180), size=1
                                           _00262_DS_
                                           ;	.line	240; "MC32F7361.c"	if (cnt >= 180)
0000b3   3cb4     movai   0xb4             	MOVAI	0xb4
0000b4   4825     rsubar  0x25             	RSUBAR	_cnt
0000b5   e187     jbset   0x187, 0         	JBSET	PFLAG,0
0000b6   a0cd     goto    0xcd             	GOTO	_00279_DS_
                                           ;;genSkipc:3291: created from rifx:013B5EFC
                                           ;	.line	243; "MC32F7361.c"	flag_is_in_charging = 1;
0000b7   c026     bset    0x26, 0          	BSET	_flag1,0
0000b8   a0cd     goto    0xcd             	GOTO	_00279_DS_
                                           _00271_DS_
                                           ;	.line	248; "MC32F7361.c"	cnt = 0;
0000b9   7625     clrr    0x25             	CLRR	_cnt
                                           ;	.line	249; "MC32F7361.c"	for (i = 0; i < 200; i++)
0000ba   7624     clrr    0x24             	CLRR	_i
                                           ;;unsigned compare: left < lit(0xC8=200), size=1
                                           _00277_DS_
0000bb   3cc8     movai   0xc8             	MOVAI	0xc8
0000bc   4824     rsubar  0x24             	RSUBAR	_i
0000bd   f187     jbclr   0x187, 0         	JBCLR	PFLAG,0
0000be   a0c8     goto    0xc8             	GOTO	_00267_DS_
                                           ;;genSkipc:3291: created from rifx:013B5EFC
                                           ;	.line	251; "MC32F7361.c"	if (0 == CHARGE_PIN)
0000bf   f790     jbclr   0x190, 0x3       	JBCLR	_IOP0bits,3
0000c0   a0c2     goto    0xc2             	GOTO	_00266_DS_
                                           ;	.line	253; "MC32F7361.c"	cnt++;
0000c1   6625     incr    0x25             	INCR	_cnt
                                           _00266_DS_
                                           ;	.line	256; "MC32F7361.c"	delay_ms(1);
0000c2   3c01     movai   0x1              	MOVAI	0x01
0000c3   5606     movra   0x6              	MOVRA	STK00
0000c4   3c00     movai   0                	MOVAI	0x00
0000c5   823b     call    0x23b            	CALL	_delay_ms
                                           ;	.line	249; "MC32F7361.c"	for (i = 0; i < 200; i++)
0000c6   6624     incr    0x24             	INCR	_i
0000c7   a0bb     goto    0xbb             	GOTO	_00277_DS_
                                           ;;unsigned compare: left < lit(0xB4=180), size=1
                                           _00267_DS_
                                           ;	.line	259; "MC32F7361.c"	if (cnt >= 180)
0000c8   3cb4     movai   0xb4             	MOVAI	0xb4
0000c9   4825     rsubar  0x25             	RSUBAR	_cnt
0000ca   e187     jbset   0x187, 0         	JBSET	PFLAG,0
0000cb   a0cd     goto    0xcd             	GOTO	_00279_DS_
                                           ;;genSkipc:3291: created from rifx:013B5EFC
                                           ;	.line	262; "MC32F7361.c"	flag_is_in_charging = 0;
0000cc   d026     bclr    0x26, 0          	BCLR	_flag1,0
                                           _00279_DS_
                                           ;	.line	265; "MC32F7361.c"	}
0000cd   000c     return                   	RETURN	
                                           ; exit point of _charge_scan
                                           
                                           ;***
                                           ;  pBlock Stats: dbName = C
                                           ;***
                                           ;entry:  _Sys_Init	;Function start
                                           ; 2 exit points
                                           ;has an exit
                                           ;functions called:
                                           ;   _CLR_RAM
                                           ;   _IO_Init
                                           ;   _timer0_pwm_config
                                           ;   _adc_config
                                           ;   _CLR_RAM
                                           ;   _IO_Init
                                           ;   _timer0_pwm_config
                                           ;   _adc_config
                                           ;; Starting pCode block
                                           _Sys_Init	;Function start
                                           ; 2 exit points
                                           ;	.line	199; "MC32F7361.c"	GIE = 0;
0000ce   df88     bclr    0x188, 0x7       	BCLR	_MCRbits,7
                                           ;	.line	200; "MC32F7361.c"	CLR_RAM();
0000cf   81de     call    0x1de            	CALL	_CLR_RAM
                                           ;	.line	201; "MC32F7361.c"	IO_Init();
0000d0   81c9     call    0x1c9            	CALL	_IO_Init
                                           ;	.line	203; "MC32F7361.c"	timer0_pwm_config();
0000d1   81b4     call    0x1b4            	CALL	_timer0_pwm_config
                                           ;	.line	204; "MC32F7361.c"	adc_config();
0000d2   81c0     call    0x1c0            	CALL	_adc_config
                                           ;	.line	209; "MC32F7361.c"	P03OE = 0; // 
0000d3   d791     bclr    0x191, 0x3       	BCLR	_OEP0bits,3
                                           ;	.line	217; "MC32F7361.c"	P13PU = 0; // 
0000d4   d796     bclr    0x196, 0x3       	BCLR	_PUP1bits,3
                                           ;	.line	218; "MC32F7361.c"	P13OE = 0; // 
0000d5   d795     bclr    0x195, 0x3       	BCLR	_OEP1bits,3
                                           ;	.line	219; "MC32F7361.c"	P13KE = 1; // 
0000d6   c78e     bset    0x18e, 0x3       	BSET	_P1KBCRbits,3
                                           ;	.line	221; "MC32F7361.c"	GIE = 1;
0000d7   cf88     bset    0x188, 0x7       	BSET	_MCRbits,7
                                           ;	.line	222; "MC32F7361.c"	}
0000d8   000c     return                   	RETURN	
                                           ; exit point of _Sys_Init
                                           
                                           ;***
                                           ;  pBlock Stats: dbName = C
                                           ;***
                                           ;entry:  _key_event_handle	;Function start
                                           ; 2 exit points
                                           ;has an exit
                                           ;; Starting pCode block
                                           _key_event_handle	;Function start
                                           ; 2 exit points
                                           ;	.line	189; "MC32F7361.c"	}
0000d9   000c     return                   	RETURN	
                                           ; exit point of _key_event_handle
                                           
                                           ;***
                                           ;  pBlock Stats: dbName = C
                                           ;***
                                           ;entry:  _adc_get_val_once	;Function start
                                           ; 2 exit points
                                           ;has an exit
                                           ;7 compiler assigned registers:
                                           ;   r0x101A
                                           ;   r0x101B
                                           ;   r0x101C
                                           ;   r0x101D
                                           ;   r0x101E
                                           ;   r0x101F
                                           ;   STK00
                                           ;; Starting pCode block
                                           _adc_get_val_once	;Function start
                                           ; 2 exit points
                                           ;	.line	176; "MC32F7361.c"	ADEOC = 0; // ADCAD
0000da   d3b0     bclr    0x1b0, 0x1       	BCLR	_ADCR0bits,1
                                           _00247_DS_
                                           ;	.line	177; "MC32F7361.c"	while (!ADEOC)
0000db   e3b0     jbset   0x1b0, 0x1       	JBSET	_ADCR0bits,1
0000dc   a0db     goto    0xdb             	GOTO	_00247_DS_
                                           ;	.line	179; "MC32F7361.c"	g_temp_value = ADRH; // 
0000dd   59b4     movar   0x1b4            	MOVAR	_ADRH
0000de   5617     movra   0x17             	MOVRA	r0x101A
0000df   7618     clrr    0x18             	CLRR	r0x101B
                                           ;	.line	180; "MC32F7361.c"	g_temp_value = g_temp_value << 4 | (ADRL & 0x0F);
0000e0   4418     swapar  0x18             	SWAPAR	r0x101B
0000e1   3ef0     andai   0xf0             	ANDAI	0xf0
0000e2   561a     movra   0x1a             	MOVRA	r0x101C
0000e3   4417     swapar  0x17             	SWAPAR	r0x101A
0000e4   5619     movra   0x19             	MOVRA	r0x101D
0000e5   3e0f     andai   0xf              	ANDAI	0x0f
0000e6   5e1a     orra    0x1a             	ORRA	r0x101C
0000e7   4219     xorra   0x19             	XORRA	r0x101D
0000e8   59b5     movar   0x1b5            	MOVAR	_ADRL
0000e9   5617     movra   0x17             	MOVRA	r0x101A
0000ea   7618     clrr    0x18             	CLRR	r0x101B
0000eb   3c0f     movai   0xf              	MOVAI	0x0f
0000ec   7a17     andra   0x17             	ANDRA	r0x101A
0000ed   7618     clrr    0x18             	CLRR	r0x101B
                                           ;;101	MOVAR	r0x101A
                                           ;;99	MOVRA	r0x101E
                                           ;;104	MOVAR	r0x101B
                                           ;;102	MOVRA	r0x101F
                                           ;;100	MOVAR	r0x101E
0000ee   5817     movar   0x17             	MOVAR	r0x101A
0000ef   5e19     orra    0x19             	ORRA	r0x101D
                                           ;;103	MOVAR	r0x101F
0000f0   3c00     movai   0                	MOVAI	0x00
0000f1   5e1a     orra    0x1a             	ORRA	r0x101C
                                           ;	.line	181; "MC32F7361.c"	return g_temp_value;
0000f2   5819     movar   0x19             	MOVAR	r0x101D
0000f3   5606     movra   0x6              	MOVRA	STK00
0000f4   581a     movar   0x1a             	MOVAR	r0x101C
                                           ;	.line	182; "MC32F7361.c"	}
0000f5   000c     return                   	RETURN	
                                           ; exit point of _adc_get_val_once
                                           
                                           ;***
                                           ;  pBlock Stats: dbName = C
                                           ;***
                                           ;entry:  _adc_get_val	;Function start
                                           ; 2 exit points
                                           ;has an exit
                                           ;16 compiler assigned registers:
                                           ;   r0x1006
                                           ;   r0x1007
                                           ;   r0x1008
                                           ;   r0x1009
                                           ;   r0x100A
                                           ;   r0x100B
                                           ;   r0x100C
                                           ;   r0x100D
                                           ;   r0x100E
                                           ;   r0x100F
                                           ;   r0x1010
                                           ;   r0x1011
                                           ;   r0x1012
                                           ;   r0x1013
                                           ;   r0x1014
                                           ;   STK00
                                           ;; Starting pCode block
                                           _adc_get_val	;Function start
                                           ; 2 exit points
                                           ;	.line	145; "MC32F7361.c"	u32 g_tmpbuff = 0;
0000f6   7608     clrr    0x8              	CLRR	r0x1006
0000f7   7607     clrr    0x7              	CLRR	r0x1007
0000f8   7609     clrr    0x9              	CLRR	r0x1008
0000f9   760a     clrr    0xa              	CLRR	r0x1009
                                           ;	.line	146; "MC32F7361.c"	u16 g_adcmax = 0;
0000fa   760b     clrr    0xb              	CLRR	r0x100A
0000fb   760c     clrr    0xc              	CLRR	r0x100B
                                           ;	.line	147; "MC32F7361.c"	u16 g_adcmin = 0xFFFF;
0000fc   3cff     movai   0xff             	MOVAI	0xff
0000fd   5610     movra   0x10             	MOVRA	r0x100C
0000fe   560f     movra   0xf              	MOVRA	r0x100D
                                           ;	.line	150; "MC32F7361.c"	for (i = 0; i < 20; i++)
0000ff   760e     clrr    0xe              	CLRR	r0x100E
                                           _00201_DS_
                                           ;	.line	152; "MC32F7361.c"	ADEOC = 0; // ADCAD
000100   d3b0     bclr    0x1b0, 0x1       	BCLR	_ADCR0bits,1
                                           _00190_DS_
                                           ;	.line	153; "MC32F7361.c"	while (!ADEOC)
000101   e3b0     jbset   0x1b0, 0x1       	JBSET	_ADCR0bits,1
000102   a101     goto    0x101            	GOTO	_00190_DS_
                                           ;	.line	155; "MC32F7361.c"	g_temp_value = ADRH; // 
000103   59b4     movar   0x1b4            	MOVAR	_ADRH
000104   560d     movra   0xd              	MOVRA	r0x100F
000105   7611     clrr    0x11             	CLRR	r0x1010
                                           ;	.line	156; "MC32F7361.c"	g_temp_value = g_temp_value << 4 | (ADRL & 0x0F);
000106   4411     swapar  0x11             	SWAPAR	r0x1010
000107   3ef0     andai   0xf0             	ANDAI	0xf0
000108   5612     movra   0x12             	MOVRA	r0x1011
000109   440d     swapar  0xd              	SWAPAR	r0x100F
00010a   5616     movra   0x16             	MOVRA	r0x1012
00010b   3e0f     andai   0xf              	ANDAI	0x0f
00010c   5e12     orra    0x12             	ORRA	r0x1011
00010d   4216     xorra   0x16             	XORRA	r0x1012
00010e   59b5     movar   0x1b5            	MOVAR	_ADRL
00010f   560d     movra   0xd              	MOVRA	r0x100F
000110   7611     clrr    0x11             	CLRR	r0x1010
000111   3c0f     movai   0xf              	MOVAI	0x0f
000112   7a0d     andra   0xd              	ANDRA	r0x100F
000113   7611     clrr    0x11             	CLRR	r0x1010
                                           ;;120	MOVAR	r0x100F
000114   3c00     movai   0                	MOVAI	0x00
000115   5614     movra   0x14             	MOVRA	r0x1014
                                           ;;119	MOVAR	r0x1013
000116   580d     movar   0xd              	MOVAR	r0x100F
000117   5615     movra   0x15             	MOVRA	r0x1013
000118   5c16     orar    0x16             	ORAR	r0x1012
000119   560d     movra   0xd              	MOVRA	r0x100F
00011a   5814     movar   0x14             	MOVAR	r0x1014
00011b   5c12     orar    0x12             	ORAR	r0x1011
00011c   5611     movra   0x11             	MOVRA	r0x1010
                                           ;;unsigned compare: left < lit(0x2=2), size=1
                                           ;	.line	157; "MC32F7361.c"	if (i < 2)
00011d   3c02     movai   0x2              	MOVAI	0x02
00011e   480e     rsubar  0xe              	RSUBAR	r0x100E
00011f   e187     jbset   0x187, 0         	JBSET	PFLAG,0
000120   a14b     goto    0x14b            	GOTO	_00199_DS_
                                           ;;genSkipc:3291: created from rifx:013B5EFC
                                           ;	.line	159; "MC32F7361.c"	if (g_temp_value > g_adcmax)
000121   5811     movar   0x11             	MOVAR	r0x1010
000122   480c     rsubar  0xc              	RSUBAR	r0x100B
000123   e587     jbset   0x187, 0x2       	JBSET	PFLAG,2
000124   a127     goto    0x127            	GOTO	_00241_DS_
000125   580d     movar   0xd              	MOVAR	r0x100F
000126   480b     rsubar  0xb              	RSUBAR	r0x100A
                                           _00241_DS_
000127   f187     jbclr   0x187, 0         	JBCLR	PFLAG,0
000128   a12d     goto    0x12d            	GOTO	_00196_DS_
                                           ;;genSkipc:3291: created from rifx:013B5EFC
                                           ;	.line	160; "MC32F7361.c"	g_adcmax = g_temp_value; // 
000129   580d     movar   0xd              	MOVAR	r0x100F
00012a   560b     movra   0xb              	MOVRA	r0x100A
00012b   5811     movar   0x11             	MOVAR	r0x1010
00012c   560c     movra   0xc              	MOVRA	r0x100B
                                           _00196_DS_
                                           ;	.line	161; "MC32F7361.c"	if (g_temp_value < g_adcmin)
00012d   580f     movar   0xf              	MOVAR	r0x100D
00012e   4811     rsubar  0x11             	RSUBAR	r0x1010
00012f   e587     jbset   0x187, 0x2       	JBSET	PFLAG,2
000130   a133     goto    0x133            	GOTO	_00242_DS_
000131   5810     movar   0x10             	MOVAR	r0x100C
000132   480d     rsubar  0xd              	RSUBAR	r0x100F
                                           _00242_DS_
000133   f187     jbclr   0x187, 0         	JBCLR	PFLAG,0
000134   a139     goto    0x139            	GOTO	_00198_DS_
                                           ;;genSkipc:3291: created from rifx:013B5EFC
                                           ;	.line	162; "MC32F7361.c"	g_adcmin = g_temp_value; // 
000135   580d     movar   0xd              	MOVAR	r0x100F
000136   5610     movra   0x10             	MOVRA	r0x100C
000137   5811     movar   0x11             	MOVAR	r0x1010
000138   560f     movra   0xf              	MOVRA	r0x100D
                                           ;;116	MOVAR	r0x100F
                                           ;;118	MOVAR	r0x1010
                                           _00198_DS_
                                           ;	.line	163; "MC32F7361.c"	g_tmpbuff += g_temp_value;
000139   7615     clrr    0x15             	CLRR	r0x1013
00013a   7614     clrr    0x14             	CLRR	r0x1014
                                           ;;115	MOVAR	r0x1012
00013b   580d     movar   0xd              	MOVAR	r0x100F
00013c   5616     movra   0x16             	MOVRA	r0x1012
00013d   7e08     addra   0x8              	ADDRA	r0x1006
                                           ;;117	MOVAR	r0x1011
00013e   5811     movar   0x11             	MOVAR	r0x1010
00013f   5612     movra   0x12             	MOVRA	r0x1011
000140   f187     jbclr   0x187, 0         	JBCLR	PFLAG,0
000141   6012     jzar    0x12             	JZAR	r0x1011
000142   7e07     addra   0x7              	ADDRA	r0x1007
000143   5815     movar   0x15             	MOVAR	r0x1013
000144   f187     jbclr   0x187, 0         	JBCLR	PFLAG,0
000145   6015     jzar    0x15             	JZAR	r0x1013
000146   7e09     addra   0x9              	ADDRA	r0x1008
000147   5814     movar   0x14             	MOVAR	r0x1014
000148   f187     jbclr   0x187, 0         	JBCLR	PFLAG,0
000149   6014     jzar    0x14             	JZAR	r0x1014
00014a   7e0a     addra   0xa              	ADDRA	r0x1009
                                           _00199_DS_
                                           ;	.line	150; "MC32F7361.c"	for (i = 0; i < 20; i++)
00014b   660e     incr    0xe              	INCR	r0x100E
                                           ;;unsigned compare: left < lit(0x14=20), size=1
00014c   3c14     movai   0x14             	MOVAI	0x14
00014d   480e     rsubar  0xe              	RSUBAR	r0x100E
00014e   e187     jbset   0x187, 0         	JBSET	PFLAG,0
00014f   a100     goto    0x100            	GOTO	_00201_DS_
                                           ;;genSkipc:3291: created from rifx:013B5EFC
                                           ;;114	MOVAR	r0x100A
                                           ;	.line	165; "MC32F7361.c"	g_tmpbuff -= g_adcmax;           // 
000150   580c     movar   0xc              	MOVAR	r0x100B
000151   560d     movra   0xd              	MOVRA	r0x100F
000152   7611     clrr    0x11             	CLRR	r0x1010
000153   7616     clrr    0x16             	CLRR	r0x1012
                                           ;;113	MOVAR	r0x100E
000154   580b     movar   0xb              	MOVAR	r0x100A
000155   560e     movra   0xe              	MOVRA	r0x100E
000156   4808     rsubar  0x8              	RSUBAR	r0x1006
000157   560b     movra   0xb              	MOVRA	r0x100A
000158   5807     movar   0x7              	MOVAR	r0x1007
000159   560c     movra   0xc              	MOVRA	r0x100B
00015a   580d     movar   0xd              	MOVAR	r0x100F
00015b   e187     jbset   0x187, 0         	JBSET	PFLAG,0
00015c   600d     jzar    0xd              	JZAR	r0x100F
00015d   4a0c     rsubra  0xc              	RSUBRA	r0x100B
00015e   5809     movar   0x9              	MOVAR	r0x1008
00015f   5612     movra   0x12             	MOVRA	r0x1011
000160   5811     movar   0x11             	MOVAR	r0x1010
000161   e187     jbset   0x187, 0         	JBSET	PFLAG,0
000162   6011     jzar    0x11             	JZAR	r0x1010
000163   4a12     rsubra  0x12             	RSUBRA	r0x1011
000164   5816     movar   0x16             	MOVAR	r0x1012
000165   e187     jbset   0x187, 0         	JBSET	PFLAG,0
000166   6416     incar   0x16             	INCAR	r0x1012
000167   480a     rsubar  0xa              	RSUBAR	r0x1009
000168   5615     movra   0x15             	MOVRA	r0x1013
                                           ;;106	MOVAR	r0x100C
                                           ;;108	MOVAR	r0x100D
                                           ;	.line	166; "MC32F7361.c"	g_tmpbuff -= g_adcmin;           // 
000169   7609     clrr    0x9              	CLRR	r0x1008
00016a   760a     clrr    0xa              	CLRR	r0x1009
                                           ;;105	MOVAR	r0x1006
00016b   5810     movar   0x10             	MOVAR	r0x100C
00016c   5608     movra   0x8              	MOVRA	r0x1006
00016d   4a0b     rsubra  0xb              	RSUBRA	r0x100A
                                           ;;107	MOVAR	r0x1007
00016e   580f     movar   0xf              	MOVAR	r0x100D
00016f   5607     movra   0x7              	MOVRA	r0x1007
000170   e187     jbset   0x187, 0         	JBSET	PFLAG,0
000171   6007     jzar    0x7              	JZAR	r0x1007
000172   4a0c     rsubra  0xc              	RSUBRA	r0x100B
000173   5809     movar   0x9              	MOVAR	r0x1008
000174   e187     jbset   0x187, 0         	JBSET	PFLAG,0
000175   6009     jzar    0x9              	JZAR	r0x1008
000176   4a12     rsubra  0x12             	RSUBRA	r0x1011
000177   580a     movar   0xa              	MOVAR	r0x1009
000178   e187     jbset   0x187, 0         	JBSET	PFLAG,0
000179   600a     jzar    0xa              	JZAR	r0x1009
00017a   4a15     rsubra  0x15             	RSUBRA	r0x1013
                                           ;	.line	167; "MC32F7361.c"	g_temp_value = (g_tmpbuff >> 4); // 16
00017b   440b     swapar  0xb              	SWAPAR	r0x100A
00017c   3e0f     andai   0xf              	ANDAI	0x0f
00017d   5608     movra   0x8              	MOVRA	r0x1006
00017e   440c     swapar  0xc              	SWAPAR	r0x100B
00017f   5607     movra   0x7              	MOVRA	r0x1007
000180   3ef0     andai   0xf0             	ANDAI	0xf0
000181   5e08     orra    0x8              	ORRA	r0x1006
000182   4207     xorra   0x7              	XORRA	r0x1007
000183   4412     swapar  0x12             	SWAPAR	r0x1011
000184   5609     movra   0x9              	MOVRA	r0x1008
000185   3ef0     andai   0xf0             	ANDAI	0xf0
000186   5e07     orra    0x7              	ORRA	r0x1007
000187   4209     xorra   0x9              	XORRA	r0x1008
000188   4415     swapar  0x15             	SWAPAR	r0x1013
000189   560a     movra   0xa              	MOVRA	r0x1009
00018a   3ef0     andai   0xf0             	ANDAI	0xf0
00018b   5e09     orra    0x9              	ORRA	r0x1008
00018c   420a     xorra   0xa              	XORRA	r0x1009
                                           ;;110	MOVAR	r0x1006
                                           ;;112	MOVAR	r0x1007
                                           ;;109	MOVAR	r0x100A
                                           ;	.line	169; "MC32F7361.c"	return g_temp_value;
00018d   5808     movar   0x8              	MOVAR	r0x1006
00018e   560b     movra   0xb              	MOVRA	r0x100A
00018f   5606     movra   0x6              	MOVRA	STK00
                                           ;;111	MOVAR	r0x100B
000190   5807     movar   0x7              	MOVAR	r0x1007
000191   560c     movra   0xc              	MOVRA	r0x100B
                                           ;	.line	170; "MC32F7361.c"	}
000192   000c     return                   	RETURN	
                                           ; exit point of _adc_get_val
                                           
                                           ;***
                                           ;  pBlock Stats: dbName = C
                                           ;***
                                           ;entry:  _adc_sel_channel	;Function start
                                           ; 2 exit points
                                           ;has an exit
                                           ;functions called:
                                           ;   _delay_ms
                                           ;   _delay_ms
                                           ;2 compiler assigned registers:
                                           ;   r0x100C
                                           ;   STK00
                                           ;; Starting pCode block
                                           _adc_sel_channel	;Function start
                                           ; 2 exit points
                                           ;	.line	99; "MC32F7361.c"	void adc_sel_channel(u8 adc_channel)
000193   5610     movra   0x10             	MOVRA	r0x100C
                                           ;	.line	103; "MC32F7361.c"	if (last_adc_channel == adc_channel)
000194   5810     movar   0x10             	MOVAR	r0x100C
000195   401f     xorar   0x1f             	XORAR	_adc_sel_channel_last_adc_channel_65536_22
000196   e587     jbset   0x187, 0x2       	JBSET	PFLAG,2
000197   a199     goto    0x199            	GOTO	_00165_DS_
                                           ;	.line	105; "MC32F7361.c"	return;
000198   a1b3     goto    0x1b3            	GOTO	_00170_DS_
                                           _00165_DS_
                                           ;	.line	108; "MC32F7361.c"	last_adc_channel = adc_channel;
000199   5810     movar   0x10             	MOVAR	r0x100C
00019a   561f     movra   0x1f             	MOVRA	_adc_sel_channel_last_adc_channel_65536_22
                                           ;	.line	110; "MC32F7361.c"	switch (adc_channel)
00019b   5810     movar   0x10             	MOVAR	r0x100C
00019c   3901     xorai   0x1              	XORAI	0x01
00019d   e587     jbset   0x187, 0x2       	JBSET	PFLAG,2
00019e   a1a0     goto    0x1a0            	GOTO	_00184_DS_
00019f   a1a6     goto    0x1a6            	GOTO	_00166_DS_
                                           _00184_DS_
0001a0   5810     movar   0x10             	MOVAR	r0x100C
0001a1   3902     xorai   0x2              	XORAI	0x02
0001a2   e587     jbset   0x187, 0x2       	JBSET	PFLAG,2
0001a3   a1a5     goto    0x1a5            	GOTO	_00185_DS_
0001a4   a1ab     goto    0x1ab            	GOTO	_00167_DS_
                                           _00185_DS_
0001a5   a1af     goto    0x1af            	GOTO	_00169_DS_
                                           _00166_DS_
                                           ;	.line	113; "MC32F7361.c"	ADCHS3 = 1;
0001a6   cfb0     bset    0x1b0, 0x7       	BSET	_ADCR0bits,7
                                           ;	.line	114; "MC32F7361.c"	ADCHS2 = 0;
0001a7   ddb0     bclr    0x1b0, 0x6       	BCLR	_ADCR0bits,6
                                           ;	.line	115; "MC32F7361.c"	ADCHS1 = 1;
0001a8   cbb0     bset    0x1b0, 0x5       	BSET	_ADCR0bits,5
                                           ;	.line	116; "MC32F7361.c"	ADCHS0 = 0;
0001a9   d9b0     bclr    0x1b0, 0x4       	BCLR	_ADCR0bits,4
                                           ;	.line	117; "MC32F7361.c"	break;
0001aa   a1af     goto    0x1af            	GOTO	_00169_DS_
                                           _00167_DS_
                                           ;	.line	121; "MC32F7361.c"	ADCHS3 = 0;
0001ab   dfb0     bclr    0x1b0, 0x7       	BCLR	_ADCR0bits,7
                                           ;	.line	122; "MC32F7361.c"	ADCHS2 = 1;
0001ac   cdb0     bset    0x1b0, 0x6       	BSET	_ADCR0bits,6
                                           ;	.line	123; "MC32F7361.c"	ADCHS1 = 1;
0001ad   cbb0     bset    0x1b0, 0x5       	BSET	_ADCR0bits,5
                                           ;	.line	124; "MC32F7361.c"	ADCHS0 = 0;
0001ae   d9b0     bclr    0x1b0, 0x4       	BCLR	_ADCR0bits,4
                                           _00169_DS_
                                           ;	.line	137; "MC32F7361.c"	delay_ms(1); // adc
0001af   3c01     movai   0x1              	MOVAI	0x01
0001b0   5606     movra   0x6              	MOVRA	STK00
0001b1   3c00     movai   0                	MOVAI	0x00
0001b2   823b     call    0x23b            	CALL	_delay_ms
                                           _00170_DS_
                                           ;	.line	138; "MC32F7361.c"	}
0001b3   000c     return                   	RETURN	
                                           ; exit point of _adc_sel_channel
                                           
                                           ;***
                                           ;  pBlock Stats: dbName = C
                                           ;***
                                           ;entry:  _timer0_pwm_config	;Function start
                                           ; 2 exit points
                                           ;has an exit
                                           ;; Starting pCode block
                                           _timer0_pwm_config	;Function start
                                           ; 2 exit points
                                           ;	.line	85; "MC32F7361.c"	T0CR = 0x49; // PWM,FTMR,2 (0.03125us)
0001b4   3c49     movai   0x49             	MOVAI	0x49
0001b5   5798     movra   0x198            	MOVRA	_T0CR
                                           ;	.line	88; "MC32F7361.c"	T0LOAD = (128 + 10) - 1; //
0001b6   3c89     movai   0x89             	MOVAI	0x89
0001b7   579a     movra   0x19a            	MOVRA	_T0LOAD
                                           ;	.line	89; "MC32F7361.c"	T0DATA = 64 + 10;
0001b8   3c4a     movai   0x4a             	MOVAI	0x4a
0001b9   579b     movra   0x19b            	MOVRA	_T0DATA
                                           ;	.line	90; "MC32F7361.c"	PWMCR0 = 0x00; // 
0001ba   77ac     clrr    0x1ac            	CLRR	_PWMCR0
                                           ;	.line	91; "MC32F7361.c"	PWMCR1 = 0x18; // FHOSC  2  
0001bb   3c18     movai   0x18             	MOVAI	0x18
0001bc   57ad     movra   0x1ad            	MOVRA	_PWMCR1
                                           ;	.line	95; "MC32F7361.c"	T0EN = 0;   // 
0001bd   df98     bclr    0x198, 0x7       	BCLR	_T0CRbits,7
                                           ;	.line	96; "MC32F7361.c"	PWM0EC = 0; // PWM0
0001be   dd98     bclr    0x198, 0x6       	BCLR	_T0CRbits,6
                                           ;	.line	97; "MC32F7361.c"	}
0001bf   000c     return                   	RETURN	
                                           ; exit point of _timer0_pwm_config
                                           
                                           ;***
                                           ;  pBlock Stats: dbName = C
                                           ;***
                                           ;entry:  _adc_config	;Function start
                                           ; 2 exit points
                                           ;has an exit
                                           ;; Starting pCode block
                                           _adc_config	;Function start
                                           ; 2 exit points
                                           ;	.line	68; "MC32F7361.c"	P11OE = 0; // 
0001c0   d395     bclr    0x195, 0x1       	BCLR	_OEP1bits,1
                                           ;	.line	69; "MC32F7361.c"	P11DC = 1; // 
0001c1   c3b7     bset    0x1b7, 0x1       	BSET	_P1ADCRbits,1
                                           ;	.line	76; "MC32F7361.c"	ADCR0 = 0x0B; // 12adc
0001c2   3c0b     movai   0xb              	MOVAI	0x0b
0001c3   57b0     movra   0x1b0            	MOVRA	_ADCR0
                                           ;	.line	77; "MC32F7361.c"	ADCR1 = 0x80; // adc FHIRC/322.0V
0001c4   3c80     movai   0x80             	MOVAI	0x80
0001c5   57b1     movra   0x1b1            	MOVRA	_ADCR1
                                           ;	.line	78; "MC32F7361.c"	ADCR2 = 0x0F; // 15  ADCLK
0001c6   3c0f     movai   0xf              	MOVAI	0x0f
0001c7   57b2     movra   0x1b2            	MOVRA	_ADCR2
                                           ;	.line	79; "MC32F7361.c"	}
0001c8   000c     return                   	RETURN	
                                           ; exit point of _adc_config
                                           
                                           ;***
                                           ;  pBlock Stats: dbName = C
                                           ;***
                                           ;entry:  _IO_Init	;Function start
                                           ; 2 exit points
                                           ;has an exit
                                           ;; Starting pCode block
                                           _IO_Init	;Function start
                                           ; 2 exit points
                                           ;	.line	37; "MC32F7361.c"	IOP0 = 0x00;   // io
0001c9   7790     clrr    0x190            	CLRR	_IOP0
                                           ;	.line	38; "MC32F7361.c"	OEP0 = 0x3F;   // io 1:out  0:in
0001ca   3c3f     movai   0x3f             	MOVAI	0x3f
0001cb   5791     movra   0x191            	MOVRA	_OEP0
                                           ;	.line	39; "MC32F7361.c"	PUP0 = 0x00;   // io   1:enable  0:disable
0001cc   7792     clrr    0x192            	CLRR	_PUP0
                                           ;	.line	40; "MC32F7361.c"	PDP0 = 0x00;   // io   1:enable  0:disable
0001cd   7793     clrr    0x193            	CLRR	_PDP0
                                           ;	.line	41; "MC32F7361.c"	P0ADCR = 0x00; // io  1:  0:io
0001ce   77b6     clrr    0x1b6            	CLRR	_P0ADCR
                                           ;	.line	43; "MC32F7361.c"	IOP1 = 0x00;   // io
0001cf   7794     clrr    0x194            	CLRR	_IOP1
                                           ;	.line	44; "MC32F7361.c"	OEP1 = 0xFF;   // io 1:out  0:in
0001d0   3cff     movai   0xff             	MOVAI	0xff
0001d1   5795     movra   0x195            	MOVRA	_OEP1
                                           ;	.line	45; "MC32F7361.c"	PUP1 = 0x00;   // io   1:enable  0:disable
0001d2   7796     clrr    0x196            	CLRR	_PUP1
                                           ;	.line	46; "MC32F7361.c"	PDP1 = 0x00;   // io   1:enable  0:disable
0001d3   7797     clrr    0x197            	CLRR	_PDP1
                                           ;	.line	47; "MC32F7361.c"	P1ADCR = 0x00; // io  1:  0:io
0001d4   77b7     clrr    0x1b7            	CLRR	_P1ADCR
                                           ;	.line	49; "MC32F7361.c"	IOP2 = 0x00; // io
0001d5   77b8     clrr    0x1b8            	CLRR	_IOP2
                                           ;	.line	50; "MC32F7361.c"	OEP2 = 0x0F; // io 1:out  0:in
0001d6   3c0f     movai   0xf              	MOVAI	0x0f
0001d7   57b9     movra   0x1b9            	MOVRA	_OEP2
                                           ;	.line	51; "MC32F7361.c"	PUP2 = 0x00; // io   1:enable  0:disable
0001d8   77ba     clrr    0x1ba            	CLRR	_PUP2
                                           ;	.line	52; "MC32F7361.c"	PDP2 = 0x00; // io   1:enable  0:disablea
0001d9   77bb     clrr    0x1bb            	CLRR	_PDP2
                                           ;	.line	54; "MC32F7361.c"	PMOD = 0x00;  // P00P01P13 io
0001da   77bc     clrr    0x1bc            	CLRR	_PMOD
                                           ;	.line	55; "MC32F7361.c"	DRVCR = 0x80; // 
0001db   3c80     movai   0x80             	MOVAI	0x80
0001dc   578c     movra   0x18c            	MOVRA	_DRVCR
                                           ;	.line	56; "MC32F7361.c"	}
0001dd   000c     return                   	RETURN	
                                           ; exit point of _IO_Init
                                           
                                           ;***
                                           ;  pBlock Stats: dbName = C
                                           ;***
                                           ;entry:  _CLR_RAM	;Function start
                                           ; 2 exit points
                                           ;has an exit
                                           ;; Starting pCode block
                                           _CLR_RAM	;Function start
                                           ; 2 exit points
                                           ;	.line	22; "MC32F7361.c"	for (FSR0 = 0; FSR0 < 0xff; FSR0++)
0001de   7784     clrr    0x184            	CLRR	_FSR0
                                           ;;unsigned compare: left < lit(0xFF=255), size=1
                                           _00147_DS_
0001df   3cff     movai   0xff             	MOVAI	0xff
0001e0   4984     rsubar  0x184            	RSUBAR	_FSR0
0001e1   f187     jbclr   0x187, 0         	JBCLR	PFLAG,0
0001e2   a1e6     goto    0x1e6            	GOTO	_00145_DS_
                                           ;;genSkipc:3291: created from rifx:013B5EFC
                                           ;	.line	24; "MC32F7361.c"	INDF0 = 0x00;
0001e3   7780     clrr    0x180            	CLRR	_INDF0
                                           ;	.line	22; "MC32F7361.c"	for (FSR0 = 0; FSR0 < 0xff; FSR0++)
0001e4   6784     incr    0x184            	INCR	_FSR0
0001e5   a1df     goto    0x1df            	GOTO	_00147_DS_
                                           _00145_DS_
                                           ;	.line	26; "MC32F7361.c"	FSR0 = 0xFF;
0001e6   3cff     movai   0xff             	MOVAI	0xff
0001e7   5784     movra   0x184            	MOVRA	_FSR0
                                           ;	.line	27; "MC32F7361.c"	INDF0 = 0x00;
0001e8   7780     clrr    0x180            	CLRR	_INDF0
                                           ;	.line	28; "MC32F7361.c"	}
0001e9   000c     return                   	RETURN	
                                           ; exit point of _CLR_RAM
                                           
                                           ;***
                                           ;  pBlock Stats: dbName = C
                                           ;***
                                           ;entry:  _send_data_msb	;Function start
                                           ; 2 exit points
                                           ;has an exit
                                           ;functions called:
                                           ;   _delay_ms
                                           ;   _delay_ms
                                           ;   _delay_ms
                                           ;   _delay_ms
                                           ;   _delay_ms
                                           ;   _delay_ms
                                           ;   _delay_ms
                                           ;   _delay_ms
                                           ;   _delay_ms
                                           ;   _delay_ms
                                           ;   _delay_ms
                                           ;   _delay_ms
                                           ;   _delay_ms
                                           ;   _delay_ms
                                           ;   _delay_ms
                                           ;   _delay_ms
                                           ;13 compiler assigned registers:
                                           ;   r0x100C
                                           ;   STK00
                                           ;   r0x100D
                                           ;   STK01
                                           ;   r0x100E
                                           ;   STK02
                                           ;   r0x100F
                                           ;   r0x1010
                                           ;   r0x1011
                                           ;   r0x1012
                                           ;   r0x1013
                                           ;   r0x1014
                                           ;   r0x1015
                                           ;; Starting pCode block
                                           _send_data_msb	;Function start
                                           ; 2 exit points
                                           ;	.line	172; "user.h"	void send_data_msb(u32 send_data)
0001ea   5610     movra   0x10             	MOVRA	r0x100C
0001eb   5806     movar   0x6              	MOVAR	STK00
0001ec   560f     movra   0xf              	MOVRA	r0x100D
0001ed   5805     movar   0x5              	MOVAR	STK01
0001ee   560e     movra   0xe              	MOVRA	r0x100E
0001ef   5804     movar   0x4              	MOVAR	STK02
0001f0   560d     movra   0xd              	MOVRA	r0x100F
                                           ;	.line	176; "user.h"	DEBUG_PIN = 1;
0001f1   c5b8     bset    0x1b8, 0x2       	BSET	_IOP2bits,2
                                           ;	.line	177; "user.h"	delay_ms(15);
0001f2   3c0f     movai   0xf              	MOVAI	0x0f
0001f3   5606     movra   0x6              	MOVRA	STK00
0001f4   3c00     movai   0                	MOVAI	0x00
0001f5   823b     call    0x23b            	CALL	_delay_ms
                                           ;	.line	179; "user.h"	DEBUG_PIN = 0;
0001f6   d5b8     bclr    0x1b8, 0x2       	BCLR	_IOP2bits,2
                                           ;	.line	180; "user.h"	delay_ms(7); //
0001f7   3c07     movai   0x7              	MOVAI	0x07
0001f8   5606     movra   0x6              	MOVRA	STK00
0001f9   3c00     movai   0                	MOVAI	0x00
0001fa   823b     call    0x23b            	CALL	_delay_ms
                                           ;	.line	182; "user.h"	for (u8 i = 0; i < 32; i++)
0001fb   7611     clrr    0x11             	CLRR	r0x1010
                                           ;;unsigned compare: left < lit(0x20=32), size=1
                                           _00121_DS_
0001fc   3c20     movai   0x20             	MOVAI	0x20
0001fd   4811     rsubar  0x11             	RSUBAR	r0x1010
0001fe   f187     jbclr   0x187, 0         	JBCLR	PFLAG,0
0001ff   a22f     goto    0x22f            	GOTO	_00119_DS_
                                           ;;genSkipc:3291: created from rifx:013B5EFC
                                           ;	.line	184; "user.h"	if ((send_data >> (32 - 1 - i)) & 0x01)
000200   5811     movar   0x11             	MOVAR	r0x1010
000201   3a1f     isubai  0x1f             	ISUBAI	0x1f
000202   5612     movra   0x12             	MOVRA	r0x1011
000203   5810     movar   0x10             	MOVAR	r0x100C
000204   5616     movra   0x16             	MOVRA	r0x1012
000205   580f     movar   0xf              	MOVAR	r0x100D
000206   5615     movra   0x15             	MOVRA	r0x1013
000207   580e     movar   0xe              	MOVAR	r0x100E
000208   5614     movra   0x14             	MOVRA	r0x1014
000209   580d     movar   0xd              	MOVAR	r0x100F
00020a   5613     movra   0x13             	MOVRA	r0x1015
00020b   5812     movar   0x12             	MOVAR	r0x1011
00020c   3a00     isubai  0                	ISUBAI	0x00
00020d   f587     jbclr   0x187, 0x2       	JBCLR	PFLAG,2
00020e   a216     goto    0x216            	GOTO	_00140_DS_
                                           _00139_DS_
00020f   4e16     rrr     0x16             	RRR	r0x1012
000210   4e15     rrr     0x15             	RRR	r0x1013
000211   4e14     rrr     0x14             	RRR	r0x1014
000212   4e13     rrr     0x13             	RRR	r0x1015
000213   3f01     addai   0x1              	ADDAI	0x01
000214   e187     jbset   0x187, 0         	JBSET	PFLAG,0
000215   a20f     goto    0x20f            	GOTO	_00139_DS_
                                           _00140_DS_
000216   e013     jbset   0x13, 0          	JBSET	r0x1015,0
000217   a223     goto    0x223            	GOTO	_00117_DS_
                                           ;	.line	188; "user.h"	DEBUG_PIN = 1;
000218   c5b8     bset    0x1b8, 0x2       	BSET	_IOP2bits,2
                                           ;	.line	189; "user.h"	delay_ms(5); //
000219   3c05     movai   0x5              	MOVAI	0x05
00021a   5606     movra   0x6              	MOVRA	STK00
00021b   3c00     movai   0                	MOVAI	0x00
00021c   823b     call    0x23b            	CALL	_delay_ms
                                           ;	.line	191; "user.h"	DEBUG_PIN = 0;
00021d   d5b8     bclr    0x1b8, 0x2       	BCLR	_IOP2bits,2
                                           ;	.line	192; "user.h"	delay_ms(10); //
00021e   3c0a     movai   0xa              	MOVAI	0x0a
00021f   5606     movra   0x6              	MOVRA	STK00
000220   3c00     movai   0                	MOVAI	0x00
000221   823b     call    0x23b            	CALL	_delay_ms
000222   a22d     goto    0x22d            	GOTO	_00122_DS_
                                           _00117_DS_
                                           ;	.line	198; "user.h"	DEBUG_PIN = 1;
000223   c5b8     bset    0x1b8, 0x2       	BSET	_IOP2bits,2
                                           ;	.line	199; "user.h"	delay_ms(5); //
000224   3c05     movai   0x5              	MOVAI	0x05
000225   5606     movra   0x6              	MOVRA	STK00
000226   3c00     movai   0                	MOVAI	0x00
000227   823b     call    0x23b            	CALL	_delay_ms
                                           ;	.line	201; "user.h"	DEBUG_PIN = 0;
000228   d5b8     bclr    0x1b8, 0x2       	BCLR	_IOP2bits,2
                                           ;	.line	202; "user.h"	delay_ms(5); //
000229   3c05     movai   0x5              	MOVAI	0x05
00022a   5606     movra   0x6              	MOVRA	STK00
00022b   3c00     movai   0                	MOVAI	0x00
00022c   823b     call    0x23b            	CALL	_delay_ms
                                           _00122_DS_
                                           ;	.line	182; "user.h"	for (u8 i = 0; i < 32; i++)
00022d   6611     incr    0x11             	INCR	r0x1010
00022e   a1fc     goto    0x1fc            	GOTO	_00121_DS_
                                           _00119_DS_
                                           ;	.line	208; "user.h"	DEBUG_PIN = 0;
00022f   d5b8     bclr    0x1b8, 0x2       	BCLR	_IOP2bits,2
                                           ;	.line	209; "user.h"	delay_ms(1);
000230   3c01     movai   0x1              	MOVAI	0x01
000231   5606     movra   0x6              	MOVRA	STK00
000232   3c00     movai   0                	MOVAI	0x00
000233   823b     call    0x23b            	CALL	_delay_ms
                                           ;	.line	210; "user.h"	DEBUG_PIN = 1;
000234   c5b8     bset    0x1b8, 0x2       	BSET	_IOP2bits,2
                                           ;	.line	211; "user.h"	delay_ms(1);
000235   3c01     movai   0x1              	MOVAI	0x01
000236   5606     movra   0x6              	MOVRA	STK00
000237   3c00     movai   0                	MOVAI	0x00
000238   823b     call    0x23b            	CALL	_delay_ms
                                           ;	.line	212; "user.h"	DEBUG_PIN = 0;
000239   d5b8     bclr    0x1b8, 0x2       	BCLR	_IOP2bits,2
                                           ;	.line	213; "user.h"	}
00023a   000c     return                   	RETURN	
                                           ; exit point of _send_data_msb
                                           
                                           ;***
                                           ;  pBlock Stats: dbName = C
                                           ;***
                                           ;entry:  _delay_ms	;Function start
                                           ; 2 exit points
                                           ;has an exit
                                           ;7 compiler assigned registers:
                                           ;   r0x1006
                                           ;   STK00
                                           ;   r0x1007
                                           ;   r0x1008
                                           ;   r0x1009
                                           ;   r0x100A
                                           ;   r0x100B
                                           ;; Starting pCode block
                                           _delay_ms	;Function start
                                           ; 2 exit points
                                           ;	.line	150; "user.h"	void delay_ms(u16 xms)
00023b   5608     movra   0x8              	MOVRA	r0x1006
00023c   5806     movar   0x6              	MOVAR	STK00
00023d   5607     movra   0x7              	MOVRA	r0x1007
                                           _00108_DS_
                                           ;	.line	152; "user.h"	while (xms)
00023e   5807     movar   0x7              	MOVAR	r0x1007
00023f   5c08     orar    0x8              	ORAR	r0x1006
000240   f587     jbclr   0x187, 0x2       	JBCLR	PFLAG,2
000241   a25a     goto    0x25a            	GOTO	_00111_DS_
                                           ;	.line	155; "user.h"	while (i--)
000242   3c3c     movai   0x3c             	MOVAI	0x3c
000243   5609     movra   0x9              	MOVRA	r0x1008
000244   3c02     movai   0x2              	MOVAI	0x02
000245   560a     movra   0xa              	MOVRA	r0x1009
                                           _00105_DS_
000246   5809     movar   0x9              	MOVAR	r0x1008
000247   560b     movra   0xb              	MOVRA	r0x100A
000248   580a     movar   0xa              	MOVAR	r0x1009
000249   560c     movra   0xc              	MOVRA	r0x100B
00024a   3cff     movai   0xff             	MOVAI	0xff
00024b   7e09     addra   0x9              	ADDRA	r0x1008
00024c   e187     jbset   0x187, 0         	JBSET	PFLAG,0
00024d   6e0a     decr    0xa              	DECR	r0x1009
00024e   580b     movar   0xb              	MOVAR	r0x100A
00024f   5c0c     orar    0xc              	ORAR	r0x100B
000250   f587     jbclr   0x187, 0x2       	JBCLR	PFLAG,2
000251   a254     goto    0x254            	GOTO	_00107_DS_
                                           ;	.line	157; "user.h"	Nop();
000252   0000     nop                      	nop	
000253   a246     goto    0x246            	GOTO	_00105_DS_
                                           _00107_DS_
                                           ;	.line	159; "user.h"	xms--; //  --while()
000254   3cff     movai   0xff             	MOVAI	0xff
000255   7e07     addra   0x7              	ADDRA	r0x1007
000256   e187     jbset   0x187, 0         	JBSET	PFLAG,0
000257   6e08     decr    0x8              	DECR	r0x1006
                                           ;	.line	163; "user.h"	__endasm;
                                           	;
000258   000e     clrwdt                   	clrwdt;
                                           	
000259   a23e     goto    0x23e            	GOTO	_00108_DS_
                                           _00111_DS_
                                           ;	.line	165; "user.h"	}
00025a   000c     return                   	RETURN	
                                           ; exit point of _delay_ms
                                           
                                           
                                           ;	code size estimation:
                                           ;	  585+    0 =   585 instructions ( 1170 byte)
                                           
                                           	end
                                           ;--------------------------------------------------------
                                           ; File Created by SN-SDCC : SinoMCU ANSI-C Compiler
                                           ; Version 2.0.0 (Dec 11 2019) (MINGW32)
                                           ; This file was generated Fri Jan 10 17:02:24 2025
                                           ;--------------------------------------------------------
                                           ; MC32 port for the RISC core
                                           ;--------------------------------------------------------
                                           ;	.file	"MC32F7361.c"
                                           	list	p=7361
                                           	radix dec
                                           	include "7361.inc"
                                           ;--------------------------------------------------------
                                           ; external declarations
                                           ;--------------------------------------------------------
                                           	extern	_INDF0bits
                                           	extern	_INDF1bits
                                           	extern	_INDF2bits
                                           	extern	_HIBYTEbits
                                           	extern	_FSR0bits
                                           	extern	_FSR1bits
                                           	extern	_PCLbits
                                           	extern	_PFLAGbits
                                           	extern	_MCRbits
                                           	extern	_INDF3bits
                                           	extern	_INTEbits
                                           	extern	_INTFbits
                                           	extern	_DRVCRbits
                                           	extern	_P0KBCRbits
                                           	extern	_P1KBCRbits
                                           	extern	_P2KBCRbits
                                           	extern	_IOP0bits
                                           	extern	_OEP0bits
                                           	extern	_PUP0bits
                                           	extern	_PDP0bits
                                           	extern	_IOP1bits
                                           	extern	_OEP1bits
                                           	extern	_PUP1bits
                                           	extern	_PDP1bits
                                           	extern	_T0CRbits
                                           	extern	_T0CNTbits
                                           	extern	_T0LOADbits
                                           	extern	_T0DATAbits
                                           	extern	_T1CRbits
                                           	extern	_T1CNTbits
                                           	extern	_T1LOADbits
                                           	extern	_T1DATAbits
                                           	extern	_T2CRbits
                                           	extern	_T2CNTbits
                                           	extern	_T2LOADbits
                                           	extern	_T2DATAbits
                                           	extern	_T3CRbits
                                           	extern	_T3CNTbits
                                           	extern	_T3LOADbits
                                           	extern	_PWM0DRbits
                                           	extern	_PWM1DRbits
                                           	extern	_PWM2DRbits
                                           	extern	_PWMCR0bits
                                           	extern	_PWMCR1bits
                                           	extern	_OSCMRbits
                                           	extern	_LVDCRbits
                                           	extern	_ADCR0bits
                                           	extern	_ADCR1bits
                                           	extern	_ADCR2bits
                                           	extern	_OSADJCRbits
                                           	extern	_ADRHbits
                                           	extern	_ADRLbits
                                           	extern	_P0ADCRbits
                                           	extern	_P1ADCRbits
                                           	extern	_IOP2bits
                                           	extern	_OEP2bits
                                           	extern	_PUP2bits
                                           	extern	_PDP2bits
                                           	extern	_PMODbits
                                           	extern	_PWMCR3bits
                                           	extern	_PWMCR2bits
                                           	extern	_PFRCCRbits
                                           	extern	_PFRCCALbits
                                           	extern	_EECRbits
                                           	extern	_EEPRbits
                                           	extern	_EEARbits
                                           	extern	_EEDRHbits
                                           	extern	_EEDRLbits
                                           	extern	_DBGCRbits
                                           	extern	_DBGPRbits
                                           	extern	_HIRCCALbits
                                           	extern	_INDF0
                                           	extern	_INDF1
                                           	extern	_INDF2
                                           	extern	_HIBYTE
                                           	extern	_FSR0
                                           	extern	_FSR1
                                           	extern	_PCL
                                           	extern	_PFLAG
                                           	extern	_MCR
                                           	extern	_INDF3
                                           	extern	_INTE
                                           	extern	_INTF
                                           	extern	_DRVCR
                                           	extern	_P0KBCR
                                           	extern	_P1KBCR
                                           	extern	_P2KBCR
                                           	extern	_IOP0
                                           	extern	_OEP0
                                           	extern	_PUP0
                                           	extern	_PDP0
                                           	extern	_IOP1
                                           	extern	_OEP1
                                           	extern	_PUP1
                                           	extern	_PDP1
                                           	extern	_T0CR
                                           	extern	_T0CNT
                                           	extern	_T0LOAD
                                           	extern	_T0DATA
                                           	extern	_T1CR
                                           	extern	_T1CNT
                                           	extern	_T1LOAD
                                           	extern	_T1DATA
                                           	extern	_T2CR
                                           	extern	_T2CNT
                                           	extern	_T2LOAD
                                           	extern	_T2DATA
                                           	extern	_T3CR
                                           	extern	_T3CNT
                                           	extern	_T3LOAD
                                           	extern	_PWM0DR
                                           	extern	_PWM1DR
                                           	extern	_PWM2DR
                                           	extern	_PWMCR0
                                           	extern	_PWMCR1
                                           	extern	_OSCMR
                                           	extern	_LVDCR
                                           	extern	_ADCR0
                                           	extern	_ADCR1
                                           	extern	_ADCR2
                                           	extern	_OSADJCR
                                           	extern	_ADRH
                                           	extern	_ADRL
                                           	extern	_P0ADCR
                                           	extern	_P1ADCR
                                           	extern	_IOP2
                                           	extern	_OEP2
                                           	extern	_PUP2
                                           	extern	_PDP2
                                           	extern	_PMOD
                                           	extern	_PWMCR3
                                           	extern	_PWMCR2
                                           	extern	_PFRCCR
                                           	extern	_PFRCCAL
                                           	extern	_EECR
                                           	extern	_EEPR
                                           	extern	_EEAR
                                           	extern	_EEDRH
                                           	extern	_EEDRL
                                           	extern	_DBGCR
                                           	extern	_DBGPR
                                           	extern	_HIRCCAL
                                           ;--------------------------------------------------------
                                           ; global declarations
                                           ;--------------------------------------------------------
                                           	global	_delay_ms
                                           	global	_send_data_msb
                                           	global	_CLR_RAM
                                           	global	_IO_Init
                                           	global	_adc_config
                                           	global	_timer0_pwm_config
                                           	global	_adc_sel_channel
                                           	global	_adc_get_val
                                           	global	_adc_get_val_once
                                           	global	_key_event_handle
                                           	global	_Sys_Init
                                           	global	_charge_scan
                                           	global	_power_on_scan
                                           	global	_main
                                           	global	_int_isr
                                           	global	_abuf
                                           	global	_statusbuf
                                           	global	_i
                                           	global	_cnt
                                           	global	_adc_val
                                           	global	_flag1
                                           
                                           	global STK06
                                           	global STK05
                                           	global STK04
                                           	global STK03
                                           	global STK02
                                           	global STK01
                                           	global STK00
                                           
                                           sharebank udata_ovr 0x0000
                                           STK06	res 1
                                           STK05	res 1
                                           STK04	res 1
                                           STK03	res 1
                                           STK02	res 1
                                           STK01	res 1
                                           STK00	res 1
                                           
                                           ;--------------------------------------------------------
                                           ; global definitions
                                           ;--------------------------------------------------------
                                           UD_MC32F7361_0	udata
                                           _abuf	res	1
                                           
                                           UD_MC32F7361_1	udata
                                           _statusbuf	res	1
                                           
                                           UD_MC32F7361_2	udata
                                           _i	res	1
                                           
                                           UD_MC32F7361_3	udata
                                           _cnt	res	1
                                           
                                           UD_MC32F7361_4	udata
                                           _adc_val	res	2
                                           
                                           UD_MC32F7361_5	udata
                                           _flag1	res	1
                                           
                                           ;--------------------------------------------------------
                                           ; absolute symbol definitions
                                           ;--------------------------------------------------------
                                           ;--------------------------------------------------------
                                           ; compiler-defined variables
                                           ;--------------------------------------------------------
                                           UDL_MC32F7361_0	udata
                                           r0x1007	res	1
                                           r0x1006	res	1
                                           r0x1008	res	1
                                           r0x1009	res	1
                                           r0x100A	res	1
                                           r0x100B	res	1
                                           r0x100F	res	1
                                           r0x100E	res	1
                                           r0x100D	res	1
                                           r0x100C	res	1
                                           r0x1010	res	1
                                           r0x1011	res	1
                                           r0x1015	res	1
                                           r0x1014	res	1
                                           r0x1013	res	1
                                           r0x1012	res	1
                                           r0x101A	res	1
                                           r0x101B	res	1
                                           r0x101D	res	1
                                           r0x101C	res	1
                                           r0x1016	res	1
                                           r0x1017	res	1
                                           r0x1020	res	1
                                           r0x1021	res	1
                                           _adc_sel_channel_last_adc_channel_65536_22	res	1
                                           ;--------------------------------------------------------
                                           ; initialized data
                                           ;--------------------------------------------------------
                                           
                                           ;@Allocation info for local variables in function 'delay_ms'
                                           ;@delay_ms delay_ms                  Allocated to registers ;size:2
                                           ;@delay_ms INDF0bits                 Allocated to registers ;size:1
                                           ;@delay_ms INDF1bits                 Allocated to registers ;size:1
                                           ;@delay_ms INDF2bits                 Allocated to registers ;size:1
                                           ;@delay_ms HIBYTEbits                Allocated to registers ;size:1
                                           ;@delay_ms FSR0bits                  Allocated to registers ;size:1
                                           ;@delay_ms FSR1bits                  Allocated to registers ;size:1
                                           ;@delay_ms PCLbits                   Allocated to registers ;size:1
                                           ;@delay_ms PFLAGbits                 Allocated to registers ;size:1
                                           ;@delay_ms MCRbits                   Allocated to registers ;size:1
                                           ;@delay_ms INDF3bits                 Allocated to registers ;size:1
                                           ;@delay_ms INTEbits                  Allocated to registers ;size:1
                                           ;@delay_ms INTFbits                  Allocated to registers ;size:1
                                           ;@delay_ms DRVCRbits                 Allocated to registers ;size:1
                                           ;@delay_ms P0KBCRbits                Allocated to registers ;size:1
                                           ;@delay_ms P1KBCRbits                Allocated to registers ;size:1
                                           ;@delay_ms P2KBCRbits                Allocated to registers ;size:1
                                           ;@delay_ms IOP0bits                  Allocated to registers ;size:1
                                           ;@delay_ms OEP0bits                  Allocated to registers ;size:1
                                           ;@delay_ms PUP0bits                  Allocated to registers ;size:1
                                           ;@delay_ms PDP0bits                  Allocated to registers ;size:1
                                           ;@delay_ms IOP1bits                  Allocated to registers ;size:1
                                           ;@delay_ms OEP1bits                  Allocated to registers ;size:1
                                           ;@delay_ms PUP1bits                  Allocated to registers ;size:1
                                           ;@delay_ms PDP1bits                  Allocated to registers ;size:1
                                           ;@delay_ms T0CRbits                  Allocated to registers ;size:1
                                           ;@delay_ms T0CNTbits                 Allocated to registers ;size:1
                                           ;@delay_ms T0LOADbits                Allocated to registers ;size:1
                                           ;@delay_ms T0DATAbits                Allocated to registers ;size:1
                                           ;@delay_ms T1CRbits                  Allocated to registers ;size:1
                                           ;@delay_ms T1CNTbits                 Allocated to registers ;size:1
                                           ;@delay_ms T1LOADbits                Allocated to registers ;size:1
                                           ;@delay_ms T1DATAbits                Allocated to registers ;size:1
                                           ;@delay_ms T2CRbits                  Allocated to registers ;size:1
                                           ;@delay_ms T2CNTbits                 Allocated to registers ;size:1
                                           ;@delay_ms T2LOADbits                Allocated to registers ;size:1
                                           ;@delay_ms T2DATAbits                Allocated to registers ;size:1
                                           ;@delay_ms T3CRbits                  Allocated to registers ;size:1
                                           ;@delay_ms T3CNTbits                 Allocated to registers ;size:1
                                           ;@delay_ms T3LOADbits                Allocated to registers ;size:1
                                           ;@delay_ms PWM0DRbits                Allocated to registers ;size:1
                                           ;@delay_ms PWM1DRbits                Allocated to registers ;size:1
                                           ;@delay_ms PWM2DRbits                Allocated to registers ;size:1
                                           ;@delay_ms PWMCR0bits                Allocated to registers ;size:1
                                           ;@delay_ms PWMCR1bits                Allocated to registers ;size:1
                                           ;@delay_ms OSCMRbits                 Allocated to registers ;size:1
                                           ;@delay_ms LVDCRbits                 Allocated to registers ;size:1
                                           ;@delay_ms ADCR0bits                 Allocated to registers ;size:1
                                           ;@delay_ms ADCR1bits                 Allocated to registers ;size:1
                                           ;@delay_ms ADCR2bits                 Allocated to registers ;size:1
                                           ;@delay_ms OSADJCRbits               Allocated to registers ;size:1
                                           ;@delay_ms ADRHbits                  Allocated to registers ;size:1
                                           ;@delay_ms ADRLbits                  Allocated to registers ;size:1
                                           ;@delay_ms P0ADCRbits                Allocated to registers ;size:1
                                           ;@delay_ms P1ADCRbits                Allocated to registers ;size:1
                                           ;@delay_ms IOP2bits                  Allocated to registers ;size:1
                                           ;@delay_ms OEP2bits                  Allocated to registers ;size:1
                                           ;@delay_ms PUP2bits                  Allocated to registers ;size:1
                                           ;@delay_ms PDP2bits                  Allocated to registers ;size:1
                                           ;@delay_ms PMODbits                  Allocated to registers ;size:1
                                           ;@delay_ms PWMCR3bits                Allocated to registers ;size:1
                                           ;@delay_ms PWMCR2bits                Allocated to registers ;size:1
                                           ;@delay_ms PFRCCRbits                Allocated to registers ;size:1
                                           ;@delay_ms PFRCCALbits               Allocated to registers ;size:1
                                           ;@delay_ms EECRbits                  Allocated to registers ;size:1
                                           ;@delay_ms EEPRbits                  Allocated to registers ;size:1
                                           ;@delay_ms EEARbits                  Allocated to registers ;size:1
                                           ;@delay_ms EEDRHbits                 Allocated to registers ;size:1
                                           ;@delay_ms EEDRLbits                 Allocated to registers ;size:1
                                           ;@delay_ms DBGCRbits                 Allocated to registers ;size:1
                                           ;@delay_ms DBGPRbits                 Allocated to registers ;size:1
                                           ;@delay_ms HIRCCALbits               Allocated to registers ;size:1
                                           ;@delay_ms abuf                      Allocated to registers ;size:1
                                           ;@delay_ms statusbuf                 Allocated to registers ;size:1
                                           ;@delay_ms i                         Allocated to registers ;size:1
                                           ;@delay_ms cnt                       Allocated to registers ;size:1
                                           ;@delay_ms adc_val                   Allocated to registers ;size:2
                                           ;@delay_ms flag1                     Allocated to registers ;size:1
                                           ;@delay_ms xms                       Allocated to registers ;size:2
                                           ;@delay_ms i                         Allocated to registers r0x1008 r0x1009 ;size:2
                                           ;@delay_ms INDF0                     Allocated to registers ;size:1
                                           ;@delay_ms INDF1                     Allocated to registers ;size:1
                                           ;@delay_ms INDF2                     Allocated to registers ;size:1
                                           ;@delay_ms HIBYTE                    Allocated to registers ;size:1
                                           ;@delay_ms FSR0                      Allocated to registers ;size:1
                                           ;@delay_ms FSR1                      Allocated to registers ;size:1
                                           ;@delay_ms PCL                       Allocated to registers ;size:1
                                           ;@delay_ms PFLAG                     Allocated to registers ;size:1
                                           ;@delay_ms MCR                       Allocated to registers ;size:1
                                           ;@delay_ms INDF3                     Allocated to registers ;size:1
                                           ;@delay_ms INTE                      Allocated to registers ;size:1
                                           ;@delay_ms INTF                      Allocated to registers ;size:1
                                           ;@delay_ms DRVCR                     Allocated to registers ;size:1
                                           ;@delay_ms P0KBCR                    Allocated to registers ;size:1
                                           ;@delay_ms P1KBCR                    Allocated to registers ;size:1
                                           ;@delay_ms P2KBCR                    Allocated to registers ;size:1
                                           ;@delay_ms IOP0                      Allocated to registers ;size:1
                                           ;@delay_ms OEP0                      Allocated to registers ;size:1
                                           ;@delay_ms PUP0                      Allocated to registers ;size:1
                                           ;@delay_ms PDP0                      Allocated to registers ;size:1
                                           ;@delay_ms IOP1                      Allocated to registers ;size:1
                                           ;@delay_ms OEP1                      Allocated to registers ;size:1
                                           ;@delay_ms PUP1                      Allocated to registers ;size:1
                                           ;@delay_ms PDP1                      Allocated to registers ;size:1
                                           ;@delay_ms T0CR                      Allocated to registers ;size:1
                                           ;@delay_ms T0CNT                     Allocated to registers ;size:1
                                           ;@delay_ms T0LOAD                    Allocated to registers ;size:1
                                           ;@delay_ms T0DATA                    Allocated to registers ;size:1
                                           ;@delay_ms T1CR                      Allocated to registers ;size:1
                                           ;@delay_ms T1CNT                     Allocated to registers ;size:1
                                           ;@delay_ms T1LOAD                    Allocated to registers ;size:1
                                           ;@delay_ms T1DATA                    Allocated to registers ;size:1
                                           ;@delay_ms T2CR                      Allocated to registers ;size:1
                                           ;@delay_ms T2CNT                     Allocated to registers ;size:1
                                           ;@delay_ms T2LOAD                    Allocated to registers ;size:1
                                           ;@delay_ms T2DATA                    Allocated to registers ;size:1
                                           ;@delay_ms T3CR                      Allocated to registers ;size:1
                                           ;@delay_ms T3CNT                     Allocated to registers ;size:1
                                           ;@delay_ms T3LOAD                    Allocated to registers ;size:1
                                           ;@delay_ms PWM0DR                    Allocated to registers ;size:1
                                           ;@delay_ms PWM1DR                    Allocated to registers ;size:1
                                           ;@delay_ms PWM2DR                    Allocated to registers ;size:1
                                           ;@delay_ms PWMCR0                    Allocated to registers ;size:1
                                           ;@delay_ms PWMCR1                    Allocated to registers ;size:1
                                           ;@delay_ms OSCMR                     Allocated to registers ;size:1
                                           ;@delay_ms LVDCR                     Allocated to registers ;size:1
                                           ;@delay_ms ADCR0                     Allocated to registers ;size:1
                                           ;@delay_ms ADCR1                     Allocated to registers ;size:1
                                           ;@delay_ms ADCR2                     Allocated to registers ;size:1
                                           ;@delay_ms OSADJCR                   Allocated to registers ;size:1
                                           ;@delay_ms ADRH                      Allocated to registers ;size:1
                                           ;@delay_ms ADRL                      Allocated to registers ;size:1
                                           ;@delay_ms P0ADCR                    Allocated to registers ;size:1
                                           ;@delay_ms P1ADCR                    Allocated to registers ;size:1
                                           ;@delay_ms IOP2                      Allocated to registers ;size:1
                                           ;@delay_ms OEP2                      Allocated to registers ;size:1
                                           ;@delay_ms PUP2                      Allocated to registers ;size:1
                                           ;@delay_ms PDP2                      Allocated to registers ;size:1
                                           ;@delay_ms PMOD                      Allocated to registers ;size:1
                                           ;@delay_ms PWMCR3                    Allocated to registers ;size:1
                                           ;@delay_ms PWMCR2                    Allocated to registers ;size:1
                                           ;@delay_ms PFRCCR                    Allocated to registers ;size:1
                                           ;@delay_ms PFRCCAL                   Allocated to registers ;size:1
                                           ;@delay_ms EECR                      Allocated to registers ;size:1
                                           ;@delay_ms EEPR                      Allocated to registers ;size:1
                                           ;@delay_ms EEAR                      Allocated to registers ;size:1
                                           ;@delay_ms EEDRH                     Allocated to registers ;size:1
                                           ;@delay_ms EEDRL                     Allocated to registers ;size:1
                                           ;@delay_ms DBGCR                     Allocated to registers ;size:1
                                           ;@delay_ms DBGPR                     Allocated to registers ;size:1
                                           ;@delay_ms HIRCCAL                   Allocated to registers ;size:1
                                           ;@end Allocation info for local variables in function 'delay_ms';
                                           ;@Allocation info for local variables in function 'send_data_msb'
                                           ;@send_data_msb send_data                 Allocated to registers r0x100F r0x100E r0x100D r0x100C ;size:4
                                           ;@send_data_msb i                         Allocated to registers r0x1010 ;size:1
                                           ;@end Allocation info for local variables in function 'send_data_msb';
                                           ;@Allocation info for local variables in function 'CLR_RAM'
                                           ;@end Allocation info for local variables in function 'CLR_RAM';
                                           ;@Allocation info for local variables in function 'IO_Init'
                                           ;@end Allocation info for local variables in function 'IO_Init';
                                           ;@Allocation info for local variables in function 'adc_config'
                                           ;@end Allocation info for local variables in function 'adc_config';
                                           ;@Allocation info for local variables in function 'timer0_pwm_config'
                                           ;@end Allocation info for local variables in function 'timer0_pwm_config';
                                           ;@Allocation info for local variables in function 'adc_sel_channel'
                                           ;@adc_sel_channel adc_channel               Allocated to registers r0x100C ;size:1
                                           ;@adc_sel_channel last_adc_channel          Allocated to registers ;size:1
                                           ;@end Allocation info for local variables in function 'adc_sel_channel';
                                           ;@Allocation info for local variables in function 'adc_sel_channel'
                                           ;@adc_sel_channel adc_channel               Allocated to registers r0x100C ;size:1
                                           ;@adc_sel_channel last_adc_channel          Allocated to registers ;size:1
                                           ;@end Allocation info for local variables in function 'adc_sel_channel';
                                           ;@Allocation info for local variables in function 'adc_get_val'
                                           ;@adc_get_val i                         Allocated to registers r0x100E ;size:1
                                           ;@adc_get_val g_temp_value              Allocated to registers r0x100F r0x1010 ;size:2
                                           ;@adc_get_val g_tmpbuff                 Allocated to registers r0x100A r0x100B r0x1011 r0x1013 ;size:4
                                           ;@adc_get_val g_adcmax                  Allocated to registers r0x100A r0x100B ;size:2
                                           ;@adc_get_val g_adcmin                  Allocated to registers r0x100C r0x100D ;size:2
                                           ;@end Allocation info for local variables in function 'adc_get_val';
                                           ;@Allocation info for local variables in function 'adc_get_val_once'
                                           ;@adc_get_val_once g_temp_value              Allocated to registers r0x101D r0x101C ;size:2
                                           ;@end Allocation info for local variables in function 'adc_get_val_once';
                                           ;@Allocation info for local variables in function 'key_event_handle'
                                           ;@end Allocation info for local variables in function 'key_event_handle';
                                           ;@Allocation info for local variables in function 'Sys_Init'
                                           ;@end Allocation info for local variables in function 'Sys_Init';
                                           ;@Allocation info for local variables in function 'charge_scan'
                                           ;@end Allocation info for local variables in function 'charge_scan';
                                           ;@Allocation info for local variables in function 'power_on_scan'
                                           ;@end Allocation info for local variables in function 'power_on_scan';
                                           ;@Allocation info for local variables in function 'main'
                                           ;@end Allocation info for local variables in function 'main';
                                           ;@Allocation info for local variables in function 'int_isr'
                                           ;@end Allocation info for local variables in function 'int_isr';
                                           
                                           ;--------------------------------------------------------
                                           ; overlayable items in internal ram 
                                           ;--------------------------------------------------------
                                           ;	udata_ovr
                                           ;--------------------------------------------------------
                                           ; reset vector 
                                           ;--------------------------------------------------------
                                           STARTUP	code 0x0000
                                           	goto	_main
                                           ;--------------------------------------------------------
                                           ; interrupt and initialization code
                                           ;--------------------------------------------------------
                                           c_interrupt	code	0x8
                                           __sdcc_interrupt
                                           ;***
                                           ;  pBlock Stats: dbName = I
                                           ;***
                                           ;entry:  _int_isr	;Function start
                                           ; 0 exit points
                                           ;2 compiler assigned registers:
                                           ;   r0x1020
                                           ;   r0x1021
                                           ;; Starting pCode block
                                           _int_isr	;Function start
                                           ; 0 exit points
                                           ;	.line	417; "MC32F7361.c"	__endasm;
                                           	;
                                           	movra	_abuf;
                                           	swapar	_PFLAG;
                                           	movra	_statusbuf;
                                           	
                                           ;	.line	419; "MC32F7361.c"	if (KBIF & KBIE)
                                           	CLRR	r0x1020
                                           	JBCLR	_INTFbits,4
                                           	INCR	r0x1020
                                           	CLRR	r0x1021
                                           	JBCLR	_INTEbits,4
                                           	INCR	r0x1021
                                           	MOVAR	r0x1021
                                           	ANDRA	r0x1020
                                           	MOVAI	0x00
                                           	ORAR	r0x1020
                                           	JBCLR	PFLAG,2
                                           	GOTO	_00396_DS_
                                           ;	.line	421; "MC32F7361.c"	KBIF = 0;
                                           	BCLR	_INTFbits,4
                                           _00396_DS_
                                           ;	.line	429; "MC32F7361.c"	__endasm;
                                           	;
                                           	swapar	_statusbuf;
                                           	movra	_PFLAG;
                                           	swapr	_abuf;
                                           	swapar	_abuf;
                                           	
                                           END_OF_INTERRUPT
                                           ;	.line	430; "MC32F7361.c"	}
                                           	RETIE	
                                           
                                           ;--------------------------------------------------------
                                           ; code
                                           ;--------------------------------------------------------
                                           code_MC32F7361	code
                                           ;***
                                           ;  pBlock Stats: dbName = M
                                           ;***
                                           ;entry:  _main	;Function start
                                           ; 2 exit points
                                           ;has an exit
                                           ;functions called:
                                           ;   _Sys_Init
                                           ;   _delay_ms
                                           ;   _power_on_scan
                                           ;   _adc_sel_channel
                                           ;   _adc_get_val
                                           ;   _send_data_msb
                                           ;   _adc_sel_channel
                                           ;   _adc_get_val
                                           ;   _Sys_Init
                                           ;   _delay_ms
                                           ;   _power_on_scan
                                           ;   _adc_sel_channel
                                           ;   _adc_get_val
                                           ;   _send_data_msb
                                           ;   _adc_sel_channel
                                           ;   _adc_get_val
                                           ;7 compiler assigned registers:
                                           ;   STK00
                                           ;   r0x1016
                                           ;   r0x1017
                                           ;   r0x1018
                                           ;   r0x1019
                                           ;   STK02
                                           ;   STK01
                                           ;; Starting pCode block
                                           _main	;Function start
                                           ; 2 exit points
                                           ;	.line	325; "MC32F7361.c"	Sys_Init();
                                           	CALL	_Sys_Init
                                           ;	.line	326; "MC32F7361.c"	delay_ms(10);
                                           	MOVAI	0x0a
                                           	MOVRA	STK00
                                           	MOVAI	0x00
                                           	CALL	_delay_ms
                                           ;	.line	328; "MC32F7361.c"	PWM_ENABEL();
                                           	BSET	_T0CRbits,6
                                           	BSET	_T0CRbits,7
                                           _00340_DS_
                                           ;	.line	332; "MC32F7361.c"	power_on_scan();
                                           	CALL	_power_on_scan
                                           ;	.line	341; "MC32F7361.c"	flag_is_enable_detect = 0;
                                           	BCLR	_flag1,3
                                           ;	.line	346; "MC32F7361.c"	adc_sel_channel(ADC_CHANNEL_LOAD);
                                           	MOVAI	0x02
                                           	CALL	_adc_sel_channel
                                           ;	.line	347; "MC32F7361.c"	cnt = 0;
                                           	CLRR	_cnt
                                           ;	.line	348; "MC32F7361.c"	for (i = 0; i < 100; i++)
                                           	CLRR	_i
                                           ;;unsigned compare: left < lit(0x64=100), size=1
                                           _00343_DS_
                                           	MOVAI	0x64
                                           	RSUBAR	_i
                                           	JBCLR	PFLAG,0
                                           	GOTO	_00317_DS_
                                           ;;genSkipc:3291: created from rifx:013B5EFC
                                           ;	.line	350; "MC32F7361.c"	adc_val = adc_get_val();
                                           	CALL	_adc_get_val
                                           	MOVRA	(_adc_val + 1)
                                           	MOVAR	STK00
                                           	MOVRA	_adc_val
                                           ;	.line	351; "MC32F7361.c"	send_data_msb(adc_val);
                                           	MOVAR	_adc_val
                                           	MOVRA	r0x1016
                                           	MOVAR	(_adc_val + 1)
                                           	MOVRA	r0x1017
                                           ;;1	CLRR	r0x1018
                                           ;;1	CLRR	r0x1019
                                           	MOVAR	r0x1016
                                           	MOVRA	STK02
                                           	MOVAR	r0x1017
                                           	MOVRA	STK01
                                           	MOVAI	0x00
                                           	MOVRA	STK00
                                           	MOVAI	0x00
                                           	CALL	_send_data_msb
                                           ;;unsigned compare: left < lit(0x733=1843), size=2
                                           ;	.line	352; "MC32F7361.c"	if (adc_val < 1843)
                                           	MOVAI	0x07
                                           	RSUBAR	(_adc_val + 1)
                                           	JBSET	PFLAG,2
                                           	GOTO	_00387_DS_
                                           	MOVAI	0x33
                                           	RSUBAR	_adc_val
                                           _00387_DS_
                                           	JBCLR	PFLAG,0
                                           	GOTO	_00344_DS_
                                           ;;genSkipc:3291: created from rifx:013B5EFC
                                           ;	.line	354; "MC32F7361.c"	cnt++;
                                           	INCR	_cnt
                                           _00344_DS_
                                           ;	.line	348; "MC32F7361.c"	for (i = 0; i < 100; i++)
                                           	INCR	_i
                                           	GOTO	_00343_DS_
                                           ;;unsigned compare: left < lit(0x50=80), size=1
                                           _00317_DS_
                                           ;	.line	358; "MC32F7361.c"	if (cnt >= 80)
                                           	MOVAI	0x50
                                           	RSUBAR	_cnt
                                           	JBSET	PFLAG,0
                                           	GOTO	_00321_DS_
                                           ;;genSkipc:3291: created from rifx:013B5EFC
                                           ;	.line	361; "MC32F7361.c"	LED_RED_ON();
                                           	BSET	_IOP1bits,7
                                           	GOTO	_00326_DS_
                                           _00321_DS_
                                           ;	.line	366; "MC32F7361.c"	LED_RED_OFF();
                                           	BCLR	_IOP1bits,7
                                           _00326_DS_
                                           ;	.line	372; "MC32F7361.c"	adc_sel_channel(ADC_CHANNEL_LOAD);
                                           	MOVAI	0x02
                                           	CALL	_adc_sel_channel
                                           ;	.line	373; "MC32F7361.c"	cnt = 0;
                                           	CLRR	_cnt
                                           ;	.line	374; "MC32F7361.c"	for (i = 0; i < 100; i++)
                                           	CLRR	_i
                                           ;;unsigned compare: left < lit(0x64=100), size=1
                                           _00346_DS_
                                           	MOVAI	0x64
                                           	RSUBAR	_i
                                           	JBCLR	PFLAG,0
                                           	GOTO	_00329_DS_
                                           ;;genSkipc:3291: created from rifx:013B5EFC
                                           ;	.line	376; "MC32F7361.c"	adc_val = adc_get_val();
                                           	CALL	_adc_get_val
                                           	MOVRA	(_adc_val + 1)
                                           	MOVAR	STK00
                                           	MOVRA	_adc_val
                                           ;;unsigned compare: left < lit(0x4CD=1229), size=2
                                           ;	.line	377; "MC32F7361.c"	if (adc_val < 1229)
                                           	MOVAI	0x04
                                           	RSUBAR	(_adc_val + 1)
                                           	JBSET	PFLAG,2
                                           	GOTO	_00390_DS_
                                           	MOVAI	0xcd
                                           	RSUBAR	_adc_val
                                           _00390_DS_
                                           	JBCLR	PFLAG,0
                                           	GOTO	_00347_DS_
                                           ;;genSkipc:3291: created from rifx:013B5EFC
                                           ;	.line	379; "MC32F7361.c"	cnt++;
                                           	INCR	_cnt
                                           _00347_DS_
                                           ;	.line	374; "MC32F7361.c"	for (i = 0; i < 100; i++)
                                           	INCR	_i
                                           	GOTO	_00346_DS_
                                           ;;unsigned compare: left < lit(0x50=80), size=1
                                           _00329_DS_
                                           ;	.line	385; "MC32F7361.c"	if (cnt >= 80)
                                           	MOVAI	0x50
                                           	RSUBAR	_cnt
                                           	JBSET	PFLAG,0
                                           	GOTO	_00333_DS_
                                           ;;genSkipc:3291: created from rifx:013B5EFC
                                           ;	.line	388; "MC32F7361.c"	LED_GREEN_ON();
                                           	BSET	_IOP0bits,0
                                           	GOTO	_00338_DS_
                                           _00333_DS_
                                           ;	.line	392; "MC32F7361.c"	LED_GREEN_OFF();
                                           	BCLR	_IOP0bits,0
                                           _00338_DS_
                                           ;	.line	402; "MC32F7361.c"	__endasm;
                                           	;
                                           	clrwdt;
                                           	
                                           	GOTO	_00340_DS_
                                           ;	.line	404; "MC32F7361.c"	}
                                           	RETURN	
                                           ; exit point of _main
                                           
                                           ;***
                                           ;  pBlock Stats: dbName = C
                                           ;***
                                           ;entry:  _power_on_scan	;Function start
                                           ; 2 exit points
                                           ;has an exit
                                           ;functions called:
                                           ;   _delay_ms
                                           ;   _delay_ms
                                           ;   _delay_ms
                                           ;   _delay_ms
                                           ;1 compiler assigned register :
                                           ;   STK00
                                           ;; Starting pCode block
                                           _power_on_scan	;Function start
                                           ; 2 exit points
                                           ;	.line	270; "MC32F7361.c"	if (flag_is_device_open)
                                           	JBSET	_flag1,1
                                           	GOTO	_00299_DS_
                                           ;	.line	272; "MC32F7361.c"	if (P13D)
                                           	JBSET	_IOP1bits,3
                                           	GOTO	_00307_DS_
                                           ;	.line	274; "MC32F7361.c"	cnt = 0;
                                           	CLRR	_cnt
                                           ;	.line	275; "MC32F7361.c"	for (i = 0; i < 200; i++)
                                           	CLRR	_i
                                           ;;unsigned compare: left < lit(0xC8=200), size=1
                                           _00302_DS_
                                           	MOVAI	0xc8
                                           	RSUBAR	_i
                                           	JBCLR	PFLAG,0
                                           	GOTO	_00286_DS_
                                           ;;genSkipc:3291: created from rifx:013B5EFC
                                           ;	.line	277; "MC32F7361.c"	if (P13D)
                                           	JBSET	_IOP1bits,3
                                           	GOTO	_00285_DS_
                                           ;	.line	279; "MC32F7361.c"	cnt++;
                                           	INCR	_cnt
                                           _00285_DS_
                                           ;	.line	282; "MC32F7361.c"	delay_ms(1);
                                           	MOVAI	0x01
                                           	MOVRA	STK00
                                           	MOVAI	0x00
                                           	CALL	_delay_ms
                                           ;	.line	275; "MC32F7361.c"	for (i = 0; i < 200; i++)
                                           	INCR	_i
                                           	GOTO	_00302_DS_
                                           ;;unsigned compare: left < lit(0xC8=200), size=1
                                           _00286_DS_
                                           ;	.line	285; "MC32F7361.c"	if (cnt >= 200)
                                           	MOVAI	0xc8
                                           	RSUBAR	_cnt
                                           	JBSET	PFLAG,0
                                           	GOTO	_00307_DS_
                                           ;;genSkipc:3291: created from rifx:013B5EFC
                                           ;	.line	288; "MC32F7361.c"	flag_is_device_open = 0;
                                           	BCLR	_flag1,1
                                           	GOTO	_00307_DS_
                                           _00299_DS_
                                           ;	.line	294; "MC32F7361.c"	if (0 == P13D)
                                           	JBCLR	_IOP1bits,3
                                           	GOTO	_00307_DS_
                                           ;	.line	296; "MC32F7361.c"	cnt = 0;
                                           	CLRR	_cnt
                                           ;	.line	297; "MC32F7361.c"	for (i = 0; i < 200; i++)
                                           	CLRR	_i
                                           ;;unsigned compare: left < lit(0xC8=200), size=1
                                           _00305_DS_
                                           	MOVAI	0xc8
                                           	RSUBAR	_i
                                           	JBCLR	PFLAG,0
                                           	GOTO	_00293_DS_
                                           ;;genSkipc:3291: created from rifx:013B5EFC
                                           ;	.line	299; "MC32F7361.c"	if (0 == P13D)
                                           	JBCLR	_IOP1bits,3
                                           	GOTO	_00292_DS_
                                           ;	.line	301; "MC32F7361.c"	cnt++;
                                           	INCR	_cnt
                                           _00292_DS_
                                           ;	.line	304; "MC32F7361.c"	delay_ms(1);
                                           	MOVAI	0x01
                                           	MOVRA	STK00
                                           	MOVAI	0x00
                                           	CALL	_delay_ms
                                           ;	.line	297; "MC32F7361.c"	for (i = 0; i < 200; i++)
                                           	INCR	_i
                                           	GOTO	_00305_DS_
                                           ;;unsigned compare: left < lit(0xC8=200), size=1
                                           _00293_DS_
                                           ;	.line	307; "MC32F7361.c"	if (cnt >= 200)
                                           	MOVAI	0xc8
                                           	RSUBAR	_cnt
                                           	JBSET	PFLAG,0
                                           	GOTO	_00307_DS_
                                           ;;genSkipc:3291: created from rifx:013B5EFC
                                           ;	.line	310; "MC32F7361.c"	flag_is_device_open = 1;
                                           	BSET	_flag1,1
                                           ;	.line	311; "MC32F7361.c"	flag_is_enable_detect = 1;
                                           	BSET	_flag1,3
                                           _00307_DS_
                                           ;	.line	315; "MC32F7361.c"	}
                                           	RETURN	
                                           ; exit point of _power_on_scan
                                           
                                           ;***
                                           ;  pBlock Stats: dbName = C
                                           ;***
                                           ;entry:  _charge_scan	;Function start
                                           ; 2 exit points
                                           ;has an exit
                                           ;functions called:
                                           ;   _delay_ms
                                           ;   _delay_ms
                                           ;   _delay_ms
                                           ;   _delay_ms
                                           ;1 compiler assigned register :
                                           ;   STK00
                                           ;; Starting pCode block
                                           _charge_scan	;Function start
                                           ; 2 exit points
                                           ;	.line	227; "MC32F7361.c"	if (CHARGE_PIN)
                                           	JBSET	_IOP0bits,3
                                           	GOTO	_00271_DS_
                                           ;	.line	229; "MC32F7361.c"	cnt = 0;
                                           	CLRR	_cnt
                                           ;	.line	230; "MC32F7361.c"	for (i = 0; i < 200; i++)
                                           	CLRR	_i
                                           ;;unsigned compare: left < lit(0xC8=200), size=1
                                           _00274_DS_
                                           	MOVAI	0xc8
                                           	RSUBAR	_i
                                           	JBCLR	PFLAG,0
                                           	GOTO	_00262_DS_
                                           ;;genSkipc:3291: created from rifx:013B5EFC
                                           ;	.line	232; "MC32F7361.c"	if (CHARGE_PIN)
                                           	JBSET	_IOP0bits,3
                                           	GOTO	_00261_DS_
                                           ;	.line	234; "MC32F7361.c"	cnt++;
                                           	INCR	_cnt
                                           _00261_DS_
                                           ;	.line	237; "MC32F7361.c"	delay_ms(1);
                                           	MOVAI	0x01
                                           	MOVRA	STK00
                                           	MOVAI	0x00
                                           	CALL	_delay_ms
                                           ;	.line	230; "MC32F7361.c"	for (i = 0; i < 200; i++)
                                           	INCR	_i
                                           	GOTO	_00274_DS_
                                           ;;unsigned compare: left < lit(0xB4=180), size=1
                                           _00262_DS_
                                           ;	.line	240; "MC32F7361.c"	if (cnt >= 180)
                                           	MOVAI	0xb4
                                           	RSUBAR	_cnt
                                           	JBSET	PFLAG,0
                                           	GOTO	_00279_DS_
                                           ;;genSkipc:3291: created from rifx:013B5EFC
                                           ;	.line	243; "MC32F7361.c"	flag_is_in_charging = 1;
                                           	BSET	_flag1,0
                                           	GOTO	_00279_DS_
                                           _00271_DS_
                                           ;	.line	248; "MC32F7361.c"	cnt = 0;
                                           	CLRR	_cnt
                                           ;	.line	249; "MC32F7361.c"	for (i = 0; i < 200; i++)
                                           	CLRR	_i
                                           ;;unsigned compare: left < lit(0xC8=200), size=1
                                           _00277_DS_
                                           	MOVAI	0xc8
                                           	RSUBAR	_i
                                           	JBCLR	PFLAG,0
                                           	GOTO	_00267_DS_
                                           ;;genSkipc:3291: created from rifx:013B5EFC
                                           ;	.line	251; "MC32F7361.c"	if (0 == CHARGE_PIN)
                                           	JBCLR	_IOP0bits,3
                                           	GOTO	_00266_DS_
                                           ;	.line	253; "MC32F7361.c"	cnt++;
                                           	INCR	_cnt
                                           _00266_DS_
                                           ;	.line	256; "MC32F7361.c"	delay_ms(1);
                                           	MOVAI	0x01
                                           	MOVRA	STK00
                                           	MOVAI	0x00
                                           	CALL	_delay_ms
                                           ;	.line	249; "MC32F7361.c"	for (i = 0; i < 200; i++)
                                           	INCR	_i
                                           	GOTO	_00277_DS_
                                           ;;unsigned compare: left < lit(0xB4=180), size=1
                                           _00267_DS_
                                           ;	.line	259; "MC32F7361.c"	if (cnt >= 180)
                                           	MOVAI	0xb4
                                           	RSUBAR	_cnt
                                           	JBSET	PFLAG,0
                                           	GOTO	_00279_DS_
                                           ;;genSkipc:3291: created from rifx:013B5EFC
                                           ;	.line	262; "MC32F7361.c"	flag_is_in_charging = 0;
                                           	BCLR	_flag1,0
                                           _00279_DS_
                                           ;	.line	265; "MC32F7361.c"	}
                                           	RETURN	
                                           ; exit point of _charge_scan
                                           
                                           ;***
                                           ;  pBlock Stats: dbName = C
                                           ;***
                                           ;entry:  _Sys_Init	;Function start
                                           ; 2 exit points
                                           ;has an exit
                                           ;functions called:
                                           ;   _CLR_RAM
                                           ;   _IO_Init
                                           ;   _timer0_pwm_config
                                           ;   _adc_config
                                           ;   _CLR_RAM
                                           ;   _IO_Init
                                           ;   _timer0_pwm_config
                                           ;   _adc_config
                                           ;; Starting pCode block
                                           _Sys_Init	;Function start
                                           ; 2 exit points
                                           ;	.line	199; "MC32F7361.c"	GIE = 0;
                                           	BCLR	_MCRbits,7
                                           ;	.line	200; "MC32F7361.c"	CLR_RAM();
                                           	CALL	_CLR_RAM
                                           ;	.line	201; "MC32F7361.c"	IO_Init();
                                           	CALL	_IO_Init
                                           ;	.line	203; "MC32F7361.c"	timer0_pwm_config();
                                           	CALL	_timer0_pwm_config
                                           ;	.line	204; "MC32F7361.c"	adc_config();
                                           	CALL	_adc_config
                                           ;	.line	209; "MC32F7361.c"	P03OE = 0; // 
                                           	BCLR	_OEP0bits,3
                                           ;	.line	217; "MC32F7361.c"	P13PU = 0; // 
                                           	BCLR	_PUP1bits,3
                                           ;	.line	218; "MC32F7361.c"	P13OE = 0; // 
                                           	BCLR	_OEP1bits,3
                                           ;	.line	219; "MC32F7361.c"	P13KE = 1; // 
                                           	BSET	_P1KBCRbits,3
                                           ;	.line	221; "MC32F7361.c"	GIE = 1;
                                           	BSET	_MCRbits,7
                                           ;	.line	222; "MC32F7361.c"	}
                                           	RETURN	
                                           ; exit point of _Sys_Init
                                           
                                           ;***
                                           ;  pBlock Stats: dbName = C
                                           ;***
                                           ;entry:  _key_event_handle	;Function start
                                           ; 2 exit points
                                           ;has an exit
                                           ;; Starting pCode block
                                           _key_event_handle	;Function start
                                           ; 2 exit points
                                           ;	.line	189; "MC32F7361.c"	}
                                           	RETURN	
                                           ; exit point of _key_event_handle
                                           
                                           ;***
                                           ;  pBlock Stats: dbName = C
                                           ;***
                                           ;entry:  _adc_get_val_once	;Function start
                                           ; 2 exit points
                                           ;has an exit
                                           ;7 compiler assigned registers:
                                           ;   r0x101A
                                           ;   r0x101B
                                           ;   r0x101C
                                           ;   r0x101D
                                           ;   r0x101E
                                           ;   r0x101F
                                           ;   STK00
                                           ;; Starting pCode block
                                           _adc_get_val_once	;Function start
                                           ; 2 exit points
                                           ;	.line	176; "MC32F7361.c"	ADEOC = 0; // ADCAD
                                           	BCLR	_ADCR0bits,1
                                           _00247_DS_
                                           ;	.line	177; "MC32F7361.c"	while (!ADEOC)
                                           	JBSET	_ADCR0bits,1
                                           	GOTO	_00247_DS_
                                           ;	.line	179; "MC32F7361.c"	g_temp_value = ADRH; // 
                                           	MOVAR	_ADRH
                                           	MOVRA	r0x101A
                                           	CLRR	r0x101B
                                           ;	.line	180; "MC32F7361.c"	g_temp_value = g_temp_value << 4 | (ADRL & 0x0F);
                                           	SWAPAR	r0x101B
                                           	ANDAI	0xf0
                                           	MOVRA	r0x101C
                                           	SWAPAR	r0x101A
                                           	MOVRA	r0x101D
                                           	ANDAI	0x0f
                                           	ORRA	r0x101C
                                           	XORRA	r0x101D
                                           	MOVAR	_ADRL
                                           	MOVRA	r0x101A
                                           	CLRR	r0x101B
                                           	MOVAI	0x0f
                                           	ANDRA	r0x101A
                                           	CLRR	r0x101B
                                           ;;101	MOVAR	r0x101A
                                           ;;99	MOVRA	r0x101E
                                           ;;104	MOVAR	r0x101B
                                           ;;102	MOVRA	r0x101F
                                           ;;100	MOVAR	r0x101E
                                           	MOVAR	r0x101A
                                           	ORRA	r0x101D
                                           ;;103	MOVAR	r0x101F
                                           	MOVAI	0x00
                                           	ORRA	r0x101C
                                           ;	.line	181; "MC32F7361.c"	return g_temp_value;
                                           	MOVAR	r0x101D
                                           	MOVRA	STK00
                                           	MOVAR	r0x101C
                                           ;	.line	182; "MC32F7361.c"	}
                                           	RETURN	
                                           ; exit point of _adc_get_val_once
                                           
                                           ;***
                                           ;  pBlock Stats: dbName = C
                                           ;***
                                           ;entry:  _adc_get_val	;Function start
                                           ; 2 exit points
                                           ;has an exit
                                           ;16 compiler assigned registers:
                                           ;   r0x1006
                                           ;   r0x1007
                                           ;   r0x1008
                                           ;   r0x1009
                                           ;   r0x100A
                                           ;   r0x100B
                                           ;   r0x100C
                                           ;   r0x100D
                                           ;   r0x100E
                                           ;   r0x100F
                                           ;   r0x1010
                                           ;   r0x1011
                                           ;   r0x1012
                                           ;   r0x1013
                                           ;   r0x1014
                                           ;   STK00
                                           ;; Starting pCode block
                                           _adc_get_val	;Function start
                                           ; 2 exit points
                                           ;	.line	145; "MC32F7361.c"	u32 g_tmpbuff = 0;
                                           	CLRR	r0x1006
                                           	CLRR	r0x1007
                                           	CLRR	r0x1008
                                           	CLRR	r0x1009
                                           ;	.line	146; "MC32F7361.c"	u16 g_adcmax = 0;
                                           	CLRR	r0x100A
                                           	CLRR	r0x100B
                                           ;	.line	147; "MC32F7361.c"	u16 g_adcmin = 0xFFFF;
                                           	MOVAI	0xff
                                           	MOVRA	r0x100C
                                           	MOVRA	r0x100D
                                           ;	.line	150; "MC32F7361.c"	for (i = 0; i < 20; i++)
                                           	CLRR	r0x100E
                                           _00201_DS_
                                           ;	.line	152; "MC32F7361.c"	ADEOC = 0; // ADCAD
                                           	BCLR	_ADCR0bits,1
                                           _00190_DS_
                                           ;	.line	153; "MC32F7361.c"	while (!ADEOC)
                                           	JBSET	_ADCR0bits,1
                                           	GOTO	_00190_DS_
                                           ;	.line	155; "MC32F7361.c"	g_temp_value = ADRH; // 
                                           	MOVAR	_ADRH
                                           	MOVRA	r0x100F
                                           	CLRR	r0x1010
                                           ;	.line	156; "MC32F7361.c"	g_temp_value = g_temp_value << 4 | (ADRL & 0x0F);
                                           	SWAPAR	r0x1010
                                           	ANDAI	0xf0
                                           	MOVRA	r0x1011
                                           	SWAPAR	r0x100F
                                           	MOVRA	r0x1012
                                           	ANDAI	0x0f
                                           	ORRA	r0x1011
                                           	XORRA	r0x1012
                                           	MOVAR	_ADRL
                                           	MOVRA	r0x100F
                                           	CLRR	r0x1010
                                           	MOVAI	0x0f
                                           	ANDRA	r0x100F
                                           	CLRR	r0x1010
                                           ;;120	MOVAR	r0x100F
                                           	MOVAI	0x00
                                           	MOVRA	r0x1014
                                           ;;119	MOVAR	r0x1013
                                           	MOVAR	r0x100F
                                           	MOVRA	r0x1013
                                           	ORAR	r0x1012
                                           	MOVRA	r0x100F
                                           	MOVAR	r0x1014
                                           	ORAR	r0x1011
                                           	MOVRA	r0x1010
                                           ;;unsigned compare: left < lit(0x2=2), size=1
                                           ;	.line	157; "MC32F7361.c"	if (i < 2)
                                           	MOVAI	0x02
                                           	RSUBAR	r0x100E
                                           	JBSET	PFLAG,0
                                           	GOTO	_00199_DS_
                                           ;;genSkipc:3291: created from rifx:013B5EFC
                                           ;	.line	159; "MC32F7361.c"	if (g_temp_value > g_adcmax)
                                           	MOVAR	r0x1010
                                           	RSUBAR	r0x100B
                                           	JBSET	PFLAG,2
                                           	GOTO	_00241_DS_
                                           	MOVAR	r0x100F
                                           	RSUBAR	r0x100A
                                           _00241_DS_
                                           	JBCLR	PFLAG,0
                                           	GOTO	_00196_DS_
                                           ;;genSkipc:3291: created from rifx:013B5EFC
                                           ;	.line	160; "MC32F7361.c"	g_adcmax = g_temp_value; // 
                                           	MOVAR	r0x100F
                                           	MOVRA	r0x100A
                                           	MOVAR	r0x1010
                                           	MOVRA	r0x100B
                                           _00196_DS_
                                           ;	.line	161; "MC32F7361.c"	if (g_temp_value < g_adcmin)
                                           	MOVAR	r0x100D
                                           	RSUBAR	r0x1010
                                           	JBSET	PFLAG,2
                                           	GOTO	_00242_DS_
                                           	MOVAR	r0x100C
                                           	RSUBAR	r0x100F
                                           _00242_DS_
                                           	JBCLR	PFLAG,0
                                           	GOTO	_00198_DS_
                                           ;;genSkipc:3291: created from rifx:013B5EFC
                                           ;	.line	162; "MC32F7361.c"	g_adcmin = g_temp_value; // 
                                           	MOVAR	r0x100F
                                           	MOVRA	r0x100C
                                           	MOVAR	r0x1010
                                           	MOVRA	r0x100D
                                           ;;116	MOVAR	r0x100F
                                           ;;118	MOVAR	r0x1010
                                           _00198_DS_
                                           ;	.line	163; "MC32F7361.c"	g_tmpbuff += g_temp_value;
                                           	CLRR	r0x1013
                                           	CLRR	r0x1014
                                           ;;115	MOVAR	r0x1012
                                           	MOVAR	r0x100F
                                           	MOVRA	r0x1012
                                           	ADDRA	r0x1006
                                           ;;117	MOVAR	r0x1011
                                           	MOVAR	r0x1010
                                           	MOVRA	r0x1011
                                           	JBCLR	PFLAG,0
                                           	JZAR	r0x1011
                                           	ADDRA	r0x1007
                                           	MOVAR	r0x1013
                                           	JBCLR	PFLAG,0
                                           	JZAR	r0x1013
                                           	ADDRA	r0x1008
                                           	MOVAR	r0x1014
                                           	JBCLR	PFLAG,0
                                           	JZAR	r0x1014
                                           	ADDRA	r0x1009
                                           _00199_DS_
                                           ;	.line	150; "MC32F7361.c"	for (i = 0; i < 20; i++)
                                           	INCR	r0x100E
                                           ;;unsigned compare: left < lit(0x14=20), size=1
                                           	MOVAI	0x14
                                           	RSUBAR	r0x100E
                                           	JBSET	PFLAG,0
                                           	GOTO	_00201_DS_
                                           ;;genSkipc:3291: created from rifx:013B5EFC
                                           ;;114	MOVAR	r0x100A
                                           ;	.line	165; "MC32F7361.c"	g_tmpbuff -= g_adcmax;           // 
                                           	MOVAR	r0x100B
                                           	MOVRA	r0x100F
                                           	CLRR	r0x1010
                                           	CLRR	r0x1012
                                           ;;113	MOVAR	r0x100E
                                           	MOVAR	r0x100A
                                           	MOVRA	r0x100E
                                           	RSUBAR	r0x1006
                                           	MOVRA	r0x100A
                                           	MOVAR	r0x1007
                                           	MOVRA	r0x100B
                                           	MOVAR	r0x100F
                                           	JBSET	PFLAG,0
                                           	JZAR	r0x100F
                                           	RSUBRA	r0x100B
                                           	MOVAR	r0x1008
                                           	MOVRA	r0x1011
                                           	MOVAR	r0x1010
                                           	JBSET	PFLAG,0
                                           	JZAR	r0x1010
                                           	RSUBRA	r0x1011
                                           	MOVAR	r0x1012
                                           	JBSET	PFLAG,0
                                           	INCAR	r0x1012
                                           	RSUBAR	r0x1009
                                           	MOVRA	r0x1013
                                           ;;106	MOVAR	r0x100C
                                           ;;108	MOVAR	r0x100D
                                           ;	.line	166; "MC32F7361.c"	g_tmpbuff -= g_adcmin;           // 
                                           	CLRR	r0x1008
                                           	CLRR	r0x1009
                                           ;;105	MOVAR	r0x1006
                                           	MOVAR	r0x100C
                                           	MOVRA	r0x1006
                                           	RSUBRA	r0x100A
                                           ;;107	MOVAR	r0x1007
                                           	MOVAR	r0x100D
                                           	MOVRA	r0x1007
                                           	JBSET	PFLAG,0
                                           	JZAR	r0x1007
                                           	RSUBRA	r0x100B
                                           	MOVAR	r0x1008
                                           	JBSET	PFLAG,0
                                           	JZAR	r0x1008
                                           	RSUBRA	r0x1011
                                           	MOVAR	r0x1009
                                           	JBSET	PFLAG,0
                                           	JZAR	r0x1009
                                           	RSUBRA	r0x1013
                                           ;	.line	167; "MC32F7361.c"	g_temp_value = (g_tmpbuff >> 4); // 16
                                           	SWAPAR	r0x100A
                                           	ANDAI	0x0f
                                           	MOVRA	r0x1006
                                           	SWAPAR	r0x100B
                                           	MOVRA	r0x1007
                                           	ANDAI	0xf0
                                           	ORRA	r0x1006
                                           	XORRA	r0x1007
                                           	SWAPAR	r0x1011
                                           	MOVRA	r0x1008
                                           	ANDAI	0xf0
                                           	ORRA	r0x1007
                                           	XORRA	r0x1008
                                           	SWAPAR	r0x1013
                                           	MOVRA	r0x1009
                                           	ANDAI	0xf0
                                           	ORRA	r0x1008
                                           	XORRA	r0x1009
                                           ;;110	MOVAR	r0x1006
                                           ;;112	MOVAR	r0x1007
                                           ;;109	MOVAR	r0x100A
                                           ;	.line	169; "MC32F7361.c"	return g_temp_value;
                                           	MOVAR	r0x1006
                                           	MOVRA	r0x100A
                                           	MOVRA	STK00
                                           ;;111	MOVAR	r0x100B
                                           	MOVAR	r0x1007
                                           	MOVRA	r0x100B
                                           ;	.line	170; "MC32F7361.c"	}
                                           	RETURN	
                                           ; exit point of _adc_get_val
                                           
                                           ;***
                                           ;  pBlock Stats: dbName = C
                                           ;***
                                           ;entry:  _adc_sel_channel	;Function start
                                           ; 2 exit points
                                           ;has an exit
                                           ;functions called:
                                           ;   _delay_ms
                                           ;   _delay_ms
                                           ;2 compiler assigned registers:
                                           ;   r0x100C
                                           ;   STK00
                                           ;; Starting pCode block
                                           _adc_sel_channel	;Function start
                                           ; 2 exit points
                                           ;	.line	99; "MC32F7361.c"	void adc_sel_channel(u8 adc_channel)
                                           	MOVRA	r0x100C
                                           ;	.line	103; "MC32F7361.c"	if (last_adc_channel == adc_channel)
                                           	MOVAR	r0x100C
                                           	XORAR	_adc_sel_channel_last_adc_channel_65536_22
                                           	JBSET	PFLAG,2
                                           	GOTO	_00165_DS_
                                           ;	.line	105; "MC32F7361.c"	return;
                                           	GOTO	_00170_DS_
                                           _00165_DS_
                                           ;	.line	108; "MC32F7361.c"	last_adc_channel = adc_channel;
                                           	MOVAR	r0x100C
                                           	MOVRA	_adc_sel_channel_last_adc_channel_65536_22
                                           ;	.line	110; "MC32F7361.c"	switch (adc_channel)
                                           	MOVAR	r0x100C
                                           	XORAI	0x01
                                           	JBSET	PFLAG,2
                                           	GOTO	_00184_DS_
                                           	GOTO	_00166_DS_
                                           _00184_DS_
                                           	MOVAR	r0x100C
                                           	XORAI	0x02
                                           	JBSET	PFLAG,2
                                           	GOTO	_00185_DS_
                                           	GOTO	_00167_DS_
                                           _00185_DS_
                                           	GOTO	_00169_DS_
                                           _00166_DS_
                                           ;	.line	113; "MC32F7361.c"	ADCHS3 = 1;
                                           	BSET	_ADCR0bits,7
                                           ;	.line	114; "MC32F7361.c"	ADCHS2 = 0;
                                           	BCLR	_ADCR0bits,6
                                           ;	.line	115; "MC32F7361.c"	ADCHS1 = 1;
                                           	BSET	_ADCR0bits,5
                                           ;	.line	116; "MC32F7361.c"	ADCHS0 = 0;
                                           	BCLR	_ADCR0bits,4
                                           ;	.line	117; "MC32F7361.c"	break;
                                           	GOTO	_00169_DS_
                                           _00167_DS_
                                           ;	.line	121; "MC32F7361.c"	ADCHS3 = 0;
                                           	BCLR	_ADCR0bits,7
                                           ;	.line	122; "MC32F7361.c"	ADCHS2 = 1;
                                           	BSET	_ADCR0bits,6
                                           ;	.line	123; "MC32F7361.c"	ADCHS1 = 1;
                                           	BSET	_ADCR0bits,5
                                           ;	.line	124; "MC32F7361.c"	ADCHS0 = 0;
                                           	BCLR	_ADCR0bits,4
                                           _00169_DS_
                                           ;	.line	137; "MC32F7361.c"	delay_ms(1); // adc
                                           	MOVAI	0x01
                                           	MOVRA	STK00
                                           	MOVAI	0x00
                                           	CALL	_delay_ms
                                           _00170_DS_
                                           ;	.line	138; "MC32F7361.c"	}
                                           	RETURN	
                                           ; exit point of _adc_sel_channel
                                           
                                           ;***
                                           ;  pBlock Stats: dbName = C
                                           ;***
                                           ;entry:  _timer0_pwm_config	;Function start
                                           ; 2 exit points
                                           ;has an exit
                                           ;; Starting pCode block
                                           _timer0_pwm_config	;Function start
                                           ; 2 exit points
                                           ;	.line	85; "MC32F7361.c"	T0CR = 0x49; // PWM,FTMR,2 (0.03125us)
                                           	MOVAI	0x49
                                           	MOVRA	_T0CR
                                           ;	.line	88; "MC32F7361.c"	T0LOAD = (128 + 10) - 1; //
                                           	MOVAI	0x89
                                           	MOVRA	_T0LOAD
                                           ;	.line	89; "MC32F7361.c"	T0DATA = 64 + 10;
                                           	MOVAI	0x4a
                                           	MOVRA	_T0DATA
                                           ;	.line	90; "MC32F7361.c"	PWMCR0 = 0x00; // 
                                           	CLRR	_PWMCR0
                                           ;	.line	91; "MC32F7361.c"	PWMCR1 = 0x18; // FHOSC  2  
                                           	MOVAI	0x18
                                           	MOVRA	_PWMCR1
                                           ;	.line	95; "MC32F7361.c"	T0EN = 0;   // 
                                           	BCLR	_T0CRbits,7
                                           ;	.line	96; "MC32F7361.c"	PWM0EC = 0; // PWM0
                                           	BCLR	_T0CRbits,6
                                           ;	.line	97; "MC32F7361.c"	}
                                           	RETURN	
                                           ; exit point of _timer0_pwm_config
                                           
                                           ;***
                                           ;  pBlock Stats: dbName = C
                                           ;***
                                           ;entry:  _adc_config	;Function start
                                           ; 2 exit points
                                           ;has an exit
                                           ;; Starting pCode block
                                           _adc_config	;Function start
                                           ; 2 exit points
                                           ;	.line	68; "MC32F7361.c"	P11OE = 0; // 
                                           	BCLR	_OEP1bits,1
                                           ;	.line	69; "MC32F7361.c"	P11DC = 1; // 
                                           	BSET	_P1ADCRbits,1
                                           ;	.line	76; "MC32F7361.c"	ADCR0 = 0x0B; // 12adc
                                           	MOVAI	0x0b
                                           	MOVRA	_ADCR0
                                           ;	.line	77; "MC32F7361.c"	ADCR1 = 0x80; // adc FHIRC/322.0V
                                           	MOVAI	0x80
                                           	MOVRA	_ADCR1
                                           ;	.line	78; "MC32F7361.c"	ADCR2 = 0x0F; // 15  ADCLK
                                           	MOVAI	0x0f
                                           	MOVRA	_ADCR2
                                           ;	.line	79; "MC32F7361.c"	}
                                           	RETURN	
                                           ; exit point of _adc_config
                                           
                                           ;***
                                           ;  pBlock Stats: dbName = C
                                           ;***
                                           ;entry:  _IO_Init	;Function start
                                           ; 2 exit points
                                           ;has an exit
                                           ;; Starting pCode block
                                           _IO_Init	;Function start
                                           ; 2 exit points
                                           ;	.line	37; "MC32F7361.c"	IOP0 = 0x00;   // io
                                           	CLRR	_IOP0
                                           ;	.line	38; "MC32F7361.c"	OEP0 = 0x3F;   // io 1:out  0:in
                                           	MOVAI	0x3f
                                           	MOVRA	_OEP0
                                           ;	.line	39; "MC32F7361.c"	PUP0 = 0x00;   // io   1:enable  0:disable
                                           	CLRR	_PUP0
                                           ;	.line	40; "MC32F7361.c"	PDP0 = 0x00;   // io   1:enable  0:disable
                                           	CLRR	_PDP0
                                           ;	.line	41; "MC32F7361.c"	P0ADCR = 0x00; // io  1:  0:io
                                           	CLRR	_P0ADCR
                                           ;	.line	43; "MC32F7361.c"	IOP1 = 0x00;   // io
                                           	CLRR	_IOP1
                                           ;	.line	44; "MC32F7361.c"	OEP1 = 0xFF;   // io 1:out  0:in
                                           	MOVAI	0xff
                                           	MOVRA	_OEP1
                                           ;	.line	45; "MC32F7361.c"	PUP1 = 0x00;   // io   1:enable  0:disable
                                           	CLRR	_PUP1
                                           ;	.line	46; "MC32F7361.c"	PDP1 = 0x00;   // io   1:enable  0:disable
                                           	CLRR	_PDP1
                                           ;	.line	47; "MC32F7361.c"	P1ADCR = 0x00; // io  1:  0:io
                                           	CLRR	_P1ADCR
                                           ;	.line	49; "MC32F7361.c"	IOP2 = 0x00; // io
                                           	CLRR	_IOP2
                                           ;	.line	50; "MC32F7361.c"	OEP2 = 0x0F; // io 1:out  0:in
                                           	MOVAI	0x0f
                                           	MOVRA	_OEP2
                                           ;	.line	51; "MC32F7361.c"	PUP2 = 0x00; // io   1:enable  0:disable
                                           	CLRR	_PUP2
                                           ;	.line	52; "MC32F7361.c"	PDP2 = 0x00; // io   1:enable  0:disablea
                                           	CLRR	_PDP2
                                           ;	.line	54; "MC32F7361.c"	PMOD = 0x00;  // P00P01P13 io
                                           	CLRR	_PMOD
                                           ;	.line	55; "MC32F7361.c"	DRVCR = 0x80; // 
                                           	MOVAI	0x80
                                           	MOVRA	_DRVCR
                                           ;	.line	56; "MC32F7361.c"	}
                                           	RETURN	
                                           ; exit point of _IO_Init
                                           
                                           ;***
                                           ;  pBlock Stats: dbName = C
                                           ;***
                                           ;entry:  _CLR_RAM	;Function start
                                           ; 2 exit points
                                           ;has an exit
                                           ;; Starting pCode block
                                           _CLR_RAM	;Function start
                                           ; 2 exit points
                                           ;	.line	22; "MC32F7361.c"	for (FSR0 = 0; FSR0 < 0xff; FSR0++)
                                           	CLRR	_FSR0
                                           ;;unsigned compare: left < lit(0xFF=255), size=1
                                           _00147_DS_
                                           	MOVAI	0xff
                                           	RSUBAR	_FSR0
                                           	JBCLR	PFLAG,0
                                           	GOTO	_00145_DS_
                                           ;;genSkipc:3291: created from rifx:013B5EFC
                                           ;	.line	24; "MC32F7361.c"	INDF0 = 0x00;
                                           	CLRR	_INDF0
                                           ;	.line	22; "MC32F7361.c"	for (FSR0 = 0; FSR0 < 0xff; FSR0++)
                                           	INCR	_FSR0
                                           	GOTO	_00147_DS_
                                           _00145_DS_
                                           ;	.line	26; "MC32F7361.c"	FSR0 = 0xFF;
                                           	MOVAI	0xff
                                           	MOVRA	_FSR0
                                           ;	.line	27; "MC32F7361.c"	INDF0 = 0x00;
                                           	CLRR	_INDF0
                                           ;	.line	28; "MC32F7361.c"	}
                                           	RETURN	
                                           ; exit point of _CLR_RAM
                                           
                                           ;***
                                           ;  pBlock Stats: dbName = C
                                           ;***
                                           ;entry:  _send_data_msb	;Function start
                                           ; 2 exit points
                                           ;has an exit
                                           ;functions called:
                                           ;   _delay_ms
                                           ;   _delay_ms
                                           ;   _delay_ms
                                           ;   _delay_ms
                                           ;   _delay_ms
                                           ;   _delay_ms
                                           ;   _delay_ms
                                           ;   _delay_ms
                                           ;   _delay_ms
                                           ;   _delay_ms
                                           ;   _delay_ms
                                           ;   _delay_ms
                                           ;   _delay_ms
                                           ;   _delay_ms
                                           ;   _delay_ms
                                           ;   _delay_ms
                                           ;13 compiler assigned registers:
                                           ;   r0x100C
                                           ;   STK00
                                           ;   r0x100D
                                           ;   STK01
                                           ;   r0x100E
                                           ;   STK02
                                           ;   r0x100F
                                           ;   r0x1010
                                           ;   r0x1011
                                           ;   r0x1012
                                           ;   r0x1013
                                           ;   r0x1014
                                           ;   r0x1015
                                           ;; Starting pCode block
                                           _send_data_msb	;Function start
                                           ; 2 exit points
                                           ;	.line	172; "user.h"	void send_data_msb(u32 send_data)
                                           	MOVRA	r0x100C
                                           	MOVAR	STK00
                                           	MOVRA	r0x100D
                                           	MOVAR	STK01
                                           	MOVRA	r0x100E
                                           	MOVAR	STK02
                                           	MOVRA	r0x100F
                                           ;	.line	176; "user.h"	DEBUG_PIN = 1;
                                           	BSET	_IOP2bits,2
                                           ;	.line	177; "user.h"	delay_ms(15);
                                           	MOVAI	0x0f
                                           	MOVRA	STK00
                                           	MOVAI	0x00
                                           	CALL	_delay_ms
                                           ;	.line	179; "user.h"	DEBUG_PIN = 0;
                                           	BCLR	_IOP2bits,2
                                           ;	.line	180; "user.h"	delay_ms(7); //
                                           	MOVAI	0x07
                                           	MOVRA	STK00
                                           	MOVAI	0x00
                                           	CALL	_delay_ms
                                           ;	.line	182; "user.h"	for (u8 i = 0; i < 32; i++)
                                           	CLRR	r0x1010
                                           ;;unsigned compare: left < lit(0x20=32), size=1
                                           _00121_DS_
                                           	MOVAI	0x20
                                           	RSUBAR	r0x1010
                                           	JBCLR	PFLAG,0
                                           	GOTO	_00119_DS_
                                           ;;genSkipc:3291: created from rifx:013B5EFC
                                           ;	.line	184; "user.h"	if ((send_data >> (32 - 1 - i)) & 0x01)
                                           	MOVAR	r0x1010
                                           	ISUBAI	0x1f
                                           	MOVRA	r0x1011
                                           	MOVAR	r0x100C
                                           	MOVRA	r0x1012
                                           	MOVAR	r0x100D
                                           	MOVRA	r0x1013
                                           	MOVAR	r0x100E
                                           	MOVRA	r0x1014
                                           	MOVAR	r0x100F
                                           	MOVRA	r0x1015
                                           	MOVAR	r0x1011
                                           	ISUBAI	0x00
                                           	JBCLR	PFLAG,2
                                           	GOTO	_00140_DS_
                                           _00139_DS_
                                           	RRR	r0x1012
                                           	RRR	r0x1013
                                           	RRR	r0x1014
                                           	RRR	r0x1015
                                           	ADDAI	0x01
                                           	JBSET	PFLAG,0
                                           	GOTO	_00139_DS_
                                           _00140_DS_
                                           	JBSET	r0x1015,0
                                           	GOTO	_00117_DS_
                                           ;	.line	188; "user.h"	DEBUG_PIN = 1;
                                           	BSET	_IOP2bits,2
                                           ;	.line	189; "user.h"	delay_ms(5); //
                                           	MOVAI	0x05
                                           	MOVRA	STK00
                                           	MOVAI	0x00
                                           	CALL	_delay_ms
                                           ;	.line	191; "user.h"	DEBUG_PIN = 0;
                                           	BCLR	_IOP2bits,2
                                           ;	.line	192; "user.h"	delay_ms(10); //
                                           	MOVAI	0x0a
                                           	MOVRA	STK00
                                           	MOVAI	0x00
                                           	CALL	_delay_ms
                                           	GOTO	_00122_DS_
                                           _00117_DS_
                                           ;	.line	198; "user.h"	DEBUG_PIN = 1;
                                           	BSET	_IOP2bits,2
                                           ;	.line	199; "user.h"	delay_ms(5); //
                                           	MOVAI	0x05
                                           	MOVRA	STK00
                                           	MOVAI	0x00
                                           	CALL	_delay_ms
                                           ;	.line	201; "user.h"	DEBUG_PIN = 0;
                                           	BCLR	_IOP2bits,2
                                           ;	.line	202; "user.h"	delay_ms(5); //
                                           	MOVAI	0x05
                                           	MOVRA	STK00
                                           	MOVAI	0x00
                                           	CALL	_delay_ms
                                           _00122_DS_
                                           ;	.line	182; "user.h"	for (u8 i = 0; i < 32; i++)
                                           	INCR	r0x1010
                                           	GOTO	_00121_DS_
                                           _00119_DS_
                                           ;	.line	208; "user.h"	DEBUG_PIN = 0;
                                           	BCLR	_IOP2bits,2
                                           ;	.line	209; "user.h"	delay_ms(1);
                                           	MOVAI	0x01
                                           	MOVRA	STK00
                                           	MOVAI	0x00
                                           	CALL	_delay_ms
                                           ;	.line	210; "user.h"	DEBUG_PIN = 1;
                                           	BSET	_IOP2bits,2
                                           ;	.line	211; "user.h"	delay_ms(1);
                                           	MOVAI	0x01
                                           	MOVRA	STK00
                                           	MOVAI	0x00
                                           	CALL	_delay_ms
                                           ;	.line	212; "user.h"	DEBUG_PIN = 0;
                                           	BCLR	_IOP2bits,2
                                           ;	.line	213; "user.h"	}
                                           	RETURN	
                                           ; exit point of _send_data_msb
                                           
                                           ;***
                                           ;  pBlock Stats: dbName = C
                                           ;***
                                           ;entry:  _delay_ms	;Function start
                                           ; 2 exit points
                                           ;has an exit
                                           ;7 compiler assigned registers:
                                           ;   r0x1006
                                           ;   STK00
                                           ;   r0x1007
                                           ;   r0x1008
                                           ;   r0x1009
                                           ;   r0x100A
                                           ;   r0x100B
                                           ;; Starting pCode block
                                           _delay_ms	;Function start
                                           ; 2 exit points
                                           ;	.line	150; "user.h"	void delay_ms(u16 xms)
                                           	MOVRA	r0x1006
                                           	MOVAR	STK00
                                           	MOVRA	r0x1007
                                           _00108_DS_
                                           ;	.line	152; "user.h"	while (xms)
                                           	MOVAR	r0x1007
                                           	ORAR	r0x1006
                                           	JBCLR	PFLAG,2
                                           	GOTO	_00111_DS_
                                           ;	.line	155; "user.h"	while (i--)
                                           	MOVAI	0x3c
                                           	MOVRA	r0x1008
                                           	MOVAI	0x02
                                           	MOVRA	r0x1009
                                           _00105_DS_
                                           	MOVAR	r0x1008
                                           	MOVRA	r0x100A
                                           	MOVAR	r0x1009
                                           	MOVRA	r0x100B
                                           	MOVAI	0xff
                                           	ADDRA	r0x1008
                                           	JBSET	PFLAG,0
                                           	DECR	r0x1009
                                           	MOVAR	r0x100A
                                           	ORAR	r0x100B
                                           	JBCLR	PFLAG,2
                                           	GOTO	_00107_DS_
                                           ;	.line	157; "user.h"	Nop();
                                           	nop	
                                           	GOTO	_00105_DS_
                                           _00107_DS_
                                           ;	.line	159; "user.h"	xms--; //  --while()
                                           	MOVAI	0xff
                                           	ADDRA	r0x1007
                                           	JBSET	PFLAG,0
                                           	DECR	r0x1006
                                           ;	.line	163; "user.h"	__endasm;
                                           	;
                                           	clrwdt;
                                           	
                                           	GOTO	_00108_DS_
                                           _00111_DS_
                                           ;	.line	165; "user.h"	}
                                           	RETURN	
                                           ; exit point of _delay_ms
                                           
                                           
                                           ;	code size estimation:
                                           ;	  585+    0 =   585 instructions ( 1170 byte)
                                           
                                           	end


MEMORY USAGE MAP ('X' = Used,  '-' = Unused)

0000 : XX-------------- XXXXXXXXXXXXXXXX XXXXXXXXXXXXXXXX XXXXXXXXXXXXXXXX
0040 : XXXXXXXXXXXXXXXX XXXXXXXXXXXXXXXX XXXXXXXXXXXXXXXX XXXXXXXXXXXXXXXX
0080 : XXXXXXXXXXXXXXXX XXXXXXXXXXXXXXXX XXXXXXXXXXXXXXXX XXXXXXXXXXXXXXXX
00C0 : XXXXXXXXXXXXXXXX XXXXXXXXXXXXXXXX XXXXXXXXXXXXXXXX XXXXXXXXXXXXXXXX
0100 : XXXXXXXXXXXXXXXX XXXXXXXXXXXXXXXX XXXXXXXXXXXXXXXX XXXXXXXXXXXXXXXX
0140 : XXXXXXXXXXXXXXXX XXXXXXXXXXXXXXXX XXXXXXXXXXXXXXXX XXXXXXXXXXXXXXXX
0180 : XXXXXXXXXXXXXXXX XXXXXXXXXXXXXXXX XXXXXXXXXXXXXXXX XXXXXXXXXXXXXXXX
01C0 : XXXXXXXXXXXXXXXX XXXXXXXXXXXXXXXX XXXXXXXXXXXXXXXX XXXXXXXXXXXXXXXX
0200 : XXXXXXXXXXXXXXXX XXXXXXXXXXXXXXXX XXXXXXXXXXXXXXXX XXXXXXXXXXXXXXXX
0240 : XXXXXXXXXXXXXXXX XXXXXXXXXXXXXXXX XXXXXXXXXXXXXXXX XXXXXXXXXXXXXXXX
0280 : XXXXXXXXXXXXXXXX XXXXXXXXXXXXXXXX XXXXXXXXXXXXXXXX XXXXXXXXXXXXXXXX
02C0 : XXXXXXXXXXXXXXXX XXXXXXXXXXXXXXXX XXXXXXXXXXXXXXXX XXXXXXXXXXXXXXXX
0300 : XXXXXXXXXXXXXXXX XXXXXXXXXXXXXXXX XXXXXXXXXXXXXXXX XXXXXXXXXXXXXXXX
0340 : XXXXXXXXXXXXXXXX XXXXXXXXXXXXXXXX XXXXXXXXXXXXXXXX XXXXXXXXXXXXXXXX
0380 : XXXXXXXXXXXXXXXX XXXXXXXXXXXXXXXX XXXXXXXXXXXXXXXX XXXXXXXXXXXXXXXX
03C0 : XXXXXXXXXXXXXXXX XXXXXXXXXXXXXXXX XXXXXXXXXXXXXXXX XXXXXXXXXXXXXXXX
0400 : XXXXXXXXXXXXXXXX XXXXXXXXXXXXXXXX XXXXXXXXXXXXXXXX XXXXXXXXXXXXXXXX
0440 : XXXXXXXXXXXXXXXX XXXXXXXXXXXXXXXX XXXXXXXXXXXXXXXX XXXXXXXXXXXXXXXX
0480 : XXXXXXXXXXXXXXXX XXXXXXXXXXXXXXXX XXXXXXXXXXXXXXXX XXXXXX----------

All other memory blocks unused.

Program Memory Words Used:   596

