gplink-2.2.37 (Jan 22 2024)
Listing File Generated: 2025-1-14  17:57:52
 
 
Address  Value    Disassembly              Source
-------  -----    -----------              ------
                                           ;--------------------------------------------------------
                                           ; external declarations
                                           ;--------------------------------------------------------
                                           	extern	_INDF0bits
                                           	extern	_INDF1bits
                                           	extern	_INDF2bits
                                           	extern	_HIBYTEbits
                                           	extern	_FSR0bits
                                           	extern	_FSR1bits
                                           	extern	_PCLbits
                                           	extern	_PFLAGbits
                                           	extern	_MCRbits
                                           	extern	_INDF3bits
                                           	extern	_INTEbits
                                           	extern	_INTFbits
                                           	extern	_DRVCRbits
                                           	extern	_P0KBCRbits
                                           	extern	_P1KBCRbits
                                           	extern	_P2KBCRbits
                                           	extern	_IOP0bits
                                           	extern	_OEP0bits
                                           	extern	_PUP0bits
                                           	extern	_PDP0bits
                                           	extern	_IOP1bits
                                           	extern	_OEP1bits
                                           	extern	_PUP1bits
                                           	extern	_PDP1bits
                                           	extern	_T0CRbits
                                           	extern	_T0CNTbits
                                           	extern	_T0LOADbits
                                           	extern	_T0DATAbits
                                           	extern	_T1CRbits
                                           	extern	_T1CNTbits
                                           	extern	_T1LOADbits
                                           	extern	_T1DATAbits
                                           	extern	_T2CRbits
                                           	extern	_T2CNTbits
                                           	extern	_T2LOADbits
                                           	extern	_T2DATAbits
                                           	extern	_T3CRbits
                                           	extern	_T3CNTbits
                                           	extern	_T3LOADbits
                                           	extern	_PWM0DRbits
                                           	extern	_PWM1DRbits
                                           	extern	_PWM2DRbits
                                           	extern	_PWMCR0bits
                                           	extern	_PWMCR1bits
                                           	extern	_OSCMRbits
                                           	extern	_LVDCRbits
                                           	extern	_ADCR0bits
                                           	extern	_ADCR1bits
                                           	extern	_ADCR2bits
                                           	extern	_OSADJCRbits
                                           	extern	_ADRHbits
                                           	extern	_ADRLbits
                                           	extern	_P0ADCRbits
                                           	extern	_P1ADCRbits
                                           	extern	_IOP2bits
                                           	extern	_OEP2bits
                                           	extern	_PUP2bits
                                           	extern	_PDP2bits
                                           	extern	_PMODbits
                                           	extern	_PWMCR3bits
                                           	extern	_PWMCR2bits
                                           	extern	_PFRCCRbits
                                           	extern	_PFRCCALbits
                                           	extern	_EECRbits
                                           	extern	_EEPRbits
                                           	extern	_EEARbits
                                           	extern	_EEDRHbits
                                           	extern	_EEDRLbits
                                           	extern	_DBGCRbits
                                           	extern	_DBGPRbits
                                           	extern	_HIRCCALbits
                                           	extern	_INDF0
                                           	extern	_INDF1
                                           	extern	_INDF2
                                           	extern	_HIBYTE
                                           	extern	_FSR0
                                           	extern	_FSR1
                                           	extern	_PCL
                                           	extern	_PFLAG
                                           	extern	_MCR
                                           	extern	_INDF3
                                           	extern	_INTE
                                           	extern	_INTF
                                           	extern	_DRVCR
                                           	extern	_P0KBCR
                                           	extern	_P1KBCR
                                           	extern	_P2KBCR
                                           	extern	_IOP0
                                           	extern	_OEP0
                                           	extern	_PUP0
                                           	extern	_PDP0
                                           	extern	_IOP1
                                           	extern	_OEP1
                                           	extern	_PUP1
                                           	extern	_PDP1
                                           	extern	_T0CR
                                           	extern	_T0CNT
                                           	extern	_T0LOAD
                                           	extern	_T0DATA
                                           	extern	_T1CR
                                           	extern	_T1CNT
                                           	extern	_T1LOAD
                                           	extern	_T1DATA
                                           	extern	_T2CR
                                           	extern	_T2CNT
                                           	extern	_T2LOAD
                                           	extern	_T2DATA
                                           	extern	_T3CR
                                           	extern	_T3CNT
                                           	extern	_T3LOAD
                                           	extern	_PWM0DR
                                           	extern	_PWM1DR
                                           	extern	_PWM2DR
                                           	extern	_PWMCR0
                                           	extern	_PWMCR1
                                           	extern	_OSCMR
                                           	extern	_LVDCR
                                           	extern	_ADCR0
                                           	extern	_ADCR1
                                           	extern	_ADCR2
                                           	extern	_OSADJCR
                                           	extern	_ADRH
                                           	extern	_ADRL
                                           	extern	_P0ADCR
                                           	extern	_P1ADCR
                                           	extern	_IOP2
                                           	extern	_OEP2
                                           	extern	_PUP2
                                           	extern	_PDP2
                                           	extern	_PMOD
                                           	extern	_PWMCR3
                                           	extern	_PWMCR2
                                           	extern	_PFRCCR
                                           	extern	_PFRCCAL
                                           	extern	_EECR
                                           	extern	_EEPR
                                           	extern	_EEAR
                                           	extern	_EEDRH
                                           	extern	_EEDRL
                                           	extern	_DBGCR
                                           	extern	_DBGPR
                                           	extern	_HIRCCAL
                                           ;--------------------------------------------------------
                                           ; global declarations
                                           ;--------------------------------------------------------
                                           	global	_delay_ms
                                           	global	_send_data_msb
                                           	global	_CLR_RAM
                                           	global	_IO_Init
                                           	global	_adc_config
                                           	global	_timer0_pwm_config
                                           	global	_timer3_config
                                           	global	_adc_sel_channel
                                           	global	_adc_get_val
                                           	global	_adc_get_max_val
                                           	global	_Sys_Init
                                           	global	_is_in_charging
                                           	global	_is_open_lid
                                           	global	_is_detect_load
                                           	global	_stop_charging_the_host
                                           	global	_low_power_scan_handle
                                           	global	_main
                                           	global	_int_isr
                                           	global	_cur_dev_status
                                           	global	_abuf
                                           	global	_statusbuf
                                           	global	_i
                                           	global	_cnt
                                           	global	_ret_u8
                                           	global	_adc_val
                                           	global	_tmp_val
                                           	global	_flag1
                                           
                                           	global STK06
                                           	global STK05
                                           	global STK04
                                           	global STK03
                                           	global STK02
                                           	global STK01
                                           	global STK00
                                           
                                           sharebank udata_ovr 0x0000
                                           STK06	res 1
                                           STK05	res 1
                                           STK04	res 1
                                           STK03	res 1
                                           STK02	res 1
                                           STK01	res 1
                                           STK00	res 1
                                           
                                           ;--------------------------------------------------------
                                           ; global definitions
                                           ;--------------------------------------------------------
                                           UD_MC32F7361_0	udata
                                           _cur_dev_status	res	1
                                           
                                           UD_MC32F7361_1	udata
                                           _abuf	res	1
                                           
                                           UD_MC32F7361_2	udata
                                           _statusbuf	res	1
                                           
                                           UD_MC32F7361_3	udata
                                           _i	res	1
                                           
                                           UD_MC32F7361_4	udata
                                           _cnt	res	1
                                           
                                           UD_MC32F7361_5	udata
                                           _ret_u8	res	1
                                           
                                           UD_MC32F7361_6	udata
                                           _adc_val	res	2
                                           
                                           UD_MC32F7361_7	udata
                                           _tmp_val	res	2
                                           
                                           UD_MC32F7361_8	udata
                                           _flag1	res	1
                                           
                                           ;--------------------------------------------------------
                                           ; absolute symbol definitions
                                           ;--------------------------------------------------------
                                           ;--------------------------------------------------------
                                           ; compiler-defined variables
                                           ;--------------------------------------------------------
                                           UDL_MC32F7361_0	udata
                                           r0x100C	res	1
                                           r0x100B	res	1
                                           r0x100D	res	1
                                           r0x100E	res	1
                                           r0x100F	res	1
                                           r0x1010	res	1
                                           r0x1014	res	1
                                           r0x1013	res	1
                                           r0x1012	res	1
                                           r0x1011	res	1
                                           r0x1015	res	1
                                           r0x1016	res	1
                                           r0x101A	res	1
                                           r0x1019	res	1
                                           r0x1018	res	1
                                           r0x1017	res	1
                                           r0x1023	res	1
                                           r0x1024	res	1
                                           r0x1025	res	1
                                           r0x1026	res	1
                                           r0x1027	res	1
                                           r0x1028	res	1
                                           r0x1029	res	1
                                           r0x102A	res	1
                                           r0x102B	res	1
                                           r0x102C	res	1
                                           r0x102D	res	1
                                           r0x102F	res	1
                                           r0x102E	res	1
                                           r0x1030	res	1
                                           r0x1031	res	1
                                           r0x1022	res	1
                                           r0x1021	res	1
                                           r0x101F	res	1
                                           r0x1020	res	1
                                           r0x101B	res	1
                                           r0x101C	res	1
                                           r0x1032	res	1
                                           r0x1033	res	1
                                           _adc_sel_channel_last_adc_channel_65536_24	res	1
                                           _int_isr_blink_cnt_131072_96	res	2
                                           ;--------------------------------------------------------
                                           ; initialized data
                                           ;--------------------------------------------------------
                                           
                                           ;@Allocation info for local variables in function 'delay_ms'
                                           ;@delay_ms delay_ms                  Allocated to registers ;size:2
                                           ;@delay_ms INDF0bits                 Allocated to registers ;size:1
                                           ;@delay_ms INDF1bits                 Allocated to registers ;size:1
                                           ;@delay_ms INDF2bits                 Allocated to registers ;size:1
                                           ;@delay_ms HIBYTEbits                Allocated to registers ;size:1
                                           ;@delay_ms FSR0bits                  Allocated to registers ;size:1
                                           ;@delay_ms FSR1bits                  Allocated to registers ;size:1
                                           ;@delay_ms PCLbits                   Allocated to registers ;size:1
                                           ;@delay_ms PFLAGbits                 Allocated to registers ;size:1
                                           ;@delay_ms MCRbits                   Allocated to registers ;size:1
                                           ;@delay_ms INDF3bits                 Allocated to registers ;size:1
                                           ;@delay_ms INTEbits                  Allocated to registers ;size:1
                                           ;@delay_ms INTFbits                  Allocated to registers ;size:1
                                           ;@delay_ms DRVCRbits                 Allocated to registers ;size:1
                                           ;@delay_ms P0KBCRbits                Allocated to registers ;size:1
                                           ;@delay_ms P1KBCRbits                Allocated to registers ;size:1
                                           ;@delay_ms P2KBCRbits                Allocated to registers ;size:1
                                           ;@delay_ms IOP0bits                  Allocated to registers ;size:1
                                           ;@delay_ms OEP0bits                  Allocated to registers ;size:1
                                           ;@delay_ms PUP0bits                  Allocated to registers ;size:1
                                           ;@delay_ms PDP0bits                  Allocated to registers ;size:1
                                           ;@delay_ms IOP1bits                  Allocated to registers ;size:1
                                           ;@delay_ms OEP1bits                  Allocated to registers ;size:1
                                           ;@delay_ms PUP1bits                  Allocated to registers ;size:1
                                           ;@delay_ms PDP1bits                  Allocated to registers ;size:1
                                           ;@delay_ms T0CRbits                  Allocated to registers ;size:1
                                           ;@delay_ms T0CNTbits                 Allocated to registers ;size:1
                                           ;@delay_ms T0LOADbits                Allocated to registers ;size:1
                                           ;@delay_ms T0DATAbits                Allocated to registers ;size:1
                                           ;@delay_ms T1CRbits                  Allocated to registers ;size:1
                                           ;@delay_ms T1CNTbits                 Allocated to registers ;size:1
                                           ;@delay_ms T1LOADbits                Allocated to registers ;size:1
                                           ;@delay_ms T1DATAbits                Allocated to registers ;size:1
                                           ;@delay_ms T2CRbits                  Allocated to registers ;size:1
                                           ;@delay_ms T2CNTbits                 Allocated to registers ;size:1
                                           ;@delay_ms T2LOADbits                Allocated to registers ;size:1
                                           ;@delay_ms T2DATAbits                Allocated to registers ;size:1
                                           ;@delay_ms T3CRbits                  Allocated to registers ;size:1
                                           ;@delay_ms T3CNTbits                 Allocated to registers ;size:1
                                           ;@delay_ms T3LOADbits                Allocated to registers ;size:1
                                           ;@delay_ms PWM0DRbits                Allocated to registers ;size:1
                                           ;@delay_ms PWM1DRbits                Allocated to registers ;size:1
                                           ;@delay_ms PWM2DRbits                Allocated to registers ;size:1
                                           ;@delay_ms PWMCR0bits                Allocated to registers ;size:1
                                           ;@delay_ms PWMCR1bits                Allocated to registers ;size:1
                                           ;@delay_ms OSCMRbits                 Allocated to registers ;size:1
                                           ;@delay_ms LVDCRbits                 Allocated to registers ;size:1
                                           ;@delay_ms ADCR0bits                 Allocated to registers ;size:1
                                           ;@delay_ms ADCR1bits                 Allocated to registers ;size:1
                                           ;@delay_ms ADCR2bits                 Allocated to registers ;size:1
                                           ;@delay_ms OSADJCRbits               Allocated to registers ;size:1
                                           ;@delay_ms ADRHbits                  Allocated to registers ;size:1
                                           ;@delay_ms ADRLbits                  Allocated to registers ;size:1
                                           ;@delay_ms P0ADCRbits                Allocated to registers ;size:1
                                           ;@delay_ms P1ADCRbits                Allocated to registers ;size:1
                                           ;@delay_ms IOP2bits                  Allocated to registers ;size:1
                                           ;@delay_ms OEP2bits                  Allocated to registers ;size:1
                                           ;@delay_ms PUP2bits                  Allocated to registers ;size:1
                                           ;@delay_ms PDP2bits                  Allocated to registers ;size:1
                                           ;@delay_ms PMODbits                  Allocated to registers ;size:1
                                           ;@delay_ms PWMCR3bits                Allocated to registers ;size:1
                                           ;@delay_ms PWMCR2bits                Allocated to registers ;size:1
                                           ;@delay_ms PFRCCRbits                Allocated to registers ;size:1
                                           ;@delay_ms PFRCCALbits               Allocated to registers ;size:1
                                           ;@delay_ms EECRbits                  Allocated to registers ;size:1
                                           ;@delay_ms EEPRbits                  Allocated to registers ;size:1
                                           ;@delay_ms EEARbits                  Allocated to registers ;size:1
                                           ;@delay_ms EEDRHbits                 Allocated to registers ;size:1
                                           ;@delay_ms EEDRLbits                 Allocated to registers ;size:1
                                           ;@delay_ms DBGCRbits                 Allocated to registers ;size:1
                                           ;@delay_ms DBGPRbits                 Allocated to registers ;size:1
                                           ;@delay_ms HIRCCALbits               Allocated to registers ;size:1
                                           ;@delay_ms cur_dev_status            Allocated to registers ;size:1
                                           ;@delay_ms abuf                      Allocated to registers ;size:1
                                           ;@delay_ms statusbuf                 Allocated to registers ;size:1
                                           ;@delay_ms i                         Allocated to registers ;size:1
                                           ;@delay_ms cnt                       Allocated to registers ;size:1
                                           ;@delay_ms ret_u8                    Allocated to registers ;size:1
                                           ;@delay_ms adc_val                   Allocated to registers ;size:2
                                           ;@delay_ms tmp_val                   Allocated to registers ;size:2
                                           ;@delay_ms flag1                     Allocated to registers ;size:1
                                           ;@delay_ms xms                       Allocated to registers ;size:2
                                           ;@delay_ms i                         Allocated to registers r0x100D r0x100E ;size:2
                                           ;@delay_ms INDF0                     Allocated to registers ;size:1
                                           ;@delay_ms INDF1                     Allocated to registers ;size:1
                                           ;@delay_ms INDF2                     Allocated to registers ;size:1
                                           ;@delay_ms HIBYTE                    Allocated to registers ;size:1
                                           ;@delay_ms FSR0                      Allocated to registers ;size:1
                                           ;@delay_ms FSR1                      Allocated to registers ;size:1
                                           ;@delay_ms PCL                       Allocated to registers ;size:1
                                           ;@delay_ms PFLAG                     Allocated to registers ;size:1
                                           ;@delay_ms MCR                       Allocated to registers ;size:1
                                           ;@delay_ms INDF3                     Allocated to registers ;size:1
                                           ;@delay_ms INTE                      Allocated to registers ;size:1
                                           ;@delay_ms INTF                      Allocated to registers ;size:1
                                           ;@delay_ms DRVCR                     Allocated to registers ;size:1
                                           ;@delay_ms P0KBCR                    Allocated to registers ;size:1
                                           ;@delay_ms P1KBCR                    Allocated to registers ;size:1
                                           ;@delay_ms P2KBCR                    Allocated to registers ;size:1
                                           ;@delay_ms IOP0                      Allocated to registers ;size:1
                                           ;@delay_ms OEP0                      Allocated to registers ;size:1
                                           ;@delay_ms PUP0                      Allocated to registers ;size:1
                                           ;@delay_ms PDP0                      Allocated to registers ;size:1
                                           ;@delay_ms IOP1                      Allocated to registers ;size:1
                                           ;@delay_ms OEP1                      Allocated to registers ;size:1
                                           ;@delay_ms PUP1                      Allocated to registers ;size:1
                                           ;@delay_ms PDP1                      Allocated to registers ;size:1
                                           ;@delay_ms T0CR                      Allocated to registers ;size:1
                                           ;@delay_ms T0CNT                     Allocated to registers ;size:1
                                           ;@delay_ms T0LOAD                    Allocated to registers ;size:1
                                           ;@delay_ms T0DATA                    Allocated to registers ;size:1
                                           ;@delay_ms T1CR                      Allocated to registers ;size:1
                                           ;@delay_ms T1CNT                     Allocated to registers ;size:1
                                           ;@delay_ms T1LOAD                    Allocated to registers ;size:1
                                           ;@delay_ms T1DATA                    Allocated to registers ;size:1
                                           ;@delay_ms T2CR                      Allocated to registers ;size:1
                                           ;@delay_ms T2CNT                     Allocated to registers ;size:1
                                           ;@delay_ms T2LOAD                    Allocated to registers ;size:1
                                           ;@delay_ms T2DATA                    Allocated to registers ;size:1
                                           ;@delay_ms T3CR                      Allocated to registers ;size:1
                                           ;@delay_ms T3CNT                     Allocated to registers ;size:1
                                           ;@delay_ms T3LOAD                    Allocated to registers ;size:1
                                           ;@delay_ms PWM0DR                    Allocated to registers ;size:1
                                           ;@delay_ms PWM1DR                    Allocated to registers ;size:1
                                           ;@delay_ms PWM2DR                    Allocated to registers ;size:1
                                           ;@delay_ms PWMCR0                    Allocated to registers ;size:1
                                           ;@delay_ms PWMCR1                    Allocated to registers ;size:1
                                           ;@delay_ms OSCMR                     Allocated to registers ;size:1
                                           ;@delay_ms LVDCR                     Allocated to registers ;size:1
                                           ;@delay_ms ADCR0                     Allocated to registers ;size:1
                                           ;@delay_ms ADCR1                     Allocated to registers ;size:1
                                           ;@delay_ms ADCR2                     Allocated to registers ;size:1
                                           ;@delay_ms OSADJCR                   Allocated to registers ;size:1
                                           ;@delay_ms ADRH                      Allocated to registers ;size:1
                                           ;@delay_ms ADRL                      Allocated to registers ;size:1
                                           ;@delay_ms P0ADCR                    Allocated to registers ;size:1
                                           ;@delay_ms P1ADCR                    Allocated to registers ;size:1
                                           ;@delay_ms IOP2                      Allocated to registers ;size:1
                                           ;@delay_ms OEP2                      Allocated to registers ;size:1
                                           ;@delay_ms PUP2                      Allocated to registers ;size:1
                                           ;@delay_ms PDP2                      Allocated to registers ;size:1
                                           ;@delay_ms PMOD                      Allocated to registers ;size:1
                                           ;@delay_ms PWMCR3                    Allocated to registers ;size:1
                                           ;@delay_ms PWMCR2                    Allocated to registers ;size:1
                                           ;@delay_ms PFRCCR                    Allocated to registers ;size:1
                                           ;@delay_ms PFRCCAL                   Allocated to registers ;size:1
                                           ;@delay_ms EECR                      Allocated to registers ;size:1
                                           ;@delay_ms EEPR                      Allocated to registers ;size:1
                                           ;@delay_ms EEAR                      Allocated to registers ;size:1
                                           ;@delay_ms EEDRH                     Allocated to registers ;size:1
                                           ;@delay_ms EEDRL                     Allocated to registers ;size:1
                                           ;@delay_ms DBGCR                     Allocated to registers ;size:1
                                           ;@delay_ms DBGPR                     Allocated to registers ;size:1
                                           ;@delay_ms HIRCCAL                   Allocated to registers ;size:1
                                           ;@end Allocation info for local variables in function 'delay_ms';
                                           ;@Allocation info for local variables in function 'send_data_msb'
                                           ;@send_data_msb send_data                 Allocated to registers r0x1014 r0x1013 r0x1012 r0x1011 ;size:4
                                           ;@send_data_msb i                         Allocated to registers r0x1015 ;size:1
                                           ;@end Allocation info for local variables in function 'send_data_msb';
                                           ;@Allocation info for local variables in function 'CLR_RAM'
                                           ;@end Allocation info for local variables in function 'CLR_RAM';
                                           ;@Allocation info for local variables in function 'IO_Init'
                                           ;@end Allocation info for local variables in function 'IO_Init';
                                           ;@Allocation info for local variables in function 'adc_config'
                                           ;@end Allocation info for local variables in function 'adc_config';
                                           ;@Allocation info for local variables in function 'timer0_pwm_config'
                                           ;@end Allocation info for local variables in function 'timer0_pwm_config';
                                           ;@Allocation info for local variables in function 'timer3_config'
                                           ;@end Allocation info for local variables in function 'timer3_config';
                                           ;@Allocation info for local variables in function 'adc_sel_channel'
                                           ;@adc_sel_channel adc_channel               Allocated to registers r0x1011 ;size:1
                                           ;@adc_sel_channel last_adc_channel          Allocated to registers ;size:1
                                           ;@end Allocation info for local variables in function 'adc_sel_channel';
                                           ;@Allocation info for local variables in function 'adc_sel_channel'
                                           ;@adc_sel_channel adc_channel               Allocated to registers r0x1011 ;size:1
                                           ;@adc_sel_channel last_adc_channel          Allocated to registers ;size:1
                                           ;@end Allocation info for local variables in function 'adc_sel_channel';
                                           ;@Allocation info for local variables in function 'adc_get_val'
                                           ;@adc_get_val i                         Allocated to registers r0x102B ;size:1
                                           ;@adc_get_val g_temp_value              Allocated to registers r0x102C r0x102D ;size:2
                                           ;@adc_get_val g_tmpbuff                 Allocated to registers r0x1027 r0x1028 r0x102E r0x1030 ;size:4
                                           ;@adc_get_val g_adcmax                  Allocated to registers r0x1027 r0x1028 ;size:2
                                           ;@adc_get_val g_adcmin                  Allocated to registers r0x1029 r0x102A ;size:2
                                           ;@end Allocation info for local variables in function 'adc_get_val';
                                           ;@Allocation info for local variables in function 'adc_get_max_val'
                                           ;@adc_get_max_val i                         Allocated to registers r0x100D ;size:1
                                           ;@adc_get_max_val g_temp_value              Allocated to registers r0x100E r0x100F ;size:2
                                           ;@adc_get_max_val g_adcmax                  Allocated to registers r0x100B r0x100C ;size:2
                                           ;@end Allocation info for local variables in function 'adc_get_max_val';
                                           ;@Allocation info for local variables in function 'Sys_Init'
                                           ;@end Allocation info for local variables in function 'Sys_Init';
                                           ;@Allocation info for local variables in function 'is_in_charging'
                                           ;@is_in_charging ret                       Allocated to registers r0x1022 ;size:1
                                           ;@end Allocation info for local variables in function 'is_in_charging';
                                           ;@Allocation info for local variables in function 'is_open_lid'
                                           ;@is_open_lid ret                       Allocated to registers r0x1021 ;size:1
                                           ;@end Allocation info for local variables in function 'is_open_lid';
                                           ;@Allocation info for local variables in function 'is_detect_load'
                                           ;@is_detect_load max_adc_val               Allocated to registers r0x101F r0x1020 ;size:2
                                           ;@end Allocation info for local variables in function 'is_detect_load';
                                           ;@Allocation info for local variables in function 'stop_charging_the_host'
                                           ;@end Allocation info for local variables in function 'stop_charging_the_host';
                                           ;@Allocation info for local variables in function 'low_power_scan_handle'
                                           ;@end Allocation info for local variables in function 'low_power_scan_handle';
                                           ;@Allocation info for local variables in function 'main'
                                           ;@end Allocation info for local variables in function 'main';
                                           ;@Allocation info for local variables in function 'int_isr'
                                           ;@int_isr blink_cnt                 Allocated to registers ;size:2
                                           ;@end Allocation info for local variables in function 'int_isr';
                                           ;@Allocation info for local variables in function 'int_isr'
                                           ;@int_isr blink_cnt                 Allocated to registers ;size:2
                                           ;@end Allocation info for local variables in function 'int_isr';
                                           
                                           ;--------------------------------------------------------
                                           ; overlayable items in internal ram 
                                           ;--------------------------------------------------------
                                           ;	udata_ovr
                                           ;--------------------------------------------------------
                                           ; reset vector 
                                           ;--------------------------------------------------------
                                           STARTUP	code 0x0000
000000   a055     goto    0x55             	goto	_main
                                           ;--------------------------------------------------------
                                           ; interrupt and initialization code
                                           ;--------------------------------------------------------
                                           c_interrupt	code	0x8
                                           __sdcc_interrupt
                                           ;***
                                           ;  pBlock Stats: dbName = I
                                           ;***
                                           ;entry:  _int_isr	;Function start
                                           ; 0 exit points
                                           ;2 compiler assigned registers:
                                           ;   r0x1032
                                           ;   r0x1033
                                           ;; Starting pCode block
                                           _int_isr	;Function start
                                           ; 0 exit points
                                           ;	.line	655; "MC32F7361.c"	__endasm;
                                           	;
000008   5636     movra   0x36             	movra	_abuf;
000009   4587     swapar  0x187            	swapar	_PFLAG;
00000a   5637     movra   0x37             	movra	_statusbuf;
                                           	
                                           ;	.line	657; "MC32F7361.c"	if (KBIF & KBIE)
00000b   762c     clrr    0x2c             	CLRR	r0x1032
00000c   f98b     jbclr   0x18b, 0x4       	JBCLR	_INTFbits,4
00000d   662c     incr    0x2c             	INCR	r0x1032
00000e   762d     clrr    0x2d             	CLRR	r0x1033
00000f   f98a     jbclr   0x18a, 0x4       	JBCLR	_INTEbits,4
000010   662d     incr    0x2d             	INCR	r0x1033
000011   582d     movar   0x2d             	MOVAR	r0x1033
000012   7a2c     andra   0x2c             	ANDRA	r0x1032
000013   3c00     movai   0                	MOVAI	0x00
000014   5c2c     orar    0x2c             	ORAR	r0x1032
000015   f587     jbclr   0x187, 0x2       	JBCLR	PFLAG,2
000016   a018     goto    0x18             	GOTO	_00432_DS_
                                           ;	.line	659; "MC32F7361.c"	KBIF = 0;
000017   d98b     bclr    0x18b, 0x4       	BCLR	_INTFbits,4
                                           _00432_DS_
                                           ;	.line	662; "MC32F7361.c"	if (T3IF & T3IE)
000018   762c     clrr    0x2c             	CLRR	r0x1032
000019   ff8b     jbclr   0x18b, 0x7       	JBCLR	_INTFbits,7
00001a   662c     incr    0x2c             	INCR	r0x1032
00001b   762d     clrr    0x2d             	CLRR	r0x1033
00001c   ff8a     jbclr   0x18a, 0x7       	JBCLR	_INTEbits,7
00001d   662d     incr    0x2d             	INCR	r0x1033
00001e   582d     movar   0x2d             	MOVAR	r0x1033
00001f   7a2c     andra   0x2c             	ANDRA	r0x1032
000020   3c00     movai   0                	MOVAI	0x00
000021   5c2c     orar    0x2c             	ORAR	r0x1032
000022   f587     jbclr   0x187, 0x2       	JBCLR	PFLAG,2
000023   a050     goto    0x50             	GOTO	_00455_DS_
                                           ;	.line	666; "MC32F7361.c"	if (CUR_STATUS_IN_CHARGING == cur_dev_status && flag_is_low_bat)
000024   5835     movar   0x35             	MOVAR	_cur_dev_status
000025   3902     xorai   0x2              	XORAI	0x02
000026   e587     jbset   0x187, 0x2       	JBSET	PFLAG,2
000027   a04c     goto    0x4c             	GOTO	_00447_DS_
000028   e83b     jbset   0x3b, 0x4        	JBSET	_flag1,4
000029   a04c     goto    0x4c             	GOTO	_00447_DS_
                                           ;;unsigned compare: left < lit(0xFFFF=65535), size=2
                                           ;	.line	669; "MC32F7361.c"	if (blink_cnt < 65535)
00002a   3cff     movai   0xff             	MOVAI	0xff
00002b   4830     rsubar  0x30             	RSUBAR	(_int_isr_blink_cnt_131072_96 + 1)
00002c   e587     jbset   0x187, 0x2       	JBSET	PFLAG,2
00002d   a030     goto    0x30             	GOTO	_00486_DS_
00002e   3cff     movai   0xff             	MOVAI	0xff
00002f   482f     rsubar  0x2f             	RSUBAR	_int_isr_blink_cnt_131072_96
                                           _00486_DS_
000030   f187     jbclr   0x187, 0         	JBCLR	PFLAG,0
000031   a035     goto    0x35             	GOTO	_00434_DS_
                                           ;;genSkipc:3291: created from rifx:013B5EFC
                                           ;	.line	670; "MC32F7361.c"	blink_cnt++;
000032   662f     incr    0x2f             	INCR	_int_isr_blink_cnt_131072_96
000033   f587     jbclr   0x187, 0x2       	JBCLR	PFLAG,2
000034   6630     incr    0x30             	INCR	(_int_isr_blink_cnt_131072_96 + 1)
                                           ;;swapping arguments (AOP_TYPEs 1/3)
                                           ;;unsigned compare: left >= lit(0x1F5=501), size=2
                                           _00434_DS_
                                           ;	.line	672; "MC32F7361.c"	if (blink_cnt <= 500)
000035   3c01     movai   0x1              	MOVAI	0x01
000036   4830     rsubar  0x30             	RSUBAR	(_int_isr_blink_cnt_131072_96 + 1)
000037   e587     jbset   0x187, 0x2       	JBSET	PFLAG,2
000038   a03b     goto    0x3b             	GOTO	_00487_DS_
000039   3cf5     movai   0xf5             	MOVAI	0xf5
00003a   482f     rsubar  0x2f             	RSUBAR	_int_isr_blink_cnt_131072_96
                                           _00487_DS_
00003b   f187     jbclr   0x187, 0         	JBCLR	PFLAG,0
00003c   a03f     goto    0x3f             	GOTO	_00445_DS_
                                           ;;genSkipc:3291: created from rifx:013B5EFC
                                           ;	.line	674; "MC32F7361.c"	LED_RED_ON();
00003d   cf94     bset    0x194, 0x7       	BSET	_IOP1bits,7
00003e   a04f     goto    0x4f             	GOTO	_00452_DS_
                                           ;;swapping arguments (AOP_TYPEs 1/3)
                                           ;;unsigned compare: left >= lit(0x3E9=1001), size=2
                                           _00445_DS_
                                           ;	.line	676; "MC32F7361.c"	else if (blink_cnt <= 1000)
00003f   3c03     movai   0x3              	MOVAI	0x03
000040   4830     rsubar  0x30             	RSUBAR	(_int_isr_blink_cnt_131072_96 + 1)
000041   e587     jbset   0x187, 0x2       	JBSET	PFLAG,2
000042   a045     goto    0x45             	GOTO	_00488_DS_
000043   3ce9     movai   0xe9             	MOVAI	0xe9
000044   482f     rsubar  0x2f             	RSUBAR	_int_isr_blink_cnt_131072_96
                                           _00488_DS_
000045   f187     jbclr   0x187, 0         	JBCLR	PFLAG,0
000046   a049     goto    0x49             	GOTO	_00442_DS_
                                           ;;genSkipc:3291: created from rifx:013B5EFC
                                           ;	.line	678; "MC32F7361.c"	LED_RED_OFF();
000047   df94     bclr    0x194, 0x7       	BCLR	_IOP1bits,7
000048   a04f     goto    0x4f             	GOTO	_00452_DS_
                                           _00442_DS_
                                           ;	.line	682; "MC32F7361.c"	blink_cnt = 0;
000049   762f     clrr    0x2f             	CLRR	_int_isr_blink_cnt_131072_96
00004a   7630     clrr    0x30             	CLRR	(_int_isr_blink_cnt_131072_96 + 1)
00004b   a04f     goto    0x4f             	GOTO	_00452_DS_
                                           _00447_DS_
                                           ;	.line	687; "MC32F7361.c"	LED_RED_OFF();
00004c   df94     bclr    0x194, 0x7       	BCLR	_IOP1bits,7
                                           ;	.line	688; "MC32F7361.c"	blink_cnt = 0;
00004d   762f     clrr    0x2f             	CLRR	_int_isr_blink_cnt_131072_96
00004e   7630     clrr    0x30             	CLRR	(_int_isr_blink_cnt_131072_96 + 1)
                                           _00452_DS_
                                           ;	.line	691; "MC32F7361.c"	T3IF = 0;
00004f   df8b     bclr    0x18b, 0x7       	BCLR	_INTFbits,7
                                           _00455_DS_
                                           ;	.line	699; "MC32F7361.c"	__endasm;
                                           	;
000050   4437     swapar  0x37             	swapar	_statusbuf;
000051   5787     movra   0x187            	movra	_PFLAG;
000052   4636     swapr   0x36             	swapr	_abuf;
000053   4436     swapar  0x36             	swapar	_abuf;
                                           	
                                           END_OF_INTERRUPT
                                           ;	.line	700; "MC32F7361.c"	}
000054   000d     retie                    	RETIE	
                                           
                                           ;--------------------------------------------------------
                                           ; code
                                           ;--------------------------------------------------------
                                           code_MC32F7361	code
                                           ;***
                                           ;  pBlock Stats: dbName = M
                                           ;***
                                           ;entry:  _main	;Function start
                                           ; 2 exit points
                                           ;has an exit
                                           ;functions called:
                                           ;   _Sys_Init
                                           ;   _delay_ms
                                           ;   _adc_sel_channel
                                           ;   _adc_get_max_val
                                           ;   _send_data_msb
                                           ;   _Sys_Init
                                           ;   _delay_ms
                                           ;   _adc_sel_channel
                                           ;   _adc_get_max_val
                                           ;   _send_data_msb
                                           ;7 compiler assigned registers:
                                           ;   STK00
                                           ;   r0x101B
                                           ;   r0x101C
                                           ;   r0x101D
                                           ;   r0x101E
                                           ;   STK02
                                           ;   STK01
                                           ;; Starting pCode block
                                           _main	;Function start
                                           ; 2 exit points
                                           ;	.line	469; "MC32F7361.c"	Sys_Init();
000055   8135     call    0x135            	CALL	_Sys_Init
                                           ;	.line	470; "MC32F7361.c"	delay_ms(10);
000056   3c0a     movai   0xa              	MOVAI	0x0a
000057   5606     movra   0x6              	MOVRA	STK00
000058   3c00     movai   0                	MOVAI	0x00
000059   82bc     call    0x2bc            	CALL	_delay_ms
                                           ;	.line	473; "MC32F7361.c"	PWM_ENABEL(); // 
00005a   cd98     bset    0x198, 0x6       	BSET	_T0CRbits,6
00005b   cf98     bset    0x198, 0x7       	BSET	_T0CRbits,7
                                           _00402_DS_
                                           ;	.line	478; "MC32F7361.c"	adc_sel_channel(ADC_CHANNEL_LOAD);
00005c   3c02     movai   0x2              	MOVAI	0x02
00005d   820e     call    0x20e            	CALL	_adc_sel_channel
                                           ;	.line	479; "MC32F7361.c"	tmp_val = 0;
00005e   7633     clrr    0x33             	CLRR	_tmp_val
00005f   7634     clrr    0x34             	CLRR	(_tmp_val + 1)
                                           ;	.line	480; "MC32F7361.c"	for (i = 0; i < 100; i++)
000060   7638     clrr    0x38             	CLRR	_i
                                           ;;unsigned compare: left < lit(0x64=100), size=1
                                           _00405_DS_
000061   3c64     movai   0x64             	MOVAI	0x64
000062   4838     rsubar  0x38             	RSUBAR	_i
000063   f187     jbclr   0x187, 0         	JBCLR	PFLAG,0
000064   a05c     goto    0x5c             	GOTO	_00402_DS_
                                           ;;genSkipc:3291: created from rifx:013B5EFC
                                           ;	.line	482; "MC32F7361.c"	adc_val = adc_get_max_val();
000065   813f     call    0x13f            	CALL	_adc_get_max_val
000066   5632     movra   0x32             	MOVRA	(_adc_val + 1)
000067   5806     movar   0x6              	MOVAR	STK00
000068   5631     movra   0x31             	MOVRA	_adc_val
                                           ;	.line	483; "MC32F7361.c"	if (adc_val > tmp_val)
000069   5832     movar   0x32             	MOVAR	(_adc_val + 1)
00006a   4834     rsubar  0x34             	RSUBAR	(_tmp_val + 1)
00006b   e587     jbset   0x187, 0x2       	JBSET	PFLAG,2
00006c   a06f     goto    0x6f             	GOTO	_00426_DS_
00006d   5831     movar   0x31             	MOVAR	_adc_val
00006e   4833     rsubar  0x33             	RSUBAR	_tmp_val
                                           _00426_DS_
00006f   f187     jbclr   0x187, 0         	JBCLR	PFLAG,0
000070   a081     goto    0x81             	GOTO	_00406_DS_
                                           ;;genSkipc:3291: created from rifx:013B5EFC
                                           ;	.line	485; "MC32F7361.c"	tmp_val = adc_val;
000071   5831     movar   0x31             	MOVAR	_adc_val
000072   5633     movra   0x33             	MOVRA	_tmp_val
000073   5832     movar   0x32             	MOVAR	(_adc_val + 1)
000074   5634     movra   0x34             	MOVRA	(_tmp_val + 1)
                                           ;	.line	486; "MC32F7361.c"	send_data_msb(tmp_val);
000075   5833     movar   0x33             	MOVAR	_tmp_val
000076   562a     movra   0x2a             	MOVRA	r0x101B
000077   5834     movar   0x34             	MOVAR	(_tmp_val + 1)
000078   562b     movra   0x2b             	MOVRA	r0x101C
                                           ;;1	CLRR	r0x101D
                                           ;;1	CLRR	r0x101E
000079   582a     movar   0x2a             	MOVAR	r0x101B
00007a   5604     movra   0x4              	MOVRA	STK02
00007b   582b     movar   0x2b             	MOVAR	r0x101C
00007c   5605     movra   0x5              	MOVRA	STK01
00007d   3c00     movai   0                	MOVAI	0x00
00007e   5606     movra   0x6              	MOVRA	STK00
00007f   3c00     movai   0                	MOVAI	0x00
000080   826b     call    0x26b            	CALL	_send_data_msb
                                           _00406_DS_
                                           ;	.line	480; "MC32F7361.c"	for (i = 0; i < 100; i++)
000081   6638     incr    0x38             	INCR	_i
000082   a061     goto    0x61             	GOTO	_00405_DS_
                                           ;	.line	642; "MC32F7361.c"	}
000083   000c     return                   	RETURN	
                                           ; exit point of _main
                                           
                                           ;***
                                           ;  pBlock Stats: dbName = C
                                           ;***
                                           ;entry:  _low_power_scan_handle	;Function start
                                           ; 2 exit points
                                           ;has an exit
                                           ;functions called:
                                           ;   _Sys_Init
                                           ;   _delay_ms
                                           ;   _Sys_Init
                                           ;   _delay_ms
                                           ;1 compiler assigned register :
                                           ;   STK00
                                           ;; Starting pCode block
                                           _low_power_scan_handle	;Function start
                                           ; 2 exit points
                                           ;	.line	383; "MC32F7361.c"	if (CUR_STATUS_NONE == cur_dev_status)
000084   3c00     movai   0                	MOVAI	0x00
000085   5c35     orar    0x35             	ORAR	_cur_dev_status
000086   e587     jbset   0x187, 0x2       	JBSET	PFLAG,2
000087   a0ab     goto    0xab             	GOTO	_00390_DS_
                                           ;	.line	387; "MC32F7361.c"	GIE = 0; // 
000088   df88     bclr    0x188, 0x7       	BCLR	_MCRbits,7
                                           ;	.line	388; "MC32F7361.c"	LED_GREEN_OFF();
000089   d190     bclr    0x190, 0         	BCLR	_IOP0bits,0
                                           ;	.line	389; "MC32F7361.c"	LED_RED_OFF();
00008a   df94     bclr    0x194, 0x7       	BCLR	_IOP1bits,7
                                           ;	.line	390; "MC32F7361.c"	PWM_DISABEL();
00008b   dd98     bclr    0x198, 0x6       	BCLR	_T0CRbits,6
00008c   df98     bclr    0x198, 0x7       	BCLR	_T0CRbits,7
                                           ;	.line	392; "MC32F7361.c"	P00OE = 0;
00008d   d191     bclr    0x191, 0         	BCLR	_OEP0bits,0
                                           ;	.line	393; "MC32F7361.c"	P17OE = 0;
00008e   df95     bclr    0x195, 0x7       	BCLR	_OEP1bits,7
                                           ;	.line	395; "MC32F7361.c"	P16D = 0;
00008f   dd94     bclr    0x194, 0x6       	BCLR	_IOP1bits,6
                                           ;	.line	397; "MC32F7361.c"	T3EN = 0;
000090   dfa4     bclr    0x1a4, 0x7       	BCLR	_T3CRbits,7
                                           ;	.line	398; "MC32F7361.c"	T3IE = 0;
000091   df8a     bclr    0x18a, 0x7       	BCLR	_INTEbits,7
                                           ;	.line	402; "MC32F7361.c"	P11OE = 0; // 
000092   d395     bclr    0x195, 0x1       	BCLR	_OEP1bits,1
                                           ;	.line	403; "MC32F7361.c"	P11DC = 0; // 
000093   d3b7     bclr    0x1b7, 0x1       	BCLR	_P1ADCRbits,1
                                           ;	.line	409; "MC32F7361.c"	ADEN = 0;
000094   d1b0     bclr    0x1b0, 0         	BCLR	_ADCR0bits,0
                                           ;	.line	411; "MC32F7361.c"	P13KE = 1;
000095   c78e     bset    0x18e, 0x3       	BSET	_P1KBCRbits,3
                                           ;	.line	414; "MC32F7361.c"	P03KE = 1;
000096   c78d     bset    0x18d, 0x3       	BSET	_P0KBCRbits,3
                                           ;	.line	418; "MC32F7361.c"	KBIF = 0;
000097   d98b     bclr    0x18b, 0x4       	BCLR	_INTFbits,4
                                           ;	.line	419; "MC32F7361.c"	KBIE = 1;
000098   c98a     bset    0x18a, 0x4       	BSET	_INTEbits,4
                                           ;	.line	420; "MC32F7361.c"	HFEN = 0; // 
000099   d1ae     bclr    0x1ae, 0         	BCLR	_OSCMRbits,0
                                           ;	.line	421; "MC32F7361.c"	LFEN = 1;
00009a   c3ae     bset    0x1ae, 0x1       	BSET	_OSCMRbits,1
                                           ;	.line	423; "MC32F7361.c"	Nop();
00009b   0000     nop                      	nop	
                                           ;	.line	424; "MC32F7361.c"	Nop();
00009c   0000     nop                      	nop	
                                           ;	.line	425; "MC32F7361.c"	Stop();
00009d   000b     stop                     	stop	
                                           ;	.line	426; "MC32F7361.c"	Nop();
00009e   0000     nop                      	nop	
                                           ;	.line	427; "MC32F7361.c"	Nop();
00009f   0000     nop                      	nop	
                                           ;	.line	428; "MC32F7361.c"	HFEN = 1; // 
0000a0   c1ae     bset    0x1ae, 0         	BSET	_OSCMRbits,0
                                           ;	.line	430; "MC32F7361.c"	P03KE = 0;
0000a1   d78d     bclr    0x18d, 0x3       	BCLR	_P0KBCRbits,3
                                           ;	.line	434; "MC32F7361.c"	P13KE = 0; // 
0000a2   d78e     bclr    0x18e, 0x3       	BCLR	_P1KBCRbits,3
                                           ;	.line	435; "MC32F7361.c"	KBIE = 0;
0000a3   d98a     bclr    0x18a, 0x4       	BCLR	_INTEbits,4
                                           ;	.line	436; "MC32F7361.c"	KBIF = 0;
0000a4   d98b     bclr    0x18b, 0x4       	BCLR	_INTFbits,4
                                           ;	.line	455; "MC32F7361.c"	Sys_Init();
0000a5   8135     call    0x135            	CALL	_Sys_Init
                                           ;	.line	456; "MC32F7361.c"	delay_ms(1);
0000a6   3c01     movai   0x1              	MOVAI	0x01
0000a7   5606     movra   0x6              	MOVRA	STK00
0000a8   3c00     movai   0                	MOVAI	0x00
0000a9   82bc     call    0x2bc            	CALL	_delay_ms
                                           ;	.line	457; "MC32F7361.c"	GIE = 1;
0000aa   cf88     bset    0x188, 0x7       	BSET	_MCRbits,7
                                           _00390_DS_
                                           ;	.line	459; "MC32F7361.c"	}
0000ab   000c     return                   	RETURN	
                                           ; exit point of _low_power_scan_handle
                                           
                                           ;***
                                           ;  pBlock Stats: dbName = C
                                           ;***
                                           ;entry:  _stop_charging_the_host	;Function start
                                           ; 2 exit points
                                           ;has an exit
                                           ;; Starting pCode block
                                           _stop_charging_the_host	;Function start
                                           ; 2 exit points
                                           ;	.line	377; "MC32F7361.c"	LED_GREEN_OFF();
0000ac   d190     bclr    0x190, 0         	BCLR	_IOP0bits,0
                                           ;	.line	378; "MC32F7361.c"	PWM_DISABEL(); // pwm
0000ad   dd98     bclr    0x198, 0x6       	BCLR	_T0CRbits,6
0000ae   df98     bclr    0x198, 0x7       	BCLR	_T0CRbits,7
                                           ;	.line	379; "MC32F7361.c"	}
0000af   000c     return                   	RETURN	
                                           ; exit point of _stop_charging_the_host
                                           
                                           ;***
                                           ;  pBlock Stats: dbName = C
                                           ;***
                                           ;entry:  _is_detect_load	;Function start
                                           ; 2 exit points
                                           ;has an exit
                                           ;functions called:
                                           ;   _adc_sel_channel
                                           ;   _adc_get_max_val
                                           ;   _adc_sel_channel
                                           ;   _adc_get_max_val
                                           ;3 compiler assigned registers:
                                           ;   r0x101F
                                           ;   r0x1020
                                           ;   STK00
                                           ;; Starting pCode block
                                           _is_detect_load	;Function start
                                           ; 2 exit points
                                           ;	.line	351; "MC32F7361.c"	u16 max_adc_val = 0;
0000b0   7628     clrr    0x28             	CLRR	r0x101F
0000b1   7629     clrr    0x29             	CLRR	r0x1020
                                           ;	.line	352; "MC32F7361.c"	adc_sel_channel(ADC_CHANNEL_LOAD);
0000b2   3c02     movai   0x2              	MOVAI	0x02
0000b3   820e     call    0x20e            	CALL	_adc_sel_channel
                                           ;	.line	353; "MC32F7361.c"	for (i = 0; i < 100; i++)
0000b4   7638     clrr    0x38             	CLRR	_i
                                           ;;unsigned compare: left < lit(0x64=100), size=1
                                           _00347_DS_
0000b5   3c64     movai   0x64             	MOVAI	0x64
0000b6   4838     rsubar  0x38             	RSUBAR	_i
0000b7   f187     jbclr   0x187, 0         	JBCLR	PFLAG,0
0000b8   a0cb     goto    0xcb             	GOTO	_00342_DS_
                                           ;;genSkipc:3291: created from rifx:013B5EFC
                                           ;	.line	355; "MC32F7361.c"	adc_val = adc_get_max_val();
0000b9   813f     call    0x13f            	CALL	_adc_get_max_val
0000ba   5632     movra   0x32             	MOVRA	(_adc_val + 1)
0000bb   5806     movar   0x6              	MOVAR	STK00
0000bc   5631     movra   0x31             	MOVRA	_adc_val
                                           ;	.line	356; "MC32F7361.c"	if (adc_val > max_adc_val)
0000bd   5832     movar   0x32             	MOVAR	(_adc_val + 1)
0000be   4829     rsubar  0x29             	RSUBAR	r0x1020
0000bf   e587     jbset   0x187, 0x2       	JBSET	PFLAG,2
0000c0   a0c3     goto    0xc3             	GOTO	_00368_DS_
0000c1   5831     movar   0x31             	MOVAR	_adc_val
0000c2   4828     rsubar  0x28             	RSUBAR	r0x101F
                                           _00368_DS_
0000c3   f187     jbclr   0x187, 0         	JBCLR	PFLAG,0
0000c4   a0c9     goto    0xc9             	GOTO	_00348_DS_
                                           ;;genSkipc:3291: created from rifx:013B5EFC
                                           ;	.line	358; "MC32F7361.c"	max_adc_val = adc_val;
0000c5   5831     movar   0x31             	MOVAR	_adc_val
0000c6   5628     movra   0x28             	MOVRA	r0x101F
0000c7   5832     movar   0x32             	MOVAR	(_adc_val + 1)
0000c8   5629     movra   0x29             	MOVRA	r0x1020
                                           _00348_DS_
                                           ;	.line	353; "MC32F7361.c"	for (i = 0; i < 100; i++)
0000c9   6638     incr    0x38             	INCR	_i
0000ca   a0b5     goto    0xb5             	GOTO	_00347_DS_
                                           ;;swapping arguments (AOP_TYPEs 1/2)
                                           ;;unsigned compare: left >= lit(0x9A7=2471), size=2
                                           _00342_DS_
                                           ;	.line	362; "MC32F7361.c"	if (max_adc_val > ADC_VAL_LOAD_THRESHOLD)
0000cb   3c09     movai   0x9              	MOVAI	0x09
0000cc   4829     rsubar  0x29             	RSUBAR	r0x1020
0000cd   e587     jbset   0x187, 0x2       	JBSET	PFLAG,2
0000ce   a0d1     goto    0xd1             	GOTO	_00369_DS_
0000cf   3ca7     movai   0xa7             	MOVAI	0xa7
0000d0   4828     rsubar  0x28             	RSUBAR	r0x101F
                                           _00369_DS_
0000d1   e187     jbset   0x187, 0         	JBSET	PFLAG,0
0000d2   a0d5     goto    0xd5             	GOTO	_00344_DS_
                                           ;;genSkipc:3291: created from rifx:013B5EFC
                                           ;	.line	365; "MC32F7361.c"	return 0;
0000d3   3c00     movai   0                	MOVAI	0x00
0000d4   a0d6     goto    0xd6             	GOTO	_00349_DS_
                                           _00344_DS_
                                           ;	.line	370; "MC32F7361.c"	return 1;
0000d5   3c01     movai   0x1              	MOVAI	0x01
                                           _00349_DS_
                                           ;	.line	372; "MC32F7361.c"	}
0000d6   000c     return                   	RETURN	
                                           ; exit point of _is_detect_load
                                           
                                           ;***
                                           ;  pBlock Stats: dbName = C
                                           ;***
                                           ;entry:  _is_open_lid	;Function start
                                           ; 2 exit points
                                           ;has an exit
                                           ;functions called:
                                           ;   _delay_ms
                                           ;   _delay_ms
                                           ;   _delay_ms
                                           ;   _delay_ms
                                           ;2 compiler assigned registers:
                                           ;   r0x1021
                                           ;   STK00
                                           ;; Starting pCode block
                                           _is_open_lid	;Function start
                                           ; 2 exit points
                                           ;	.line	305; "MC32F7361.c"	u8 ret = 0;
0000d7   7627     clrr    0x27             	CLRR	r0x1021
                                           ;	.line	307; "MC32F7361.c"	if (P13D) // 
0000d8   e794     jbset   0x194, 0x3       	JBSET	_IOP1bits,3
0000d9   a0f0     goto    0xf0             	GOTO	_00329_DS_
                                           ;	.line	309; "MC32F7361.c"	cnt = 0;
0000da   7639     clrr    0x39             	CLRR	_cnt
                                           ;	.line	310; "MC32F7361.c"	for (i = 0; i < 200; i++)
0000db   7638     clrr    0x38             	CLRR	_i
                                           ;;unsigned compare: left < lit(0xC8=200), size=1
                                           _00332_DS_
0000dc   3cc8     movai   0xc8             	MOVAI	0xc8
0000dd   4838     rsubar  0x38             	RSUBAR	_i
0000de   f187     jbclr   0x187, 0         	JBCLR	PFLAG,0
0000df   a0e9     goto    0xe9             	GOTO	_00320_DS_
                                           ;;genSkipc:3291: created from rifx:013B5EFC
                                           ;	.line	312; "MC32F7361.c"	if (P13D)
0000e0   e794     jbset   0x194, 0x3       	JBSET	_IOP1bits,3
0000e1   a0e3     goto    0xe3             	GOTO	_00319_DS_
                                           ;	.line	314; "MC32F7361.c"	cnt++;
0000e2   6639     incr    0x39             	INCR	_cnt
                                           _00319_DS_
                                           ;	.line	317; "MC32F7361.c"	delay_ms(1);
0000e3   3c01     movai   0x1              	MOVAI	0x01
0000e4   5606     movra   0x6              	MOVRA	STK00
0000e5   3c00     movai   0                	MOVAI	0x00
0000e6   82bc     call    0x2bc            	CALL	_delay_ms
                                           ;	.line	310; "MC32F7361.c"	for (i = 0; i < 200; i++)
0000e7   6638     incr    0x38             	INCR	_i
0000e8   a0dc     goto    0xdc             	GOTO	_00332_DS_
                                           ;;unsigned compare: left < lit(0xC8=200), size=1
                                           _00320_DS_
                                           ;	.line	320; "MC32F7361.c"	if (cnt >= 200)
0000e9   3cc8     movai   0xc8             	MOVAI	0xc8
0000ea   4839     rsubar  0x39             	RSUBAR	_cnt
0000eb   e187     jbset   0x187, 0         	JBSET	PFLAG,0
0000ec   a104     goto    0x104            	GOTO	_00330_DS_
                                           ;;genSkipc:3291: created from rifx:013B5EFC
                                           ;	.line	322; "MC32F7361.c"	ret = 1;
0000ed   3c01     movai   0x1              	MOVAI	0x01
0000ee   5627     movra   0x27             	MOVRA	r0x1021
0000ef   a104     goto    0x104            	GOTO	_00330_DS_
                                           _00329_DS_
                                           ;	.line	327; "MC32F7361.c"	cnt = 0;
0000f0   7639     clrr    0x39             	CLRR	_cnt
                                           ;	.line	328; "MC32F7361.c"	for (i = 0; i < 200; i++)
0000f1   7638     clrr    0x38             	CLRR	_i
                                           ;;unsigned compare: left < lit(0xC8=200), size=1
                                           _00335_DS_
0000f2   3cc8     movai   0xc8             	MOVAI	0xc8
0000f3   4838     rsubar  0x38             	RSUBAR	_i
0000f4   f187     jbclr   0x187, 0         	JBCLR	PFLAG,0
0000f5   a0ff     goto    0xff             	GOTO	_00325_DS_
                                           ;;genSkipc:3291: created from rifx:013B5EFC
                                           ;	.line	330; "MC32F7361.c"	if (0 == P13D)
0000f6   f794     jbclr   0x194, 0x3       	JBCLR	_IOP1bits,3
0000f7   a0f9     goto    0xf9             	GOTO	_00324_DS_
                                           ;	.line	332; "MC32F7361.c"	cnt++;
0000f8   6639     incr    0x39             	INCR	_cnt
                                           _00324_DS_
                                           ;	.line	335; "MC32F7361.c"	delay_ms(1);
0000f9   3c01     movai   0x1              	MOVAI	0x01
0000fa   5606     movra   0x6              	MOVRA	STK00
0000fb   3c00     movai   0                	MOVAI	0x00
0000fc   82bc     call    0x2bc            	CALL	_delay_ms
                                           ;	.line	328; "MC32F7361.c"	for (i = 0; i < 200; i++)
0000fd   6638     incr    0x38             	INCR	_i
0000fe   a0f2     goto    0xf2             	GOTO	_00335_DS_
                                           ;;unsigned compare: left < lit(0xC8=200), size=1
                                           _00325_DS_
                                           ;	.line	338; "MC32F7361.c"	if (cnt >= 200)
0000ff   3cc8     movai   0xc8             	MOVAI	0xc8
000100   4839     rsubar  0x39             	RSUBAR	_cnt
000101   e187     jbset   0x187, 0         	JBSET	PFLAG,0
000102   a104     goto    0x104            	GOTO	_00330_DS_
                                           ;;genSkipc:3291: created from rifx:013B5EFC
                                           ;	.line	340; "MC32F7361.c"	ret = 0;
000103   7627     clrr    0x27             	CLRR	r0x1021
                                           _00330_DS_
                                           ;	.line	344; "MC32F7361.c"	return ret;
000104   5827     movar   0x27             	MOVAR	r0x1021
                                           ;	.line	345; "MC32F7361.c"	}
000105   000c     return                   	RETURN	
                                           ; exit point of _is_open_lid
                                           
                                           ;***
                                           ;  pBlock Stats: dbName = C
                                           ;***
                                           ;entry:  _is_in_charging	;Function start
                                           ; 2 exit points
                                           ;has an exit
                                           ;functions called:
                                           ;   _delay_ms
                                           ;   _delay_ms
                                           ;   _delay_ms
                                           ;   _delay_ms
                                           ;2 compiler assigned registers:
                                           ;   r0x1022
                                           ;   STK00
                                           ;; Starting pCode block
                                           _is_in_charging	;Function start
                                           ; 2 exit points
                                           ;	.line	254; "MC32F7361.c"	u8 ret = 0;
000106   7626     clrr    0x26             	CLRR	r0x1022
                                           ;	.line	261; "MC32F7361.c"	if (CHARGE_PIN)
000107   e790     jbset   0x190, 0x3       	JBSET	_IOP0bits,3
000108   a11f     goto    0x11f            	GOTO	_00307_DS_
                                           ;	.line	263; "MC32F7361.c"	cnt = 0;
000109   7639     clrr    0x39             	CLRR	_cnt
                                           ;	.line	264; "MC32F7361.c"	for (i = 0; i < 200; i++)
00010a   7638     clrr    0x38             	CLRR	_i
                                           ;;unsigned compare: left < lit(0xC8=200), size=1
                                           _00310_DS_
00010b   3cc8     movai   0xc8             	MOVAI	0xc8
00010c   4838     rsubar  0x38             	RSUBAR	_i
00010d   f187     jbclr   0x187, 0         	JBCLR	PFLAG,0
00010e   a118     goto    0x118            	GOTO	_00298_DS_
                                           ;;genSkipc:3291: created from rifx:013B5EFC
                                           ;	.line	266; "MC32F7361.c"	if (CHARGE_PIN)
00010f   e790     jbset   0x190, 0x3       	JBSET	_IOP0bits,3
000110   a112     goto    0x112            	GOTO	_00297_DS_
                                           ;	.line	268; "MC32F7361.c"	cnt++;
000111   6639     incr    0x39             	INCR	_cnt
                                           _00297_DS_
                                           ;	.line	271; "MC32F7361.c"	delay_ms(1);
000112   3c01     movai   0x1              	MOVAI	0x01
000113   5606     movra   0x6              	MOVRA	STK00
000114   3c00     movai   0                	MOVAI	0x00
000115   82bc     call    0x2bc            	CALL	_delay_ms
                                           ;	.line	264; "MC32F7361.c"	for (i = 0; i < 200; i++)
000116   6638     incr    0x38             	INCR	_i
000117   a10b     goto    0x10b            	GOTO	_00310_DS_
                                           ;;unsigned compare: left < lit(0xB4=180), size=1
                                           _00298_DS_
                                           ;	.line	274; "MC32F7361.c"	if (cnt >= 180)
000118   3cb4     movai   0xb4             	MOVAI	0xb4
000119   4839     rsubar  0x39             	RSUBAR	_cnt
00011a   e187     jbset   0x187, 0         	JBSET	PFLAG,0
00011b   a133     goto    0x133            	GOTO	_00308_DS_
                                           ;;genSkipc:3291: created from rifx:013B5EFC
                                           ;	.line	277; "MC32F7361.c"	ret = 1;
00011c   3c01     movai   0x1              	MOVAI	0x01
00011d   5626     movra   0x26             	MOVRA	r0x1022
00011e   a133     goto    0x133            	GOTO	_00308_DS_
                                           _00307_DS_
                                           ;	.line	282; "MC32F7361.c"	cnt = 0;
00011f   7639     clrr    0x39             	CLRR	_cnt
                                           ;	.line	283; "MC32F7361.c"	for (i = 0; i < 200; i++)
000120   7638     clrr    0x38             	CLRR	_i
                                           ;;unsigned compare: left < lit(0xC8=200), size=1
                                           _00313_DS_
000121   3cc8     movai   0xc8             	MOVAI	0xc8
000122   4838     rsubar  0x38             	RSUBAR	_i
000123   f187     jbclr   0x187, 0         	JBCLR	PFLAG,0
000124   a12e     goto    0x12e            	GOTO	_00303_DS_
                                           ;;genSkipc:3291: created from rifx:013B5EFC
                                           ;	.line	285; "MC32F7361.c"	if (0 == CHARGE_PIN)
000125   f790     jbclr   0x190, 0x3       	JBCLR	_IOP0bits,3
000126   a128     goto    0x128            	GOTO	_00302_DS_
                                           ;	.line	287; "MC32F7361.c"	cnt++;
000127   6639     incr    0x39             	INCR	_cnt
                                           _00302_DS_
                                           ;	.line	290; "MC32F7361.c"	delay_ms(1);
000128   3c01     movai   0x1              	MOVAI	0x01
000129   5606     movra   0x6              	MOVRA	STK00
00012a   3c00     movai   0                	MOVAI	0x00
00012b   82bc     call    0x2bc            	CALL	_delay_ms
                                           ;	.line	283; "MC32F7361.c"	for (i = 0; i < 200; i++)
00012c   6638     incr    0x38             	INCR	_i
00012d   a121     goto    0x121            	GOTO	_00313_DS_
                                           ;;unsigned compare: left < lit(0xB4=180), size=1
                                           _00303_DS_
                                           ;	.line	293; "MC32F7361.c"	if (cnt >= 180)
00012e   3cb4     movai   0xb4             	MOVAI	0xb4
00012f   4839     rsubar  0x39             	RSUBAR	_cnt
000130   e187     jbset   0x187, 0         	JBSET	PFLAG,0
000131   a133     goto    0x133            	GOTO	_00308_DS_
                                           ;;genSkipc:3291: created from rifx:013B5EFC
                                           ;	.line	296; "MC32F7361.c"	ret = 0;
000132   7626     clrr    0x26             	CLRR	r0x1022
                                           _00308_DS_
                                           ;	.line	300; "MC32F7361.c"	return ret;
000133   5826     movar   0x26             	MOVAR	r0x1022
                                           ;	.line	301; "MC32F7361.c"	}
000134   000c     return                   	RETURN	
                                           ; exit point of _is_in_charging
                                           
                                           ;***
                                           ;  pBlock Stats: dbName = C
                                           ;***
                                           ;entry:  _Sys_Init	;Function start
                                           ; 2 exit points
                                           ;has an exit
                                           ;functions called:
                                           ;   _CLR_RAM
                                           ;   _IO_Init
                                           ;   _timer0_pwm_config
                                           ;   _timer3_config
                                           ;   _adc_config
                                           ;   _CLR_RAM
                                           ;   _IO_Init
                                           ;   _timer0_pwm_config
                                           ;   _timer3_config
                                           ;   _adc_config
                                           ;; Starting pCode block
                                           _Sys_Init	;Function start
                                           ; 2 exit points
                                           ;	.line	225; "MC32F7361.c"	GIE = 0;
000135   df88     bclr    0x188, 0x7       	BCLR	_MCRbits,7
                                           ;	.line	226; "MC32F7361.c"	CLR_RAM();
000136   825f     call    0x25f            	CALL	_CLR_RAM
                                           ;	.line	227; "MC32F7361.c"	IO_Init();
000137   824a     call    0x24a            	CALL	_IO_Init
                                           ;	.line	229; "MC32F7361.c"	timer0_pwm_config();
000138   8235     call    0x235            	CALL	_timer0_pwm_config
                                           ;	.line	230; "MC32F7361.c"	timer3_config();
000139   822f     call    0x22f            	CALL	_timer3_config
                                           ;	.line	231; "MC32F7361.c"	adc_config();
00013a   8241     call    0x241            	CALL	_adc_config
                                           ;	.line	236; "MC32F7361.c"	P03OE = 0; // 
00013b   d791     bclr    0x191, 0x3       	BCLR	_OEP0bits,3
                                           ;	.line	245; "MC32F7361.c"	P13OE = 0; // 
00013c   d795     bclr    0x195, 0x3       	BCLR	_OEP1bits,3
                                           ;	.line	248; "MC32F7361.c"	GIE = 1;
00013d   cf88     bset    0x188, 0x7       	BSET	_MCRbits,7
                                           ;	.line	249; "MC32F7361.c"	}
00013e   000c     return                   	RETURN	
                                           ; exit point of _Sys_Init
                                           
                                           ;***
                                           ;  pBlock Stats: dbName = C
                                           ;***
                                           ;entry:  _adc_get_max_val	;Function start
                                           ; 2 exit points
                                           ;has an exit
                                           ;10 compiler assigned registers:
                                           ;   r0x100B
                                           ;   r0x100C
                                           ;   r0x100D
                                           ;   r0x100E
                                           ;   r0x100F
                                           ;   r0x1010
                                           ;   r0x1011
                                           ;   r0x1012
                                           ;   r0x1013
                                           ;   STK00
                                           ;; Starting pCode block
                                           _adc_get_max_val	;Function start
                                           ; 2 exit points
                                           ;	.line	187; "MC32F7361.c"	u16 g_adcmax = 0;
00013f   7608     clrr    0x8              	CLRR	r0x100B
000140   7607     clrr    0x7              	CLRR	r0x100C
                                           ;	.line	190; "MC32F7361.c"	for (i = 0; i < 40; i++)
000141   7609     clrr    0x9              	CLRR	r0x100D
                                           _00257_DS_
                                           ;	.line	192; "MC32F7361.c"	ADEOC = 0; // ADCAD
000142   d3b0     bclr    0x1b0, 0x1       	BCLR	_ADCR0bits,1
                                           _00251_DS_
                                           ;	.line	193; "MC32F7361.c"	while (!ADEOC)
000143   e3b0     jbset   0x1b0, 0x1       	JBSET	_ADCR0bits,1
000144   a143     goto    0x143            	GOTO	_00251_DS_
                                           ;	.line	195; "MC32F7361.c"	g_temp_value = ADRH; // 
000145   59b4     movar   0x1b4            	MOVAR	_ADRH
000146   560a     movra   0xa              	MOVRA	r0x100E
000147   760b     clrr    0xb              	CLRR	r0x100F
                                           ;	.line	196; "MC32F7361.c"	g_temp_value = g_temp_value << 4 | (ADRL & 0x0F);
000148   440b     swapar  0xb              	SWAPAR	r0x100F
000149   3ef0     andai   0xf0             	ANDAI	0xf0
00014a   560c     movra   0xc              	MOVRA	r0x1010
00014b   440a     swapar  0xa              	SWAPAR	r0x100E
00014c   5610     movra   0x10             	MOVRA	r0x1011
00014d   3e0f     andai   0xf              	ANDAI	0x0f
00014e   5e0c     orra    0xc              	ORRA	r0x1010
00014f   4210     xorra   0x10             	XORRA	r0x1011
000150   59b5     movar   0x1b5            	MOVAR	_ADRL
000151   560a     movra   0xa              	MOVRA	r0x100E
000152   760b     clrr    0xb              	CLRR	r0x100F
000153   3c0f     movai   0xf              	MOVAI	0x0f
000154   7a0a     andra   0xa              	ANDRA	r0x100E
000155   760b     clrr    0xb              	CLRR	r0x100F
                                           ;;101	MOVAR	r0x100E
                                           ;;99	MOVRA	r0x1012
                                           ;;104	MOVAR	r0x100F
                                           ;;102	MOVRA	r0x1013
                                           ;;100	MOVAR	r0x1012
000156   580a     movar   0xa              	MOVAR	r0x100E
000157   5c10     orar    0x10             	ORAR	r0x1011
000158   560a     movra   0xa              	MOVRA	r0x100E
                                           ;;103	MOVAR	r0x1013
000159   3c00     movai   0                	MOVAI	0x00
00015a   5c0c     orar    0xc              	ORAR	r0x1010
00015b   560b     movra   0xb              	MOVRA	r0x100F
                                           ;	.line	198; "MC32F7361.c"	if (g_temp_value > g_adcmax)
00015c   580b     movar   0xb              	MOVAR	r0x100F
00015d   4807     rsubar  0x7              	RSUBAR	r0x100C
00015e   e587     jbset   0x187, 0x2       	JBSET	PFLAG,2
00015f   a162     goto    0x162            	GOTO	_00287_DS_
000160   580a     movar   0xa              	MOVAR	r0x100E
000161   4808     rsubar  0x8              	RSUBAR	r0x100B
                                           _00287_DS_
000162   f187     jbclr   0x187, 0         	JBCLR	PFLAG,0
000163   a168     goto    0x168            	GOTO	_00258_DS_
                                           ;;genSkipc:3291: created from rifx:013B5EFC
                                           ;	.line	199; "MC32F7361.c"	g_adcmax = g_temp_value; // 
000164   580a     movar   0xa              	MOVAR	r0x100E
000165   5608     movra   0x8              	MOVRA	r0x100B
000166   580b     movar   0xb              	MOVAR	r0x100F
000167   5607     movra   0x7              	MOVRA	r0x100C
                                           _00258_DS_
                                           ;	.line	190; "MC32F7361.c"	for (i = 0; i < 40; i++)
000168   6609     incr    0x9              	INCR	r0x100D
                                           ;;unsigned compare: left < lit(0x28=40), size=1
000169   3c28     movai   0x28             	MOVAI	0x28
00016a   4809     rsubar  0x9              	RSUBAR	r0x100D
00016b   e187     jbset   0x187, 0         	JBSET	PFLAG,0
00016c   a142     goto    0x142            	GOTO	_00257_DS_
                                           ;;genSkipc:3291: created from rifx:013B5EFC
                                           ;	.line	202; "MC32F7361.c"	return g_adcmax;
00016d   5808     movar   0x8              	MOVAR	r0x100B
00016e   5606     movra   0x6              	MOVRA	STK00
00016f   5807     movar   0x7              	MOVAR	r0x100C
                                           ;	.line	203; "MC32F7361.c"	}
000170   000c     return                   	RETURN	
                                           ; exit point of _adc_get_max_val
                                           
                                           ;***
                                           ;  pBlock Stats: dbName = C
                                           ;***
                                           ;entry:  _adc_get_val	;Function start
                                           ; 2 exit points
                                           ;has an exit
                                           ;16 compiler assigned registers:
                                           ;   r0x1023
                                           ;   r0x1024
                                           ;   r0x1025
                                           ;   r0x1026
                                           ;   r0x1027
                                           ;   r0x1028
                                           ;   r0x1029
                                           ;   r0x102A
                                           ;   r0x102B
                                           ;   r0x102C
                                           ;   r0x102D
                                           ;   r0x102E
                                           ;   r0x102F
                                           ;   r0x1030
                                           ;   r0x1031
                                           ;   STK00
                                           ;; Starting pCode block
                                           _adc_get_val	;Function start
                                           ; 2 exit points
                                           ;	.line	155; "MC32F7361.c"	u32 g_tmpbuff = 0;
000171   7617     clrr    0x17             	CLRR	r0x1023
000172   7618     clrr    0x18             	CLRR	r0x1024
000173   7619     clrr    0x19             	CLRR	r0x1025
000174   761a     clrr    0x1a             	CLRR	r0x1026
                                           ;	.line	156; "MC32F7361.c"	u16 g_adcmax = 0;
000175   761b     clrr    0x1b             	CLRR	r0x1027
000176   761c     clrr    0x1c             	CLRR	r0x1028
                                           ;	.line	157; "MC32F7361.c"	u16 g_adcmin = 0xFFFF;
000177   3cff     movai   0xff             	MOVAI	0xff
000178   561d     movra   0x1d             	MOVRA	r0x1029
000179   561e     movra   0x1e             	MOVRA	r0x102A
                                           ;	.line	160; "MC32F7361.c"	for (i = 0; i < 20; i++)
00017a   761f     clrr    0x1f             	CLRR	r0x102B
                                           _00205_DS_
                                           ;	.line	162; "MC32F7361.c"	ADEOC = 0; // ADCAD
00017b   d3b0     bclr    0x1b0, 0x1       	BCLR	_ADCR0bits,1
                                           _00194_DS_
                                           ;	.line	163; "MC32F7361.c"	while (!ADEOC)
00017c   e3b0     jbset   0x1b0, 0x1       	JBSET	_ADCR0bits,1
00017d   a17c     goto    0x17c            	GOTO	_00194_DS_
                                           ;	.line	165; "MC32F7361.c"	g_temp_value = ADRH; // 
00017e   59b4     movar   0x1b4            	MOVAR	_ADRH
00017f   5620     movra   0x20             	MOVRA	r0x102C
000180   7621     clrr    0x21             	CLRR	r0x102D
                                           ;	.line	166; "MC32F7361.c"	g_temp_value = g_temp_value << 4 | (ADRL & 0x0F);
000181   4421     swapar  0x21             	SWAPAR	r0x102D
000182   3ef0     andai   0xf0             	ANDAI	0xf0
000183   5623     movra   0x23             	MOVRA	r0x102E
000184   4420     swapar  0x20             	SWAPAR	r0x102C
000185   5622     movra   0x22             	MOVRA	r0x102F
000186   3e0f     andai   0xf              	ANDAI	0x0f
000187   5e23     orra    0x23             	ORRA	r0x102E
000188   4222     xorra   0x22             	XORRA	r0x102F
000189   59b5     movar   0x1b5            	MOVAR	_ADRL
00018a   5620     movra   0x20             	MOVRA	r0x102C
00018b   7621     clrr    0x21             	CLRR	r0x102D
00018c   3c0f     movai   0xf              	MOVAI	0x0f
00018d   7a20     andra   0x20             	ANDRA	r0x102C
00018e   7621     clrr    0x21             	CLRR	r0x102D
                                           ;;120	MOVAR	r0x102C
00018f   3c00     movai   0                	MOVAI	0x00
000190   5625     movra   0x25             	MOVRA	r0x1031
                                           ;;119	MOVAR	r0x1030
000191   5820     movar   0x20             	MOVAR	r0x102C
000192   5624     movra   0x24             	MOVRA	r0x1030
000193   5c22     orar    0x22             	ORAR	r0x102F
000194   5620     movra   0x20             	MOVRA	r0x102C
000195   5825     movar   0x25             	MOVAR	r0x1031
000196   5c23     orar    0x23             	ORAR	r0x102E
000197   5621     movra   0x21             	MOVRA	r0x102D
                                           ;;unsigned compare: left < lit(0x2=2), size=1
                                           ;	.line	167; "MC32F7361.c"	if (i < 2)
000198   3c02     movai   0x2              	MOVAI	0x02
000199   481f     rsubar  0x1f             	RSUBAR	r0x102B
00019a   e187     jbset   0x187, 0         	JBSET	PFLAG,0
00019b   a1c6     goto    0x1c6            	GOTO	_00203_DS_
                                           ;;genSkipc:3291: created from rifx:013B5EFC
                                           ;	.line	169; "MC32F7361.c"	if (g_temp_value > g_adcmax)
00019c   5821     movar   0x21             	MOVAR	r0x102D
00019d   481c     rsubar  0x1c             	RSUBAR	r0x1028
00019e   e587     jbset   0x187, 0x2       	JBSET	PFLAG,2
00019f   a1a2     goto    0x1a2            	GOTO	_00245_DS_
0001a0   5820     movar   0x20             	MOVAR	r0x102C
0001a1   481b     rsubar  0x1b             	RSUBAR	r0x1027
                                           _00245_DS_
0001a2   f187     jbclr   0x187, 0         	JBCLR	PFLAG,0
0001a3   a1a8     goto    0x1a8            	GOTO	_00200_DS_
                                           ;;genSkipc:3291: created from rifx:013B5EFC
                                           ;	.line	170; "MC32F7361.c"	g_adcmax = g_temp_value; // 
0001a4   5820     movar   0x20             	MOVAR	r0x102C
0001a5   561b     movra   0x1b             	MOVRA	r0x1027
0001a6   5821     movar   0x21             	MOVAR	r0x102D
0001a7   561c     movra   0x1c             	MOVRA	r0x1028
                                           _00200_DS_
                                           ;	.line	171; "MC32F7361.c"	if (g_temp_value < g_adcmin)
0001a8   581e     movar   0x1e             	MOVAR	r0x102A
0001a9   4821     rsubar  0x21             	RSUBAR	r0x102D
0001aa   e587     jbset   0x187, 0x2       	JBSET	PFLAG,2
0001ab   a1ae     goto    0x1ae            	GOTO	_00246_DS_
0001ac   581d     movar   0x1d             	MOVAR	r0x1029
0001ad   4820     rsubar  0x20             	RSUBAR	r0x102C
                                           _00246_DS_
0001ae   f187     jbclr   0x187, 0         	JBCLR	PFLAG,0
0001af   a1b4     goto    0x1b4            	GOTO	_00202_DS_
                                           ;;genSkipc:3291: created from rifx:013B5EFC
                                           ;	.line	172; "MC32F7361.c"	g_adcmin = g_temp_value; // 
0001b0   5820     movar   0x20             	MOVAR	r0x102C
0001b1   561d     movra   0x1d             	MOVRA	r0x1029
0001b2   5821     movar   0x21             	MOVAR	r0x102D
0001b3   561e     movra   0x1e             	MOVRA	r0x102A
                                           ;;116	MOVAR	r0x102C
                                           ;;118	MOVAR	r0x102D
                                           _00202_DS_
                                           ;	.line	173; "MC32F7361.c"	g_tmpbuff += g_temp_value;
0001b4   7624     clrr    0x24             	CLRR	r0x1030
0001b5   7625     clrr    0x25             	CLRR	r0x1031
                                           ;;115	MOVAR	r0x102F
0001b6   5820     movar   0x20             	MOVAR	r0x102C
0001b7   5622     movra   0x22             	MOVRA	r0x102F
0001b8   7e17     addra   0x17             	ADDRA	r0x1023
                                           ;;117	MOVAR	r0x102E
0001b9   5821     movar   0x21             	MOVAR	r0x102D
0001ba   5623     movra   0x23             	MOVRA	r0x102E
0001bb   f187     jbclr   0x187, 0         	JBCLR	PFLAG,0
0001bc   6023     jzar    0x23             	JZAR	r0x102E
0001bd   7e18     addra   0x18             	ADDRA	r0x1024
0001be   5824     movar   0x24             	MOVAR	r0x1030
0001bf   f187     jbclr   0x187, 0         	JBCLR	PFLAG,0
0001c0   6024     jzar    0x24             	JZAR	r0x1030
0001c1   7e19     addra   0x19             	ADDRA	r0x1025
0001c2   5825     movar   0x25             	MOVAR	r0x1031
0001c3   f187     jbclr   0x187, 0         	JBCLR	PFLAG,0
0001c4   6025     jzar    0x25             	JZAR	r0x1031
0001c5   7e1a     addra   0x1a             	ADDRA	r0x1026
                                           _00203_DS_
                                           ;	.line	160; "MC32F7361.c"	for (i = 0; i < 20; i++)
0001c6   661f     incr    0x1f             	INCR	r0x102B
                                           ;;unsigned compare: left < lit(0x14=20), size=1
0001c7   3c14     movai   0x14             	MOVAI	0x14
0001c8   481f     rsubar  0x1f             	RSUBAR	r0x102B
0001c9   e187     jbset   0x187, 0         	JBSET	PFLAG,0
0001ca   a17b     goto    0x17b            	GOTO	_00205_DS_
                                           ;;genSkipc:3291: created from rifx:013B5EFC
                                           ;;114	MOVAR	r0x1027
                                           ;	.line	175; "MC32F7361.c"	g_tmpbuff -= g_adcmax;           // 
0001cb   581c     movar   0x1c             	MOVAR	r0x1028
0001cc   5620     movra   0x20             	MOVRA	r0x102C
0001cd   7621     clrr    0x21             	CLRR	r0x102D
0001ce   7622     clrr    0x22             	CLRR	r0x102F
                                           ;;113	MOVAR	r0x102B
0001cf   581b     movar   0x1b             	MOVAR	r0x1027
0001d0   561f     movra   0x1f             	MOVRA	r0x102B
0001d1   4817     rsubar  0x17             	RSUBAR	r0x1023
0001d2   561b     movra   0x1b             	MOVRA	r0x1027
0001d3   5818     movar   0x18             	MOVAR	r0x1024
0001d4   561c     movra   0x1c             	MOVRA	r0x1028
0001d5   5820     movar   0x20             	MOVAR	r0x102C
0001d6   e187     jbset   0x187, 0         	JBSET	PFLAG,0
0001d7   6020     jzar    0x20             	JZAR	r0x102C
0001d8   4a1c     rsubra  0x1c             	RSUBRA	r0x1028
0001d9   5819     movar   0x19             	MOVAR	r0x1025
0001da   5623     movra   0x23             	MOVRA	r0x102E
0001db   5821     movar   0x21             	MOVAR	r0x102D
0001dc   e187     jbset   0x187, 0         	JBSET	PFLAG,0
0001dd   6021     jzar    0x21             	JZAR	r0x102D
0001de   4a23     rsubra  0x23             	RSUBRA	r0x102E
0001df   5822     movar   0x22             	MOVAR	r0x102F
0001e0   e187     jbset   0x187, 0         	JBSET	PFLAG,0
0001e1   6422     incar   0x22             	INCAR	r0x102F
0001e2   481a     rsubar  0x1a             	RSUBAR	r0x1026
0001e3   5624     movra   0x24             	MOVRA	r0x1030
                                           ;;106	MOVAR	r0x1029
                                           ;;108	MOVAR	r0x102A
                                           ;	.line	176; "MC32F7361.c"	g_tmpbuff -= g_adcmin;           // 
0001e4   7619     clrr    0x19             	CLRR	r0x1025
0001e5   761a     clrr    0x1a             	CLRR	r0x1026
                                           ;;105	MOVAR	r0x1023
0001e6   581d     movar   0x1d             	MOVAR	r0x1029
0001e7   5617     movra   0x17             	MOVRA	r0x1023
0001e8   4a1b     rsubra  0x1b             	RSUBRA	r0x1027
                                           ;;107	MOVAR	r0x1024
0001e9   581e     movar   0x1e             	MOVAR	r0x102A
0001ea   5618     movra   0x18             	MOVRA	r0x1024
0001eb   e187     jbset   0x187, 0         	JBSET	PFLAG,0
0001ec   6018     jzar    0x18             	JZAR	r0x1024
0001ed   4a1c     rsubra  0x1c             	RSUBRA	r0x1028
0001ee   5819     movar   0x19             	MOVAR	r0x1025
0001ef   e187     jbset   0x187, 0         	JBSET	PFLAG,0
0001f0   6019     jzar    0x19             	JZAR	r0x1025
0001f1   4a23     rsubra  0x23             	RSUBRA	r0x102E
0001f2   581a     movar   0x1a             	MOVAR	r0x1026
0001f3   e187     jbset   0x187, 0         	JBSET	PFLAG,0
0001f4   601a     jzar    0x1a             	JZAR	r0x1026
0001f5   4a24     rsubra  0x24             	RSUBRA	r0x1030
                                           ;	.line	177; "MC32F7361.c"	g_temp_value = (g_tmpbuff >> 4); // 16
0001f6   441b     swapar  0x1b             	SWAPAR	r0x1027
0001f7   3e0f     andai   0xf              	ANDAI	0x0f
0001f8   5617     movra   0x17             	MOVRA	r0x1023
0001f9   441c     swapar  0x1c             	SWAPAR	r0x1028
0001fa   5618     movra   0x18             	MOVRA	r0x1024
0001fb   3ef0     andai   0xf0             	ANDAI	0xf0
0001fc   5e17     orra    0x17             	ORRA	r0x1023
0001fd   4218     xorra   0x18             	XORRA	r0x1024
0001fe   4423     swapar  0x23             	SWAPAR	r0x102E
0001ff   5619     movra   0x19             	MOVRA	r0x1025
000200   3ef0     andai   0xf0             	ANDAI	0xf0
000201   5e18     orra    0x18             	ORRA	r0x1024
000202   4219     xorra   0x19             	XORRA	r0x1025
000203   4424     swapar  0x24             	SWAPAR	r0x1030
000204   561a     movra   0x1a             	MOVRA	r0x1026
000205   3ef0     andai   0xf0             	ANDAI	0xf0
000206   5e19     orra    0x19             	ORRA	r0x1025
000207   421a     xorra   0x1a             	XORRA	r0x1026
                                           ;;110	MOVAR	r0x1023
                                           ;;112	MOVAR	r0x1024
                                           ;;109	MOVAR	r0x1027
                                           ;	.line	179; "MC32F7361.c"	return g_temp_value;
000208   5817     movar   0x17             	MOVAR	r0x1023
000209   561b     movra   0x1b             	MOVRA	r0x1027
00020a   5606     movra   0x6              	MOVRA	STK00
                                           ;;111	MOVAR	r0x1028
00020b   5818     movar   0x18             	MOVAR	r0x1024
00020c   561c     movra   0x1c             	MOVRA	r0x1028
                                           ;	.line	180; "MC32F7361.c"	}
00020d   000c     return                   	RETURN	
                                           ; exit point of _adc_get_val
                                           
                                           ;***
                                           ;  pBlock Stats: dbName = C
                                           ;***
                                           ;entry:  _adc_sel_channel	;Function start
                                           ; 2 exit points
                                           ;has an exit
                                           ;functions called:
                                           ;   _delay_ms
                                           ;   _delay_ms
                                           ;2 compiler assigned registers:
                                           ;   r0x1011
                                           ;   STK00
                                           ;; Starting pCode block
                                           _adc_sel_channel	;Function start
                                           ; 2 exit points
                                           ;	.line	107; "MC32F7361.c"	void adc_sel_channel(u8 adc_channel)
00020e   5610     movra   0x10             	MOVRA	r0x1011
                                           ;	.line	111; "MC32F7361.c"	if (last_adc_channel == adc_channel)
00020f   5810     movar   0x10             	MOVAR	r0x1011
000210   402e     xorar   0x2e             	XORAR	_adc_sel_channel_last_adc_channel_65536_24
000211   e587     jbset   0x187, 0x2       	JBSET	PFLAG,2
000212   a214     goto    0x214            	GOTO	_00169_DS_
                                           ;	.line	113; "MC32F7361.c"	return;
000213   a22e     goto    0x22e            	GOTO	_00174_DS_
                                           _00169_DS_
                                           ;	.line	116; "MC32F7361.c"	last_adc_channel = adc_channel;
000214   5810     movar   0x10             	MOVAR	r0x1011
000215   562e     movra   0x2e             	MOVRA	_adc_sel_channel_last_adc_channel_65536_24
                                           ;	.line	118; "MC32F7361.c"	switch (adc_channel)
000216   5810     movar   0x10             	MOVAR	r0x1011
000217   3901     xorai   0x1              	XORAI	0x01
000218   e587     jbset   0x187, 0x2       	JBSET	PFLAG,2
000219   a21b     goto    0x21b            	GOTO	_00188_DS_
00021a   a221     goto    0x221            	GOTO	_00170_DS_
                                           _00188_DS_
00021b   5810     movar   0x10             	MOVAR	r0x1011
00021c   3902     xorai   0x2              	XORAI	0x02
00021d   e587     jbset   0x187, 0x2       	JBSET	PFLAG,2
00021e   a220     goto    0x220            	GOTO	_00189_DS_
00021f   a226     goto    0x226            	GOTO	_00171_DS_
                                           _00189_DS_
000220   a22a     goto    0x22a            	GOTO	_00173_DS_
                                           _00170_DS_
                                           ;	.line	121; "MC32F7361.c"	ADCHS3 = 1;
000221   cfb0     bset    0x1b0, 0x7       	BSET	_ADCR0bits,7
                                           ;	.line	122; "MC32F7361.c"	ADCHS2 = 0;
000222   ddb0     bclr    0x1b0, 0x6       	BCLR	_ADCR0bits,6
                                           ;	.line	123; "MC32F7361.c"	ADCHS1 = 1;
000223   cbb0     bset    0x1b0, 0x5       	BSET	_ADCR0bits,5
                                           ;	.line	124; "MC32F7361.c"	ADCHS0 = 0;
000224   d9b0     bclr    0x1b0, 0x4       	BCLR	_ADCR0bits,4
                                           ;	.line	125; "MC32F7361.c"	break;
000225   a22a     goto    0x22a            	GOTO	_00173_DS_
                                           _00171_DS_
                                           ;	.line	130; "MC32F7361.c"	ADCHS3 = 0;
000226   dfb0     bclr    0x1b0, 0x7       	BCLR	_ADCR0bits,7
                                           ;	.line	131; "MC32F7361.c"	ADCHS2 = 1;
000227   cdb0     bset    0x1b0, 0x6       	BSET	_ADCR0bits,6
                                           ;	.line	132; "MC32F7361.c"	ADCHS1 = 1;
000228   cbb0     bset    0x1b0, 0x5       	BSET	_ADCR0bits,5
                                           ;	.line	133; "MC32F7361.c"	ADCHS0 = 0;
000229   d9b0     bclr    0x1b0, 0x4       	BCLR	_ADCR0bits,4
                                           _00173_DS_
                                           ;	.line	147; "MC32F7361.c"	delay_ms(1); // adc
00022a   3c01     movai   0x1              	MOVAI	0x01
00022b   5606     movra   0x6              	MOVRA	STK00
00022c   3c00     movai   0                	MOVAI	0x00
00022d   82bc     call    0x2bc            	CALL	_delay_ms
                                           _00174_DS_
                                           ;	.line	148; "MC32F7361.c"	}
00022e   000c     return                   	RETURN	
                                           ; exit point of _adc_sel_channel
                                           
                                           ;***
                                           ;  pBlock Stats: dbName = C
                                           ;***
                                           ;entry:  _timer3_config	;Function start
                                           ; 2 exit points
                                           ;has an exit
                                           ;; Starting pCode block
                                           _timer3_config	;Function start
                                           ; 2 exit points
                                           ;	.line	102; "MC32F7361.c"	T3LOAD = 135 - 1; // FCPU 641ms
00022f   3c86     movai   0x86             	MOVAI	0x86
000230   57a6     movra   0x1a6            	MOVRA	_T3LOAD
                                           ;	.line	103; "MC32F7361.c"	T3CR = 0x86;      // FCPU64
000231   3c86     movai   0x86             	MOVAI	0x86
000232   57a4     movra   0x1a4            	MOVRA	_T3CR
                                           ;	.line	104; "MC32F7361.c"	T3IE = 1;
000233   cf8a     bset    0x18a, 0x7       	BSET	_INTEbits,7
                                           ;	.line	105; "MC32F7361.c"	}
000234   000c     return                   	RETURN	
                                           ; exit point of _timer3_config
                                           
                                           ;***
                                           ;  pBlock Stats: dbName = C
                                           ;***
                                           ;entry:  _timer0_pwm_config	;Function start
                                           ; 2 exit points
                                           ;has an exit
                                           ;; Starting pCode block
                                           _timer0_pwm_config	;Function start
                                           ; 2 exit points
                                           ;	.line	85; "MC32F7361.c"	T0CR = 0x49; // PWM,FTMR,2 (0.03125us)
000235   3c49     movai   0x49             	MOVAI	0x49
000236   5798     movra   0x198            	MOVRA	_T0CR
                                           ;	.line	88; "MC32F7361.c"	T0LOAD = (128 + 10) - 1; //
000237   3c89     movai   0x89             	MOVAI	0x89
000238   579a     movra   0x19a            	MOVRA	_T0LOAD
                                           ;	.line	89; "MC32F7361.c"	T0DATA = 23 + 10;
000239   3c21     movai   0x21             	MOVAI	0x21
00023a   579b     movra   0x19b            	MOVRA	_T0DATA
                                           ;	.line	90; "MC32F7361.c"	PWMCR0 = 0x00; // 
00023b   77ac     clrr    0x1ac            	CLRR	_PWMCR0
                                           ;	.line	91; "MC32F7361.c"	PWMCR1 = 0x18; // FHOSC  2  
00023c   3c18     movai   0x18             	MOVAI	0x18
00023d   57ad     movra   0x1ad            	MOVRA	_PWMCR1
                                           ;	.line	95; "MC32F7361.c"	T0EN = 0;   // 
00023e   df98     bclr    0x198, 0x7       	BCLR	_T0CRbits,7
                                           ;	.line	96; "MC32F7361.c"	PWM0EC = 0; // PWM0
00023f   dd98     bclr    0x198, 0x6       	BCLR	_T0CRbits,6
                                           ;	.line	97; "MC32F7361.c"	}
000240   000c     return                   	RETURN	
                                           ; exit point of _timer0_pwm_config
                                           
                                           ;***
                                           ;  pBlock Stats: dbName = C
                                           ;***
                                           ;entry:  _adc_config	;Function start
                                           ; 2 exit points
                                           ;has an exit
                                           ;; Starting pCode block
                                           _adc_config	;Function start
                                           ; 2 exit points
                                           ;	.line	68; "MC32F7361.c"	P11OE = 0; // 
000241   d395     bclr    0x195, 0x1       	BCLR	_OEP1bits,1
                                           ;	.line	69; "MC32F7361.c"	P11DC = 1; // 
000242   c3b7     bset    0x1b7, 0x1       	BSET	_P1ADCRbits,1
                                           ;	.line	76; "MC32F7361.c"	ADCR0 = 0x0B; // 12adc
000243   3c0b     movai   0xb              	MOVAI	0x0b
000244   57b0     movra   0x1b0            	MOVRA	_ADCR0
                                           ;	.line	77; "MC32F7361.c"	ADCR1 = 0x80; // adc FHIRC/322.0V
000245   3c80     movai   0x80             	MOVAI	0x80
000246   57b1     movra   0x1b1            	MOVRA	_ADCR1
                                           ;	.line	78; "MC32F7361.c"	ADCR2 = 0x0F; // 15  ADCLK
000247   3c0f     movai   0xf              	MOVAI	0x0f
000248   57b2     movra   0x1b2            	MOVRA	_ADCR2
                                           ;	.line	79; "MC32F7361.c"	}
000249   000c     return                   	RETURN	
                                           ; exit point of _adc_config
                                           
                                           ;***
                                           ;  pBlock Stats: dbName = C
                                           ;***
                                           ;entry:  _IO_Init	;Function start
                                           ; 2 exit points
                                           ;has an exit
                                           ;; Starting pCode block
                                           _IO_Init	;Function start
                                           ; 2 exit points
                                           ;	.line	37; "MC32F7361.c"	IOP0 = 0x00;   // io
00024a   7790     clrr    0x190            	CLRR	_IOP0
                                           ;	.line	38; "MC32F7361.c"	OEP0 = 0x3F;   // io 1:out  0:in
00024b   3c3f     movai   0x3f             	MOVAI	0x3f
00024c   5791     movra   0x191            	MOVRA	_OEP0
                                           ;	.line	39; "MC32F7361.c"	PUP0 = 0x00;   // io   1:enable  0:disable
00024d   7792     clrr    0x192            	CLRR	_PUP0
                                           ;	.line	40; "MC32F7361.c"	PDP0 = 0x00;   // io   1:enable  0:disable
00024e   7793     clrr    0x193            	CLRR	_PDP0
                                           ;	.line	41; "MC32F7361.c"	P0ADCR = 0x00; // io  1:  0:io
00024f   77b6     clrr    0x1b6            	CLRR	_P0ADCR
                                           ;	.line	43; "MC32F7361.c"	IOP1 = 0x00;   // io
000250   7794     clrr    0x194            	CLRR	_IOP1
                                           ;	.line	44; "MC32F7361.c"	OEP1 = 0xFF;   // io 1:out  0:in
000251   3cff     movai   0xff             	MOVAI	0xff
000252   5795     movra   0x195            	MOVRA	_OEP1
                                           ;	.line	45; "MC32F7361.c"	PUP1 = 0x00;   // io   1:enable  0:disable
000253   7796     clrr    0x196            	CLRR	_PUP1
                                           ;	.line	46; "MC32F7361.c"	PDP1 = 0x00;   // io   1:enable  0:disable
000254   7797     clrr    0x197            	CLRR	_PDP1
                                           ;	.line	47; "MC32F7361.c"	P1ADCR = 0x00; // io  1:  0:io
000255   77b7     clrr    0x1b7            	CLRR	_P1ADCR
                                           ;	.line	49; "MC32F7361.c"	IOP2 = 0x00; // io
000256   77b8     clrr    0x1b8            	CLRR	_IOP2
                                           ;	.line	50; "MC32F7361.c"	OEP2 = 0x0F; // io 1:out  0:in
000257   3c0f     movai   0xf              	MOVAI	0x0f
000258   57b9     movra   0x1b9            	MOVRA	_OEP2
                                           ;	.line	51; "MC32F7361.c"	PUP2 = 0x00; // io   1:enable  0:disable
000259   77ba     clrr    0x1ba            	CLRR	_PUP2
                                           ;	.line	52; "MC32F7361.c"	PDP2 = 0x00; // io   1:enable  0:disablea
00025a   77bb     clrr    0x1bb            	CLRR	_PDP2
                                           ;	.line	54; "MC32F7361.c"	PMOD = 0x00;  // P00P01P13 io
00025b   77bc     clrr    0x1bc            	CLRR	_PMOD
                                           ;	.line	55; "MC32F7361.c"	DRVCR = 0x80; // 
00025c   3c80     movai   0x80             	MOVAI	0x80
00025d   578c     movra   0x18c            	MOVRA	_DRVCR
                                           ;	.line	56; "MC32F7361.c"	}
00025e   000c     return                   	RETURN	
                                           ; exit point of _IO_Init
                                           
                                           ;***
                                           ;  pBlock Stats: dbName = C
                                           ;***
                                           ;entry:  _CLR_RAM	;Function start
                                           ; 2 exit points
                                           ;has an exit
                                           ;; Starting pCode block
                                           _CLR_RAM	;Function start
                                           ; 2 exit points
                                           ;	.line	22; "MC32F7361.c"	for (FSR0 = 0; FSR0 < 0xff; FSR0++)
00025f   7784     clrr    0x184            	CLRR	_FSR0
                                           ;;unsigned compare: left < lit(0xFF=255), size=1
                                           _00147_DS_
000260   3cff     movai   0xff             	MOVAI	0xff
000261   4984     rsubar  0x184            	RSUBAR	_FSR0
000262   f187     jbclr   0x187, 0         	JBCLR	PFLAG,0
000263   a267     goto    0x267            	GOTO	_00145_DS_
                                           ;;genSkipc:3291: created from rifx:013B5EFC
                                           ;	.line	24; "MC32F7361.c"	INDF0 = 0x00;
000264   7780     clrr    0x180            	CLRR	_INDF0
                                           ;	.line	22; "MC32F7361.c"	for (FSR0 = 0; FSR0 < 0xff; FSR0++)
000265   6784     incr    0x184            	INCR	_FSR0
000266   a260     goto    0x260            	GOTO	_00147_DS_
                                           _00145_DS_
                                           ;	.line	26; "MC32F7361.c"	FSR0 = 0xFF;
000267   3cff     movai   0xff             	MOVAI	0xff
000268   5784     movra   0x184            	MOVRA	_FSR0
                                           ;	.line	27; "MC32F7361.c"	INDF0 = 0x00;
000269   7780     clrr    0x180            	CLRR	_INDF0
                                           ;	.line	28; "MC32F7361.c"	}
00026a   000c     return                   	RETURN	
                                           ; exit point of _CLR_RAM
                                           
                                           ;***
                                           ;  pBlock Stats: dbName = C
                                           ;***
                                           ;entry:  _send_data_msb	;Function start
                                           ; 2 exit points
                                           ;has an exit
                                           ;functions called:
                                           ;   _delay_ms
                                           ;   _delay_ms
                                           ;   _delay_ms
                                           ;   _delay_ms
                                           ;   _delay_ms
                                           ;   _delay_ms
                                           ;   _delay_ms
                                           ;   _delay_ms
                                           ;   _delay_ms
                                           ;   _delay_ms
                                           ;   _delay_ms
                                           ;   _delay_ms
                                           ;   _delay_ms
                                           ;   _delay_ms
                                           ;   _delay_ms
                                           ;   _delay_ms
                                           ;13 compiler assigned registers:
                                           ;   r0x1011
                                           ;   STK00
                                           ;   r0x1012
                                           ;   STK01
                                           ;   r0x1013
                                           ;   STK02
                                           ;   r0x1014
                                           ;   r0x1015
                                           ;   r0x1016
                                           ;   r0x1017
                                           ;   r0x1018
                                           ;   r0x1019
                                           ;   r0x101A
                                           ;; Starting pCode block
                                           _send_data_msb	;Function start
                                           ; 2 exit points
                                           ;	.line	194; "user.h"	void send_data_msb(u32 send_data)
00026b   5610     movra   0x10             	MOVRA	r0x1011
00026c   5806     movar   0x6              	MOVAR	STK00
00026d   560f     movra   0xf              	MOVRA	r0x1012
00026e   5805     movar   0x5              	MOVAR	STK01
00026f   560e     movra   0xe              	MOVRA	r0x1013
000270   5804     movar   0x4              	MOVAR	STK02
000271   560d     movra   0xd              	MOVRA	r0x1014
                                           ;	.line	198; "user.h"	DEBUG_PIN = 1;
000272   c5b8     bset    0x1b8, 0x2       	BSET	_IOP2bits,2
                                           ;	.line	199; "user.h"	delay_ms(15);
000273   3c0f     movai   0xf              	MOVAI	0x0f
000274   5606     movra   0x6              	MOVRA	STK00
000275   3c00     movai   0                	MOVAI	0x00
000276   82bc     call    0x2bc            	CALL	_delay_ms
                                           ;	.line	201; "user.h"	DEBUG_PIN = 0;
000277   d5b8     bclr    0x1b8, 0x2       	BCLR	_IOP2bits,2
                                           ;	.line	202; "user.h"	delay_ms(7); //
000278   3c07     movai   0x7              	MOVAI	0x07
000279   5606     movra   0x6              	MOVRA	STK00
00027a   3c00     movai   0                	MOVAI	0x00
00027b   82bc     call    0x2bc            	CALL	_delay_ms
                                           ;	.line	204; "user.h"	for (u8 i = 0; i < 32; i++)
00027c   7611     clrr    0x11             	CLRR	r0x1015
                                           ;;unsigned compare: left < lit(0x20=32), size=1
                                           _00121_DS_
00027d   3c20     movai   0x20             	MOVAI	0x20
00027e   4811     rsubar  0x11             	RSUBAR	r0x1015
00027f   f187     jbclr   0x187, 0         	JBCLR	PFLAG,0
000280   a2b0     goto    0x2b0            	GOTO	_00119_DS_
                                           ;;genSkipc:3291: created from rifx:013B5EFC
                                           ;	.line	206; "user.h"	if ((send_data >> (32 - 1 - i)) & 0x01)
000281   5811     movar   0x11             	MOVAR	r0x1015
000282   3a1f     isubai  0x1f             	ISUBAI	0x1f
000283   5612     movra   0x12             	MOVRA	r0x1016
000284   5810     movar   0x10             	MOVAR	r0x1011
000285   5616     movra   0x16             	MOVRA	r0x1017
000286   580f     movar   0xf              	MOVAR	r0x1012
000287   5615     movra   0x15             	MOVRA	r0x1018
000288   580e     movar   0xe              	MOVAR	r0x1013
000289   5614     movra   0x14             	MOVRA	r0x1019
00028a   580d     movar   0xd              	MOVAR	r0x1014
00028b   5613     movra   0x13             	MOVRA	r0x101A
00028c   5812     movar   0x12             	MOVAR	r0x1016
00028d   3a00     isubai  0                	ISUBAI	0x00
00028e   f587     jbclr   0x187, 0x2       	JBCLR	PFLAG,2
00028f   a297     goto    0x297            	GOTO	_00140_DS_
                                           _00139_DS_
000290   4e16     rrr     0x16             	RRR	r0x1017
000291   4e15     rrr     0x15             	RRR	r0x1018
000292   4e14     rrr     0x14             	RRR	r0x1019
000293   4e13     rrr     0x13             	RRR	r0x101A
000294   3f01     addai   0x1              	ADDAI	0x01
000295   e187     jbset   0x187, 0         	JBSET	PFLAG,0
000296   a290     goto    0x290            	GOTO	_00139_DS_
                                           _00140_DS_
000297   e013     jbset   0x13, 0          	JBSET	r0x101A,0
000298   a2a4     goto    0x2a4            	GOTO	_00117_DS_
                                           ;	.line	210; "user.h"	DEBUG_PIN = 1;
000299   c5b8     bset    0x1b8, 0x2       	BSET	_IOP2bits,2
                                           ;	.line	211; "user.h"	delay_ms(5); //
00029a   3c05     movai   0x5              	MOVAI	0x05
00029b   5606     movra   0x6              	MOVRA	STK00
00029c   3c00     movai   0                	MOVAI	0x00
00029d   82bc     call    0x2bc            	CALL	_delay_ms
                                           ;	.line	213; "user.h"	DEBUG_PIN = 0;
00029e   d5b8     bclr    0x1b8, 0x2       	BCLR	_IOP2bits,2
                                           ;	.line	214; "user.h"	delay_ms(10); //
00029f   3c0a     movai   0xa              	MOVAI	0x0a
0002a0   5606     movra   0x6              	MOVRA	STK00
0002a1   3c00     movai   0                	MOVAI	0x00
0002a2   82bc     call    0x2bc            	CALL	_delay_ms
0002a3   a2ae     goto    0x2ae            	GOTO	_00122_DS_
                                           _00117_DS_
                                           ;	.line	220; "user.h"	DEBUG_PIN = 1;
0002a4   c5b8     bset    0x1b8, 0x2       	BSET	_IOP2bits,2
                                           ;	.line	221; "user.h"	delay_ms(5); //
0002a5   3c05     movai   0x5              	MOVAI	0x05
0002a6   5606     movra   0x6              	MOVRA	STK00
0002a7   3c00     movai   0                	MOVAI	0x00
0002a8   82bc     call    0x2bc            	CALL	_delay_ms
                                           ;	.line	223; "user.h"	DEBUG_PIN = 0;
0002a9   d5b8     bclr    0x1b8, 0x2       	BCLR	_IOP2bits,2
                                           ;	.line	224; "user.h"	delay_ms(5); //
0002aa   3c05     movai   0x5              	MOVAI	0x05
0002ab   5606     movra   0x6              	MOVRA	STK00
0002ac   3c00     movai   0                	MOVAI	0x00
0002ad   82bc     call    0x2bc            	CALL	_delay_ms
                                           _00122_DS_
                                           ;	.line	204; "user.h"	for (u8 i = 0; i < 32; i++)
0002ae   6611     incr    0x11             	INCR	r0x1015
0002af   a27d     goto    0x27d            	GOTO	_00121_DS_
                                           _00119_DS_
                                           ;	.line	230; "user.h"	DEBUG_PIN = 0;
0002b0   d5b8     bclr    0x1b8, 0x2       	BCLR	_IOP2bits,2
                                           ;	.line	231; "user.h"	delay_ms(1);
0002b1   3c01     movai   0x1              	MOVAI	0x01
0002b2   5606     movra   0x6              	MOVRA	STK00
0002b3   3c00     movai   0                	MOVAI	0x00
0002b4   82bc     call    0x2bc            	CALL	_delay_ms
                                           ;	.line	232; "user.h"	DEBUG_PIN = 1;
0002b5   c5b8     bset    0x1b8, 0x2       	BSET	_IOP2bits,2
                                           ;	.line	233; "user.h"	delay_ms(1);
0002b6   3c01     movai   0x1              	MOVAI	0x01
0002b7   5606     movra   0x6              	MOVRA	STK00
0002b8   3c00     movai   0                	MOVAI	0x00
0002b9   82bc     call    0x2bc            	CALL	_delay_ms
                                           ;	.line	234; "user.h"	DEBUG_PIN = 0;
0002ba   d5b8     bclr    0x1b8, 0x2       	BCLR	_IOP2bits,2
                                           ;	.line	235; "user.h"	}
0002bb   000c     return                   	RETURN	
                                           ; exit point of _send_data_msb
                                           
                                           ;***
                                           ;  pBlock Stats: dbName = C
                                           ;***
                                           ;entry:  _delay_ms	;Function start
                                           ; 2 exit points
                                           ;has an exit
                                           ;7 compiler assigned registers:
                                           ;   r0x100B
                                           ;   STK00
                                           ;   r0x100C
                                           ;   r0x100D
                                           ;   r0x100E
                                           ;   r0x100F
                                           ;   r0x1010
                                           ;; Starting pCode block
                                           _delay_ms	;Function start
                                           ; 2 exit points
                                           ;	.line	172; "user.h"	void delay_ms(u16 xms)
0002bc   5608     movra   0x8              	MOVRA	r0x100B
0002bd   5806     movar   0x6              	MOVAR	STK00
0002be   5607     movra   0x7              	MOVRA	r0x100C
                                           _00108_DS_
                                           ;	.line	174; "user.h"	while (xms)
0002bf   5807     movar   0x7              	MOVAR	r0x100C
0002c0   5c08     orar    0x8              	ORAR	r0x100B
0002c1   f587     jbclr   0x187, 0x2       	JBCLR	PFLAG,2
0002c2   a2db     goto    0x2db            	GOTO	_00111_DS_
                                           ;	.line	177; "user.h"	while (i--)
0002c3   3c3c     movai   0x3c             	MOVAI	0x3c
0002c4   5609     movra   0x9              	MOVRA	r0x100D
0002c5   3c02     movai   0x2              	MOVAI	0x02
0002c6   560a     movra   0xa              	MOVRA	r0x100E
                                           _00105_DS_
0002c7   5809     movar   0x9              	MOVAR	r0x100D
0002c8   560b     movra   0xb              	MOVRA	r0x100F
0002c9   580a     movar   0xa              	MOVAR	r0x100E
0002ca   560c     movra   0xc              	MOVRA	r0x1010
0002cb   3cff     movai   0xff             	MOVAI	0xff
0002cc   7e09     addra   0x9              	ADDRA	r0x100D
0002cd   e187     jbset   0x187, 0         	JBSET	PFLAG,0
0002ce   6e0a     decr    0xa              	DECR	r0x100E
0002cf   580b     movar   0xb              	MOVAR	r0x100F
0002d0   5c0c     orar    0xc              	ORAR	r0x1010
0002d1   f587     jbclr   0x187, 0x2       	JBCLR	PFLAG,2
0002d2   a2d5     goto    0x2d5            	GOTO	_00107_DS_
                                           ;	.line	179; "user.h"	Nop();
0002d3   0000     nop                      	nop	
0002d4   a2c7     goto    0x2c7            	GOTO	_00105_DS_
                                           _00107_DS_
                                           ;	.line	181; "user.h"	xms--; //  --while()
0002d5   3cff     movai   0xff             	MOVAI	0xff
0002d6   7e07     addra   0x7              	ADDRA	r0x100C
0002d7   e187     jbset   0x187, 0         	JBSET	PFLAG,0
0002d8   6e08     decr    0x8              	DECR	r0x100B
                                           ;	.line	185; "user.h"	__endasm;
                                           	;
0002d9   000e     clrwdt                   	clrwdt;
                                           	
0002da   a2bf     goto    0x2bf            	GOTO	_00108_DS_
                                           _00111_DS_
                                           ;	.line	187; "user.h"	}
0002db   000c     return                   	RETURN	
                                           ; exit point of _delay_ms
                                           
                                           
                                           ;	code size estimation:
                                           ;	  710+    0 =   710 instructions ( 1420 byte)
                                           
                                           	end
                                           ;--------------------------------------------------------
                                           ; File Created by SN-SDCC : SinoMCU ANSI-C Compiler
                                           ; Version 2.0.0 (Dec 11 2019) (MINGW32)
                                           ; This file was generated Tue Jan 14 17:57:52 2025
                                           ;--------------------------------------------------------
                                           ; MC32 port for the RISC core
                                           ;--------------------------------------------------------
                                           ;	.file	"MC32F7361.c"
                                           	list	p=7361
                                           	radix dec
                                           	include "7361.inc"
                                           ;--------------------------------------------------------
                                           ; external declarations
                                           ;--------------------------------------------------------
                                           	extern	_INDF0bits
                                           	extern	_INDF1bits
                                           	extern	_INDF2bits
                                           	extern	_HIBYTEbits
                                           	extern	_FSR0bits
                                           	extern	_FSR1bits
                                           	extern	_PCLbits
                                           	extern	_PFLAGbits
                                           	extern	_MCRbits
                                           	extern	_INDF3bits
                                           	extern	_INTEbits
                                           	extern	_INTFbits
                                           	extern	_DRVCRbits
                                           	extern	_P0KBCRbits
                                           	extern	_P1KBCRbits
                                           	extern	_P2KBCRbits
                                           	extern	_IOP0bits
                                           	extern	_OEP0bits
                                           	extern	_PUP0bits
                                           	extern	_PDP0bits
                                           	extern	_IOP1bits
                                           	extern	_OEP1bits
                                           	extern	_PUP1bits
                                           	extern	_PDP1bits
                                           	extern	_T0CRbits
                                           	extern	_T0CNTbits
                                           	extern	_T0LOADbits
                                           	extern	_T0DATAbits
                                           	extern	_T1CRbits
                                           	extern	_T1CNTbits
                                           	extern	_T1LOADbits
                                           	extern	_T1DATAbits
                                           	extern	_T2CRbits
                                           	extern	_T2CNTbits
                                           	extern	_T2LOADbits
                                           	extern	_T2DATAbits
                                           	extern	_T3CRbits
                                           	extern	_T3CNTbits
                                           	extern	_T3LOADbits
                                           	extern	_PWM0DRbits
                                           	extern	_PWM1DRbits
                                           	extern	_PWM2DRbits
                                           	extern	_PWMCR0bits
                                           	extern	_PWMCR1bits
                                           	extern	_OSCMRbits
                                           	extern	_LVDCRbits
                                           	extern	_ADCR0bits
                                           	extern	_ADCR1bits
                                           	extern	_ADCR2bits
                                           	extern	_OSADJCRbits
                                           	extern	_ADRHbits
                                           	extern	_ADRLbits
                                           	extern	_P0ADCRbits
                                           	extern	_P1ADCRbits
                                           	extern	_IOP2bits
                                           	extern	_OEP2bits
                                           	extern	_PUP2bits
                                           	extern	_PDP2bits
                                           	extern	_PMODbits
                                           	extern	_PWMCR3bits
                                           	extern	_PWMCR2bits
                                           	extern	_PFRCCRbits
                                           	extern	_PFRCCALbits
                                           	extern	_EECRbits
                                           	extern	_EEPRbits
                                           	extern	_EEARbits
                                           	extern	_EEDRHbits
                                           	extern	_EEDRLbits
                                           	extern	_DBGCRbits
                                           	extern	_DBGPRbits
                                           	extern	_HIRCCALbits
                                           	extern	_INDF0
                                           	extern	_INDF1
                                           	extern	_INDF2
                                           	extern	_HIBYTE
                                           	extern	_FSR0
                                           	extern	_FSR1
                                           	extern	_PCL
                                           	extern	_PFLAG
                                           	extern	_MCR
                                           	extern	_INDF3
                                           	extern	_INTE
                                           	extern	_INTF
                                           	extern	_DRVCR
                                           	extern	_P0KBCR
                                           	extern	_P1KBCR
                                           	extern	_P2KBCR
                                           	extern	_IOP0
                                           	extern	_OEP0
                                           	extern	_PUP0
                                           	extern	_PDP0
                                           	extern	_IOP1
                                           	extern	_OEP1
                                           	extern	_PUP1
                                           	extern	_PDP1
                                           	extern	_T0CR
                                           	extern	_T0CNT
                                           	extern	_T0LOAD
                                           	extern	_T0DATA
                                           	extern	_T1CR
                                           	extern	_T1CNT
                                           	extern	_T1LOAD
                                           	extern	_T1DATA
                                           	extern	_T2CR
                                           	extern	_T2CNT
                                           	extern	_T2LOAD
                                           	extern	_T2DATA
                                           	extern	_T3CR
                                           	extern	_T3CNT
                                           	extern	_T3LOAD
                                           	extern	_PWM0DR
                                           	extern	_PWM1DR
                                           	extern	_PWM2DR
                                           	extern	_PWMCR0
                                           	extern	_PWMCR1
                                           	extern	_OSCMR
                                           	extern	_LVDCR
                                           	extern	_ADCR0
                                           	extern	_ADCR1
                                           	extern	_ADCR2
                                           	extern	_OSADJCR
                                           	extern	_ADRH
                                           	extern	_ADRL
                                           	extern	_P0ADCR
                                           	extern	_P1ADCR
                                           	extern	_IOP2
                                           	extern	_OEP2
                                           	extern	_PUP2
                                           	extern	_PDP2
                                           	extern	_PMOD
                                           	extern	_PWMCR3
                                           	extern	_PWMCR2
                                           	extern	_PFRCCR
                                           	extern	_PFRCCAL
                                           	extern	_EECR
                                           	extern	_EEPR
                                           	extern	_EEAR
                                           	extern	_EEDRH
                                           	extern	_EEDRL
                                           	extern	_DBGCR
                                           	extern	_DBGPR
                                           	extern	_HIRCCAL
                                           ;--------------------------------------------------------
                                           ; global declarations
                                           ;--------------------------------------------------------
                                           	global	_delay_ms
                                           	global	_send_data_msb
                                           	global	_CLR_RAM
                                           	global	_IO_Init
                                           	global	_adc_config
                                           	global	_timer0_pwm_config
                                           	global	_timer3_config
                                           	global	_adc_sel_channel
                                           	global	_adc_get_val
                                           	global	_adc_get_max_val
                                           	global	_Sys_Init
                                           	global	_is_in_charging
                                           	global	_is_open_lid
                                           	global	_is_detect_load
                                           	global	_stop_charging_the_host
                                           	global	_low_power_scan_handle
                                           	global	_main
                                           	global	_int_isr
                                           	global	_cur_dev_status
                                           	global	_abuf
                                           	global	_statusbuf
                                           	global	_i
                                           	global	_cnt
                                           	global	_ret_u8
                                           	global	_adc_val
                                           	global	_tmp_val
                                           	global	_flag1
                                           
                                           	global STK06
                                           	global STK05
                                           	global STK04
                                           	global STK03
                                           	global STK02
                                           	global STK01
                                           	global STK00
                                           
                                           sharebank udata_ovr 0x0000
                                           STK06	res 1
                                           STK05	res 1
                                           STK04	res 1
                                           STK03	res 1
                                           STK02	res 1
                                           STK01	res 1
                                           STK00	res 1
                                           
                                           ;--------------------------------------------------------
                                           ; global definitions
                                           ;--------------------------------------------------------
                                           UD_MC32F7361_0	udata
                                           _cur_dev_status	res	1
                                           
                                           UD_MC32F7361_1	udata
                                           _abuf	res	1
                                           
                                           UD_MC32F7361_2	udata
                                           _statusbuf	res	1
                                           
                                           UD_MC32F7361_3	udata
                                           _i	res	1
                                           
                                           UD_MC32F7361_4	udata
                                           _cnt	res	1
                                           
                                           UD_MC32F7361_5	udata
                                           _ret_u8	res	1
                                           
                                           UD_MC32F7361_6	udata
                                           _adc_val	res	2
                                           
                                           UD_MC32F7361_7	udata
                                           _tmp_val	res	2
                                           
                                           UD_MC32F7361_8	udata
                                           _flag1	res	1
                                           
                                           ;--------------------------------------------------------
                                           ; absolute symbol definitions
                                           ;--------------------------------------------------------
                                           ;--------------------------------------------------------
                                           ; compiler-defined variables
                                           ;--------------------------------------------------------
                                           UDL_MC32F7361_0	udata
                                           r0x100C	res	1
                                           r0x100B	res	1
                                           r0x100D	res	1
                                           r0x100E	res	1
                                           r0x100F	res	1
                                           r0x1010	res	1
                                           r0x1014	res	1
                                           r0x1013	res	1
                                           r0x1012	res	1
                                           r0x1011	res	1
                                           r0x1015	res	1
                                           r0x1016	res	1
                                           r0x101A	res	1
                                           r0x1019	res	1
                                           r0x1018	res	1
                                           r0x1017	res	1
                                           r0x1023	res	1
                                           r0x1024	res	1
                                           r0x1025	res	1
                                           r0x1026	res	1
                                           r0x1027	res	1
                                           r0x1028	res	1
                                           r0x1029	res	1
                                           r0x102A	res	1
                                           r0x102B	res	1
                                           r0x102C	res	1
                                           r0x102D	res	1
                                           r0x102F	res	1
                                           r0x102E	res	1
                                           r0x1030	res	1
                                           r0x1031	res	1
                                           r0x1022	res	1
                                           r0x1021	res	1
                                           r0x101F	res	1
                                           r0x1020	res	1
                                           r0x101B	res	1
                                           r0x101C	res	1
                                           r0x1032	res	1
                                           r0x1033	res	1
                                           _adc_sel_channel_last_adc_channel_65536_24	res	1
                                           _int_isr_blink_cnt_131072_96	res	2
                                           ;--------------------------------------------------------
                                           ; initialized data
                                           ;--------------------------------------------------------
                                           
                                           ;@Allocation info for local variables in function 'delay_ms'
                                           ;@delay_ms delay_ms                  Allocated to registers ;size:2
                                           ;@delay_ms INDF0bits                 Allocated to registers ;size:1
                                           ;@delay_ms INDF1bits                 Allocated to registers ;size:1
                                           ;@delay_ms INDF2bits                 Allocated to registers ;size:1
                                           ;@delay_ms HIBYTEbits                Allocated to registers ;size:1
                                           ;@delay_ms FSR0bits                  Allocated to registers ;size:1
                                           ;@delay_ms FSR1bits                  Allocated to registers ;size:1
                                           ;@delay_ms PCLbits                   Allocated to registers ;size:1
                                           ;@delay_ms PFLAGbits                 Allocated to registers ;size:1
                                           ;@delay_ms MCRbits                   Allocated to registers ;size:1
                                           ;@delay_ms INDF3bits                 Allocated to registers ;size:1
                                           ;@delay_ms INTEbits                  Allocated to registers ;size:1
                                           ;@delay_ms INTFbits                  Allocated to registers ;size:1
                                           ;@delay_ms DRVCRbits                 Allocated to registers ;size:1
                                           ;@delay_ms P0KBCRbits                Allocated to registers ;size:1
                                           ;@delay_ms P1KBCRbits                Allocated to registers ;size:1
                                           ;@delay_ms P2KBCRbits                Allocated to registers ;size:1
                                           ;@delay_ms IOP0bits                  Allocated to registers ;size:1
                                           ;@delay_ms OEP0bits                  Allocated to registers ;size:1
                                           ;@delay_ms PUP0bits                  Allocated to registers ;size:1
                                           ;@delay_ms PDP0bits                  Allocated to registers ;size:1
                                           ;@delay_ms IOP1bits                  Allocated to registers ;size:1
                                           ;@delay_ms OEP1bits                  Allocated to registers ;size:1
                                           ;@delay_ms PUP1bits                  Allocated to registers ;size:1
                                           ;@delay_ms PDP1bits                  Allocated to registers ;size:1
                                           ;@delay_ms T0CRbits                  Allocated to registers ;size:1
                                           ;@delay_ms T0CNTbits                 Allocated to registers ;size:1
                                           ;@delay_ms T0LOADbits                Allocated to registers ;size:1
                                           ;@delay_ms T0DATAbits                Allocated to registers ;size:1
                                           ;@delay_ms T1CRbits                  Allocated to registers ;size:1
                                           ;@delay_ms T1CNTbits                 Allocated to registers ;size:1
                                           ;@delay_ms T1LOADbits                Allocated to registers ;size:1
                                           ;@delay_ms T1DATAbits                Allocated to registers ;size:1
                                           ;@delay_ms T2CRbits                  Allocated to registers ;size:1
                                           ;@delay_ms T2CNTbits                 Allocated to registers ;size:1
                                           ;@delay_ms T2LOADbits                Allocated to registers ;size:1
                                           ;@delay_ms T2DATAbits                Allocated to registers ;size:1
                                           ;@delay_ms T3CRbits                  Allocated to registers ;size:1
                                           ;@delay_ms T3CNTbits                 Allocated to registers ;size:1
                                           ;@delay_ms T3LOADbits                Allocated to registers ;size:1
                                           ;@delay_ms PWM0DRbits                Allocated to registers ;size:1
                                           ;@delay_ms PWM1DRbits                Allocated to registers ;size:1
                                           ;@delay_ms PWM2DRbits                Allocated to registers ;size:1
                                           ;@delay_ms PWMCR0bits                Allocated to registers ;size:1
                                           ;@delay_ms PWMCR1bits                Allocated to registers ;size:1
                                           ;@delay_ms OSCMRbits                 Allocated to registers ;size:1
                                           ;@delay_ms LVDCRbits                 Allocated to registers ;size:1
                                           ;@delay_ms ADCR0bits                 Allocated to registers ;size:1
                                           ;@delay_ms ADCR1bits                 Allocated to registers ;size:1
                                           ;@delay_ms ADCR2bits                 Allocated to registers ;size:1
                                           ;@delay_ms OSADJCRbits               Allocated to registers ;size:1
                                           ;@delay_ms ADRHbits                  Allocated to registers ;size:1
                                           ;@delay_ms ADRLbits                  Allocated to registers ;size:1
                                           ;@delay_ms P0ADCRbits                Allocated to registers ;size:1
                                           ;@delay_ms P1ADCRbits                Allocated to registers ;size:1
                                           ;@delay_ms IOP2bits                  Allocated to registers ;size:1
                                           ;@delay_ms OEP2bits                  Allocated to registers ;size:1
                                           ;@delay_ms PUP2bits                  Allocated to registers ;size:1
                                           ;@delay_ms PDP2bits                  Allocated to registers ;size:1
                                           ;@delay_ms PMODbits                  Allocated to registers ;size:1
                                           ;@delay_ms PWMCR3bits                Allocated to registers ;size:1
                                           ;@delay_ms PWMCR2bits                Allocated to registers ;size:1
                                           ;@delay_ms PFRCCRbits                Allocated to registers ;size:1
                                           ;@delay_ms PFRCCALbits               Allocated to registers ;size:1
                                           ;@delay_ms EECRbits                  Allocated to registers ;size:1
                                           ;@delay_ms EEPRbits                  Allocated to registers ;size:1
                                           ;@delay_ms EEARbits                  Allocated to registers ;size:1
                                           ;@delay_ms EEDRHbits                 Allocated to registers ;size:1
                                           ;@delay_ms EEDRLbits                 Allocated to registers ;size:1
                                           ;@delay_ms DBGCRbits                 Allocated to registers ;size:1
                                           ;@delay_ms DBGPRbits                 Allocated to registers ;size:1
                                           ;@delay_ms HIRCCALbits               Allocated to registers ;size:1
                                           ;@delay_ms cur_dev_status            Allocated to registers ;size:1
                                           ;@delay_ms abuf                      Allocated to registers ;size:1
                                           ;@delay_ms statusbuf                 Allocated to registers ;size:1
                                           ;@delay_ms i                         Allocated to registers ;size:1
                                           ;@delay_ms cnt                       Allocated to registers ;size:1
                                           ;@delay_ms ret_u8                    Allocated to registers ;size:1
                                           ;@delay_ms adc_val                   Allocated to registers ;size:2
                                           ;@delay_ms tmp_val                   Allocated to registers ;size:2
                                           ;@delay_ms flag1                     Allocated to registers ;size:1
                                           ;@delay_ms xms                       Allocated to registers ;size:2
                                           ;@delay_ms i                         Allocated to registers r0x100D r0x100E ;size:2
                                           ;@delay_ms INDF0                     Allocated to registers ;size:1
                                           ;@delay_ms INDF1                     Allocated to registers ;size:1
                                           ;@delay_ms INDF2                     Allocated to registers ;size:1
                                           ;@delay_ms HIBYTE                    Allocated to registers ;size:1
                                           ;@delay_ms FSR0                      Allocated to registers ;size:1
                                           ;@delay_ms FSR1                      Allocated to registers ;size:1
                                           ;@delay_ms PCL                       Allocated to registers ;size:1
                                           ;@delay_ms PFLAG                     Allocated to registers ;size:1
                                           ;@delay_ms MCR                       Allocated to registers ;size:1
                                           ;@delay_ms INDF3                     Allocated to registers ;size:1
                                           ;@delay_ms INTE                      Allocated to registers ;size:1
                                           ;@delay_ms INTF                      Allocated to registers ;size:1
                                           ;@delay_ms DRVCR                     Allocated to registers ;size:1
                                           ;@delay_ms P0KBCR                    Allocated to registers ;size:1
                                           ;@delay_ms P1KBCR                    Allocated to registers ;size:1
                                           ;@delay_ms P2KBCR                    Allocated to registers ;size:1
                                           ;@delay_ms IOP0                      Allocated to registers ;size:1
                                           ;@delay_ms OEP0                      Allocated to registers ;size:1
                                           ;@delay_ms PUP0                      Allocated to registers ;size:1
                                           ;@delay_ms PDP0                      Allocated to registers ;size:1
                                           ;@delay_ms IOP1                      Allocated to registers ;size:1
                                           ;@delay_ms OEP1                      Allocated to registers ;size:1
                                           ;@delay_ms PUP1                      Allocated to registers ;size:1
                                           ;@delay_ms PDP1                      Allocated to registers ;size:1
                                           ;@delay_ms T0CR                      Allocated to registers ;size:1
                                           ;@delay_ms T0CNT                     Allocated to registers ;size:1
                                           ;@delay_ms T0LOAD                    Allocated to registers ;size:1
                                           ;@delay_ms T0DATA                    Allocated to registers ;size:1
                                           ;@delay_ms T1CR                      Allocated to registers ;size:1
                                           ;@delay_ms T1CNT                     Allocated to registers ;size:1
                                           ;@delay_ms T1LOAD                    Allocated to registers ;size:1
                                           ;@delay_ms T1DATA                    Allocated to registers ;size:1
                                           ;@delay_ms T2CR                      Allocated to registers ;size:1
                                           ;@delay_ms T2CNT                     Allocated to registers ;size:1
                                           ;@delay_ms T2LOAD                    Allocated to registers ;size:1
                                           ;@delay_ms T2DATA                    Allocated to registers ;size:1
                                           ;@delay_ms T3CR                      Allocated to registers ;size:1
                                           ;@delay_ms T3CNT                     Allocated to registers ;size:1
                                           ;@delay_ms T3LOAD                    Allocated to registers ;size:1
                                           ;@delay_ms PWM0DR                    Allocated to registers ;size:1
                                           ;@delay_ms PWM1DR                    Allocated to registers ;size:1
                                           ;@delay_ms PWM2DR                    Allocated to registers ;size:1
                                           ;@delay_ms PWMCR0                    Allocated to registers ;size:1
                                           ;@delay_ms PWMCR1                    Allocated to registers ;size:1
                                           ;@delay_ms OSCMR                     Allocated to registers ;size:1
                                           ;@delay_ms LVDCR                     Allocated to registers ;size:1
                                           ;@delay_ms ADCR0                     Allocated to registers ;size:1
                                           ;@delay_ms ADCR1                     Allocated to registers ;size:1
                                           ;@delay_ms ADCR2                     Allocated to registers ;size:1
                                           ;@delay_ms OSADJCR                   Allocated to registers ;size:1
                                           ;@delay_ms ADRH                      Allocated to registers ;size:1
                                           ;@delay_ms ADRL                      Allocated to registers ;size:1
                                           ;@delay_ms P0ADCR                    Allocated to registers ;size:1
                                           ;@delay_ms P1ADCR                    Allocated to registers ;size:1
                                           ;@delay_ms IOP2                      Allocated to registers ;size:1
                                           ;@delay_ms OEP2                      Allocated to registers ;size:1
                                           ;@delay_ms PUP2                      Allocated to registers ;size:1
                                           ;@delay_ms PDP2                      Allocated to registers ;size:1
                                           ;@delay_ms PMOD                      Allocated to registers ;size:1
                                           ;@delay_ms PWMCR3                    Allocated to registers ;size:1
                                           ;@delay_ms PWMCR2                    Allocated to registers ;size:1
                                           ;@delay_ms PFRCCR                    Allocated to registers ;size:1
                                           ;@delay_ms PFRCCAL                   Allocated to registers ;size:1
                                           ;@delay_ms EECR                      Allocated to registers ;size:1
                                           ;@delay_ms EEPR                      Allocated to registers ;size:1
                                           ;@delay_ms EEAR                      Allocated to registers ;size:1
                                           ;@delay_ms EEDRH                     Allocated to registers ;size:1
                                           ;@delay_ms EEDRL                     Allocated to registers ;size:1
                                           ;@delay_ms DBGCR                     Allocated to registers ;size:1
                                           ;@delay_ms DBGPR                     Allocated to registers ;size:1
                                           ;@delay_ms HIRCCAL                   Allocated to registers ;size:1
                                           ;@end Allocation info for local variables in function 'delay_ms';
                                           ;@Allocation info for local variables in function 'send_data_msb'
                                           ;@send_data_msb send_data                 Allocated to registers r0x1014 r0x1013 r0x1012 r0x1011 ;size:4
                                           ;@send_data_msb i                         Allocated to registers r0x1015 ;size:1
                                           ;@end Allocation info for local variables in function 'send_data_msb';
                                           ;@Allocation info for local variables in function 'CLR_RAM'
                                           ;@end Allocation info for local variables in function 'CLR_RAM';
                                           ;@Allocation info for local variables in function 'IO_Init'
                                           ;@end Allocation info for local variables in function 'IO_Init';
                                           ;@Allocation info for local variables in function 'adc_config'
                                           ;@end Allocation info for local variables in function 'adc_config';
                                           ;@Allocation info for local variables in function 'timer0_pwm_config'
                                           ;@end Allocation info for local variables in function 'timer0_pwm_config';
                                           ;@Allocation info for local variables in function 'timer3_config'
                                           ;@end Allocation info for local variables in function 'timer3_config';
                                           ;@Allocation info for local variables in function 'adc_sel_channel'
                                           ;@adc_sel_channel adc_channel               Allocated to registers r0x1011 ;size:1
                                           ;@adc_sel_channel last_adc_channel          Allocated to registers ;size:1
                                           ;@end Allocation info for local variables in function 'adc_sel_channel';
                                           ;@Allocation info for local variables in function 'adc_sel_channel'
                                           ;@adc_sel_channel adc_channel               Allocated to registers r0x1011 ;size:1
                                           ;@adc_sel_channel last_adc_channel          Allocated to registers ;size:1
                                           ;@end Allocation info for local variables in function 'adc_sel_channel';
                                           ;@Allocation info for local variables in function 'adc_get_val'
                                           ;@adc_get_val i                         Allocated to registers r0x102B ;size:1
                                           ;@adc_get_val g_temp_value              Allocated to registers r0x102C r0x102D ;size:2
                                           ;@adc_get_val g_tmpbuff                 Allocated to registers r0x1027 r0x1028 r0x102E r0x1030 ;size:4
                                           ;@adc_get_val g_adcmax                  Allocated to registers r0x1027 r0x1028 ;size:2
                                           ;@adc_get_val g_adcmin                  Allocated to registers r0x1029 r0x102A ;size:2
                                           ;@end Allocation info for local variables in function 'adc_get_val';
                                           ;@Allocation info for local variables in function 'adc_get_max_val'
                                           ;@adc_get_max_val i                         Allocated to registers r0x100D ;size:1
                                           ;@adc_get_max_val g_temp_value              Allocated to registers r0x100E r0x100F ;size:2
                                           ;@adc_get_max_val g_adcmax                  Allocated to registers r0x100B r0x100C ;size:2
                                           ;@end Allocation info for local variables in function 'adc_get_max_val';
                                           ;@Allocation info for local variables in function 'Sys_Init'
                                           ;@end Allocation info for local variables in function 'Sys_Init';
                                           ;@Allocation info for local variables in function 'is_in_charging'
                                           ;@is_in_charging ret                       Allocated to registers r0x1022 ;size:1
                                           ;@end Allocation info for local variables in function 'is_in_charging';
                                           ;@Allocation info for local variables in function 'is_open_lid'
                                           ;@is_open_lid ret                       Allocated to registers r0x1021 ;size:1
                                           ;@end Allocation info for local variables in function 'is_open_lid';
                                           ;@Allocation info for local variables in function 'is_detect_load'
                                           ;@is_detect_load max_adc_val               Allocated to registers r0x101F r0x1020 ;size:2
                                           ;@end Allocation info for local variables in function 'is_detect_load';
                                           ;@Allocation info for local variables in function 'stop_charging_the_host'
                                           ;@end Allocation info for local variables in function 'stop_charging_the_host';
                                           ;@Allocation info for local variables in function 'low_power_scan_handle'
                                           ;@end Allocation info for local variables in function 'low_power_scan_handle';
                                           ;@Allocation info for local variables in function 'main'
                                           ;@end Allocation info for local variables in function 'main';
                                           ;@Allocation info for local variables in function 'int_isr'
                                           ;@int_isr blink_cnt                 Allocated to registers ;size:2
                                           ;@end Allocation info for local variables in function 'int_isr';
                                           ;@Allocation info for local variables in function 'int_isr'
                                           ;@int_isr blink_cnt                 Allocated to registers ;size:2
                                           ;@end Allocation info for local variables in function 'int_isr';
                                           
                                           ;--------------------------------------------------------
                                           ; overlayable items in internal ram 
                                           ;--------------------------------------------------------
                                           ;	udata_ovr
                                           ;--------------------------------------------------------
                                           ; reset vector 
                                           ;--------------------------------------------------------
                                           STARTUP	code 0x0000
                                           	goto	_main
                                           ;--------------------------------------------------------
                                           ; interrupt and initialization code
                                           ;--------------------------------------------------------
                                           c_interrupt	code	0x8
                                           __sdcc_interrupt
                                           ;***
                                           ;  pBlock Stats: dbName = I
                                           ;***
                                           ;entry:  _int_isr	;Function start
                                           ; 0 exit points
                                           ;2 compiler assigned registers:
                                           ;   r0x1032
                                           ;   r0x1033
                                           ;; Starting pCode block
                                           _int_isr	;Function start
                                           ; 0 exit points
                                           ;	.line	655; "MC32F7361.c"	__endasm;
                                           	;
                                           	movra	_abuf;
                                           	swapar	_PFLAG;
                                           	movra	_statusbuf;
                                           	
                                           ;	.line	657; "MC32F7361.c"	if (KBIF & KBIE)
                                           	CLRR	r0x1032
                                           	JBCLR	_INTFbits,4
                                           	INCR	r0x1032
                                           	CLRR	r0x1033
                                           	JBCLR	_INTEbits,4
                                           	INCR	r0x1033
                                           	MOVAR	r0x1033
                                           	ANDRA	r0x1032
                                           	MOVAI	0x00
                                           	ORAR	r0x1032
                                           	JBCLR	PFLAG,2
                                           	GOTO	_00432_DS_
                                           ;	.line	659; "MC32F7361.c"	KBIF = 0;
                                           	BCLR	_INTFbits,4
                                           _00432_DS_
                                           ;	.line	662; "MC32F7361.c"	if (T3IF & T3IE)
                                           	CLRR	r0x1032
                                           	JBCLR	_INTFbits,7
                                           	INCR	r0x1032
                                           	CLRR	r0x1033
                                           	JBCLR	_INTEbits,7
                                           	INCR	r0x1033
                                           	MOVAR	r0x1033
                                           	ANDRA	r0x1032
                                           	MOVAI	0x00
                                           	ORAR	r0x1032
                                           	JBCLR	PFLAG,2
                                           	GOTO	_00455_DS_
                                           ;	.line	666; "MC32F7361.c"	if (CUR_STATUS_IN_CHARGING == cur_dev_status && flag_is_low_bat)
                                           	MOVAR	_cur_dev_status
                                           	XORAI	0x02
                                           	JBSET	PFLAG,2
                                           	GOTO	_00447_DS_
                                           	JBSET	_flag1,4
                                           	GOTO	_00447_DS_
                                           ;;unsigned compare: left < lit(0xFFFF=65535), size=2
                                           ;	.line	669; "MC32F7361.c"	if (blink_cnt < 65535)
                                           	MOVAI	0xff
                                           	RSUBAR	(_int_isr_blink_cnt_131072_96 + 1)
                                           	JBSET	PFLAG,2
                                           	GOTO	_00486_DS_
                                           	MOVAI	0xff
                                           	RSUBAR	_int_isr_blink_cnt_131072_96
                                           _00486_DS_
                                           	JBCLR	PFLAG,0
                                           	GOTO	_00434_DS_
                                           ;;genSkipc:3291: created from rifx:013B5EFC
                                           ;	.line	670; "MC32F7361.c"	blink_cnt++;
                                           	INCR	_int_isr_blink_cnt_131072_96
                                           	JBCLR	PFLAG,2
                                           	INCR	(_int_isr_blink_cnt_131072_96 + 1)
                                           ;;swapping arguments (AOP_TYPEs 1/3)
                                           ;;unsigned compare: left >= lit(0x1F5=501), size=2
                                           _00434_DS_
                                           ;	.line	672; "MC32F7361.c"	if (blink_cnt <= 500)
                                           	MOVAI	0x01
                                           	RSUBAR	(_int_isr_blink_cnt_131072_96 + 1)
                                           	JBSET	PFLAG,2
                                           	GOTO	_00487_DS_
                                           	MOVAI	0xf5
                                           	RSUBAR	_int_isr_blink_cnt_131072_96
                                           _00487_DS_
                                           	JBCLR	PFLAG,0
                                           	GOTO	_00445_DS_
                                           ;;genSkipc:3291: created from rifx:013B5EFC
                                           ;	.line	674; "MC32F7361.c"	LED_RED_ON();
                                           	BSET	_IOP1bits,7
                                           	GOTO	_00452_DS_
                                           ;;swapping arguments (AOP_TYPEs 1/3)
                                           ;;unsigned compare: left >= lit(0x3E9=1001), size=2
                                           _00445_DS_
                                           ;	.line	676; "MC32F7361.c"	else if (blink_cnt <= 1000)
                                           	MOVAI	0x03
                                           	RSUBAR	(_int_isr_blink_cnt_131072_96 + 1)
                                           	JBSET	PFLAG,2
                                           	GOTO	_00488_DS_
                                           	MOVAI	0xe9
                                           	RSUBAR	_int_isr_blink_cnt_131072_96
                                           _00488_DS_
                                           	JBCLR	PFLAG,0
                                           	GOTO	_00442_DS_
                                           ;;genSkipc:3291: created from rifx:013B5EFC
                                           ;	.line	678; "MC32F7361.c"	LED_RED_OFF();
                                           	BCLR	_IOP1bits,7
                                           	GOTO	_00452_DS_
                                           _00442_DS_
                                           ;	.line	682; "MC32F7361.c"	blink_cnt = 0;
                                           	CLRR	_int_isr_blink_cnt_131072_96
                                           	CLRR	(_int_isr_blink_cnt_131072_96 + 1)
                                           	GOTO	_00452_DS_
                                           _00447_DS_
                                           ;	.line	687; "MC32F7361.c"	LED_RED_OFF();
                                           	BCLR	_IOP1bits,7
                                           ;	.line	688; "MC32F7361.c"	blink_cnt = 0;
                                           	CLRR	_int_isr_blink_cnt_131072_96
                                           	CLRR	(_int_isr_blink_cnt_131072_96 + 1)
                                           _00452_DS_
                                           ;	.line	691; "MC32F7361.c"	T3IF = 0;
                                           	BCLR	_INTFbits,7
                                           _00455_DS_
                                           ;	.line	699; "MC32F7361.c"	__endasm;
                                           	;
                                           	swapar	_statusbuf;
                                           	movra	_PFLAG;
                                           	swapr	_abuf;
                                           	swapar	_abuf;
                                           	
                                           END_OF_INTERRUPT
                                           ;	.line	700; "MC32F7361.c"	}
                                           	RETIE	
                                           
                                           ;--------------------------------------------------------
                                           ; code
                                           ;--------------------------------------------------------
                                           code_MC32F7361	code
                                           ;***
                                           ;  pBlock Stats: dbName = M
                                           ;***
                                           ;entry:  _main	;Function start
                                           ; 2 exit points
                                           ;has an exit
                                           ;functions called:
                                           ;   _Sys_Init
                                           ;   _delay_ms
                                           ;   _adc_sel_channel
                                           ;   _adc_get_max_val
                                           ;   _send_data_msb
                                           ;   _Sys_Init
                                           ;   _delay_ms
                                           ;   _adc_sel_channel
                                           ;   _adc_get_max_val
                                           ;   _send_data_msb
                                           ;7 compiler assigned registers:
                                           ;   STK00
                                           ;   r0x101B
                                           ;   r0x101C
                                           ;   r0x101D
                                           ;   r0x101E
                                           ;   STK02
                                           ;   STK01
                                           ;; Starting pCode block
                                           _main	;Function start
                                           ; 2 exit points
                                           ;	.line	469; "MC32F7361.c"	Sys_Init();
                                           	CALL	_Sys_Init
                                           ;	.line	470; "MC32F7361.c"	delay_ms(10);
                                           	MOVAI	0x0a
                                           	MOVRA	STK00
                                           	MOVAI	0x00
                                           	CALL	_delay_ms
                                           ;	.line	473; "MC32F7361.c"	PWM_ENABEL(); // 
                                           	BSET	_T0CRbits,6
                                           	BSET	_T0CRbits,7
                                           _00402_DS_
                                           ;	.line	478; "MC32F7361.c"	adc_sel_channel(ADC_CHANNEL_LOAD);
                                           	MOVAI	0x02
                                           	CALL	_adc_sel_channel
                                           ;	.line	479; "MC32F7361.c"	tmp_val = 0;
                                           	CLRR	_tmp_val
                                           	CLRR	(_tmp_val + 1)
                                           ;	.line	480; "MC32F7361.c"	for (i = 0; i < 100; i++)
                                           	CLRR	_i
                                           ;;unsigned compare: left < lit(0x64=100), size=1
                                           _00405_DS_
                                           	MOVAI	0x64
                                           	RSUBAR	_i
                                           	JBCLR	PFLAG,0
                                           	GOTO	_00402_DS_
                                           ;;genSkipc:3291: created from rifx:013B5EFC
                                           ;	.line	482; "MC32F7361.c"	adc_val = adc_get_max_val();
                                           	CALL	_adc_get_max_val
                                           	MOVRA	(_adc_val + 1)
                                           	MOVAR	STK00
                                           	MOVRA	_adc_val
                                           ;	.line	483; "MC32F7361.c"	if (adc_val > tmp_val)
                                           	MOVAR	(_adc_val + 1)
                                           	RSUBAR	(_tmp_val + 1)
                                           	JBSET	PFLAG,2
                                           	GOTO	_00426_DS_
                                           	MOVAR	_adc_val
                                           	RSUBAR	_tmp_val
                                           _00426_DS_
                                           	JBCLR	PFLAG,0
                                           	GOTO	_00406_DS_
                                           ;;genSkipc:3291: created from rifx:013B5EFC
                                           ;	.line	485; "MC32F7361.c"	tmp_val = adc_val;
                                           	MOVAR	_adc_val
                                           	MOVRA	_tmp_val
                                           	MOVAR	(_adc_val + 1)
                                           	MOVRA	(_tmp_val + 1)
                                           ;	.line	486; "MC32F7361.c"	send_data_msb(tmp_val);
                                           	MOVAR	_tmp_val
                                           	MOVRA	r0x101B
                                           	MOVAR	(_tmp_val + 1)
                                           	MOVRA	r0x101C
                                           ;;1	CLRR	r0x101D
                                           ;;1	CLRR	r0x101E
                                           	MOVAR	r0x101B
                                           	MOVRA	STK02
                                           	MOVAR	r0x101C
                                           	MOVRA	STK01
                                           	MOVAI	0x00
                                           	MOVRA	STK00
                                           	MOVAI	0x00
                                           	CALL	_send_data_msb
                                           _00406_DS_
                                           ;	.line	480; "MC32F7361.c"	for (i = 0; i < 100; i++)
                                           	INCR	_i
                                           	GOTO	_00405_DS_
                                           ;	.line	642; "MC32F7361.c"	}
                                           	RETURN	
                                           ; exit point of _main
                                           
                                           ;***
                                           ;  pBlock Stats: dbName = C
                                           ;***
                                           ;entry:  _low_power_scan_handle	;Function start
                                           ; 2 exit points
                                           ;has an exit
                                           ;functions called:
                                           ;   _Sys_Init
                                           ;   _delay_ms
                                           ;   _Sys_Init
                                           ;   _delay_ms
                                           ;1 compiler assigned register :
                                           ;   STK00
                                           ;; Starting pCode block
                                           _low_power_scan_handle	;Function start
                                           ; 2 exit points
                                           ;	.line	383; "MC32F7361.c"	if (CUR_STATUS_NONE == cur_dev_status)
                                           	MOVAI	0x00
                                           	ORAR	_cur_dev_status
                                           	JBSET	PFLAG,2
                                           	GOTO	_00390_DS_
                                           ;	.line	387; "MC32F7361.c"	GIE = 0; // 
                                           	BCLR	_MCRbits,7
                                           ;	.line	388; "MC32F7361.c"	LED_GREEN_OFF();
                                           	BCLR	_IOP0bits,0
                                           ;	.line	389; "MC32F7361.c"	LED_RED_OFF();
                                           	BCLR	_IOP1bits,7
                                           ;	.line	390; "MC32F7361.c"	PWM_DISABEL();
                                           	BCLR	_T0CRbits,6
                                           	BCLR	_T0CRbits,7
                                           ;	.line	392; "MC32F7361.c"	P00OE = 0;
                                           	BCLR	_OEP0bits,0
                                           ;	.line	393; "MC32F7361.c"	P17OE = 0;
                                           	BCLR	_OEP1bits,7
                                           ;	.line	395; "MC32F7361.c"	P16D = 0;
                                           	BCLR	_IOP1bits,6
                                           ;	.line	397; "MC32F7361.c"	T3EN = 0;
                                           	BCLR	_T3CRbits,7
                                           ;	.line	398; "MC32F7361.c"	T3IE = 0;
                                           	BCLR	_INTEbits,7
                                           ;	.line	402; "MC32F7361.c"	P11OE = 0; // 
                                           	BCLR	_OEP1bits,1
                                           ;	.line	403; "MC32F7361.c"	P11DC = 0; // 
                                           	BCLR	_P1ADCRbits,1
                                           ;	.line	409; "MC32F7361.c"	ADEN = 0;
                                           	BCLR	_ADCR0bits,0
                                           ;	.line	411; "MC32F7361.c"	P13KE = 1;
                                           	BSET	_P1KBCRbits,3
                                           ;	.line	414; "MC32F7361.c"	P03KE = 1;
                                           	BSET	_P0KBCRbits,3
                                           ;	.line	418; "MC32F7361.c"	KBIF = 0;
                                           	BCLR	_INTFbits,4
                                           ;	.line	419; "MC32F7361.c"	KBIE = 1;
                                           	BSET	_INTEbits,4
                                           ;	.line	420; "MC32F7361.c"	HFEN = 0; // 
                                           	BCLR	_OSCMRbits,0
                                           ;	.line	421; "MC32F7361.c"	LFEN = 1;
                                           	BSET	_OSCMRbits,1
                                           ;	.line	423; "MC32F7361.c"	Nop();
                                           	nop	
                                           ;	.line	424; "MC32F7361.c"	Nop();
                                           	nop	
                                           ;	.line	425; "MC32F7361.c"	Stop();
                                           	stop	
                                           ;	.line	426; "MC32F7361.c"	Nop();
                                           	nop	
                                           ;	.line	427; "MC32F7361.c"	Nop();
                                           	nop	
                                           ;	.line	428; "MC32F7361.c"	HFEN = 1; // 
                                           	BSET	_OSCMRbits,0
                                           ;	.line	430; "MC32F7361.c"	P03KE = 0;
                                           	BCLR	_P0KBCRbits,3
                                           ;	.line	434; "MC32F7361.c"	P13KE = 0; // 
                                           	BCLR	_P1KBCRbits,3
                                           ;	.line	435; "MC32F7361.c"	KBIE = 0;
                                           	BCLR	_INTEbits,4
                                           ;	.line	436; "MC32F7361.c"	KBIF = 0;
                                           	BCLR	_INTFbits,4
                                           ;	.line	455; "MC32F7361.c"	Sys_Init();
                                           	CALL	_Sys_Init
                                           ;	.line	456; "MC32F7361.c"	delay_ms(1);
                                           	MOVAI	0x01
                                           	MOVRA	STK00
                                           	MOVAI	0x00
                                           	CALL	_delay_ms
                                           ;	.line	457; "MC32F7361.c"	GIE = 1;
                                           	BSET	_MCRbits,7
                                           _00390_DS_
                                           ;	.line	459; "MC32F7361.c"	}
                                           	RETURN	
                                           ; exit point of _low_power_scan_handle
                                           
                                           ;***
                                           ;  pBlock Stats: dbName = C
                                           ;***
                                           ;entry:  _stop_charging_the_host	;Function start
                                           ; 2 exit points
                                           ;has an exit
                                           ;; Starting pCode block
                                           _stop_charging_the_host	;Function start
                                           ; 2 exit points
                                           ;	.line	377; "MC32F7361.c"	LED_GREEN_OFF();
                                           	BCLR	_IOP0bits,0
                                           ;	.line	378; "MC32F7361.c"	PWM_DISABEL(); // pwm
                                           	BCLR	_T0CRbits,6
                                           	BCLR	_T0CRbits,7
                                           ;	.line	379; "MC32F7361.c"	}
                                           	RETURN	
                                           ; exit point of _stop_charging_the_host
                                           
                                           ;***
                                           ;  pBlock Stats: dbName = C
                                           ;***
                                           ;entry:  _is_detect_load	;Function start
                                           ; 2 exit points
                                           ;has an exit
                                           ;functions called:
                                           ;   _adc_sel_channel
                                           ;   _adc_get_max_val
                                           ;   _adc_sel_channel
                                           ;   _adc_get_max_val
                                           ;3 compiler assigned registers:
                                           ;   r0x101F
                                           ;   r0x1020
                                           ;   STK00
                                           ;; Starting pCode block
                                           _is_detect_load	;Function start
                                           ; 2 exit points
                                           ;	.line	351; "MC32F7361.c"	u16 max_adc_val = 0;
                                           	CLRR	r0x101F
                                           	CLRR	r0x1020
                                           ;	.line	352; "MC32F7361.c"	adc_sel_channel(ADC_CHANNEL_LOAD);
                                           	MOVAI	0x02
                                           	CALL	_adc_sel_channel
                                           ;	.line	353; "MC32F7361.c"	for (i = 0; i < 100; i++)
                                           	CLRR	_i
                                           ;;unsigned compare: left < lit(0x64=100), size=1
                                           _00347_DS_
                                           	MOVAI	0x64
                                           	RSUBAR	_i
                                           	JBCLR	PFLAG,0
                                           	GOTO	_00342_DS_
                                           ;;genSkipc:3291: created from rifx:013B5EFC
                                           ;	.line	355; "MC32F7361.c"	adc_val = adc_get_max_val();
                                           	CALL	_adc_get_max_val
                                           	MOVRA	(_adc_val + 1)
                                           	MOVAR	STK00
                                           	MOVRA	_adc_val
                                           ;	.line	356; "MC32F7361.c"	if (adc_val > max_adc_val)
                                           	MOVAR	(_adc_val + 1)
                                           	RSUBAR	r0x1020
                                           	JBSET	PFLAG,2
                                           	GOTO	_00368_DS_
                                           	MOVAR	_adc_val
                                           	RSUBAR	r0x101F
                                           _00368_DS_
                                           	JBCLR	PFLAG,0
                                           	GOTO	_00348_DS_
                                           ;;genSkipc:3291: created from rifx:013B5EFC
                                           ;	.line	358; "MC32F7361.c"	max_adc_val = adc_val;
                                           	MOVAR	_adc_val
                                           	MOVRA	r0x101F
                                           	MOVAR	(_adc_val + 1)
                                           	MOVRA	r0x1020
                                           _00348_DS_
                                           ;	.line	353; "MC32F7361.c"	for (i = 0; i < 100; i++)
                                           	INCR	_i
                                           	GOTO	_00347_DS_
                                           ;;swapping arguments (AOP_TYPEs 1/2)
                                           ;;unsigned compare: left >= lit(0x9A7=2471), size=2
                                           _00342_DS_
                                           ;	.line	362; "MC32F7361.c"	if (max_adc_val > ADC_VAL_LOAD_THRESHOLD)
                                           	MOVAI	0x09
                                           	RSUBAR	r0x1020
                                           	JBSET	PFLAG,2
                                           	GOTO	_00369_DS_
                                           	MOVAI	0xa7
                                           	RSUBAR	r0x101F
                                           _00369_DS_
                                           	JBSET	PFLAG,0
                                           	GOTO	_00344_DS_
                                           ;;genSkipc:3291: created from rifx:013B5EFC
                                           ;	.line	365; "MC32F7361.c"	return 0;
                                           	MOVAI	0x00
                                           	GOTO	_00349_DS_
                                           _00344_DS_
                                           ;	.line	370; "MC32F7361.c"	return 1;
                                           	MOVAI	0x01
                                           _00349_DS_
                                           ;	.line	372; "MC32F7361.c"	}
                                           	RETURN	
                                           ; exit point of _is_detect_load
                                           
                                           ;***
                                           ;  pBlock Stats: dbName = C
                                           ;***
                                           ;entry:  _is_open_lid	;Function start
                                           ; 2 exit points
                                           ;has an exit
                                           ;functions called:
                                           ;   _delay_ms
                                           ;   _delay_ms
                                           ;   _delay_ms
                                           ;   _delay_ms
                                           ;2 compiler assigned registers:
                                           ;   r0x1021
                                           ;   STK00
                                           ;; Starting pCode block
                                           _is_open_lid	;Function start
                                           ; 2 exit points
                                           ;	.line	305; "MC32F7361.c"	u8 ret = 0;
                                           	CLRR	r0x1021
                                           ;	.line	307; "MC32F7361.c"	if (P13D) // 
                                           	JBSET	_IOP1bits,3
                                           	GOTO	_00329_DS_
                                           ;	.line	309; "MC32F7361.c"	cnt = 0;
                                           	CLRR	_cnt
                                           ;	.line	310; "MC32F7361.c"	for (i = 0; i < 200; i++)
                                           	CLRR	_i
                                           ;;unsigned compare: left < lit(0xC8=200), size=1
                                           _00332_DS_
                                           	MOVAI	0xc8
                                           	RSUBAR	_i
                                           	JBCLR	PFLAG,0
                                           	GOTO	_00320_DS_
                                           ;;genSkipc:3291: created from rifx:013B5EFC
                                           ;	.line	312; "MC32F7361.c"	if (P13D)
                                           	JBSET	_IOP1bits,3
                                           	GOTO	_00319_DS_
                                           ;	.line	314; "MC32F7361.c"	cnt++;
                                           	INCR	_cnt
                                           _00319_DS_
                                           ;	.line	317; "MC32F7361.c"	delay_ms(1);
                                           	MOVAI	0x01
                                           	MOVRA	STK00
                                           	MOVAI	0x00
                                           	CALL	_delay_ms
                                           ;	.line	310; "MC32F7361.c"	for (i = 0; i < 200; i++)
                                           	INCR	_i
                                           	GOTO	_00332_DS_
                                           ;;unsigned compare: left < lit(0xC8=200), size=1
                                           _00320_DS_
                                           ;	.line	320; "MC32F7361.c"	if (cnt >= 200)
                                           	MOVAI	0xc8
                                           	RSUBAR	_cnt
                                           	JBSET	PFLAG,0
                                           	GOTO	_00330_DS_
                                           ;;genSkipc:3291: created from rifx:013B5EFC
                                           ;	.line	322; "MC32F7361.c"	ret = 1;
                                           	MOVAI	0x01
                                           	MOVRA	r0x1021
                                           	GOTO	_00330_DS_
                                           _00329_DS_
                                           ;	.line	327; "MC32F7361.c"	cnt = 0;
                                           	CLRR	_cnt
                                           ;	.line	328; "MC32F7361.c"	for (i = 0; i < 200; i++)
                                           	CLRR	_i
                                           ;;unsigned compare: left < lit(0xC8=200), size=1
                                           _00335_DS_
                                           	MOVAI	0xc8
                                           	RSUBAR	_i
                                           	JBCLR	PFLAG,0
                                           	GOTO	_00325_DS_
                                           ;;genSkipc:3291: created from rifx:013B5EFC
                                           ;	.line	330; "MC32F7361.c"	if (0 == P13D)
                                           	JBCLR	_IOP1bits,3
                                           	GOTO	_00324_DS_
                                           ;	.line	332; "MC32F7361.c"	cnt++;
                                           	INCR	_cnt
                                           _00324_DS_
                                           ;	.line	335; "MC32F7361.c"	delay_ms(1);
                                           	MOVAI	0x01
                                           	MOVRA	STK00
                                           	MOVAI	0x00
                                           	CALL	_delay_ms
                                           ;	.line	328; "MC32F7361.c"	for (i = 0; i < 200; i++)
                                           	INCR	_i
                                           	GOTO	_00335_DS_
                                           ;;unsigned compare: left < lit(0xC8=200), size=1
                                           _00325_DS_
                                           ;	.line	338; "MC32F7361.c"	if (cnt >= 200)
                                           	MOVAI	0xc8
                                           	RSUBAR	_cnt
                                           	JBSET	PFLAG,0
                                           	GOTO	_00330_DS_
                                           ;;genSkipc:3291: created from rifx:013B5EFC
                                           ;	.line	340; "MC32F7361.c"	ret = 0;
                                           	CLRR	r0x1021
                                           _00330_DS_
                                           ;	.line	344; "MC32F7361.c"	return ret;
                                           	MOVAR	r0x1021
                                           ;	.line	345; "MC32F7361.c"	}
                                           	RETURN	
                                           ; exit point of _is_open_lid
                                           
                                           ;***
                                           ;  pBlock Stats: dbName = C
                                           ;***
                                           ;entry:  _is_in_charging	;Function start
                                           ; 2 exit points
                                           ;has an exit
                                           ;functions called:
                                           ;   _delay_ms
                                           ;   _delay_ms
                                           ;   _delay_ms
                                           ;   _delay_ms
                                           ;2 compiler assigned registers:
                                           ;   r0x1022
                                           ;   STK00
                                           ;; Starting pCode block
                                           _is_in_charging	;Function start
                                           ; 2 exit points
                                           ;	.line	254; "MC32F7361.c"	u8 ret = 0;
                                           	CLRR	r0x1022
                                           ;	.line	261; "MC32F7361.c"	if (CHARGE_PIN)
                                           	JBSET	_IOP0bits,3
                                           	GOTO	_00307_DS_
                                           ;	.line	263; "MC32F7361.c"	cnt = 0;
                                           	CLRR	_cnt
                                           ;	.line	264; "MC32F7361.c"	for (i = 0; i < 200; i++)
                                           	CLRR	_i
                                           ;;unsigned compare: left < lit(0xC8=200), size=1
                                           _00310_DS_
                                           	MOVAI	0xc8
                                           	RSUBAR	_i
                                           	JBCLR	PFLAG,0
                                           	GOTO	_00298_DS_
                                           ;;genSkipc:3291: created from rifx:013B5EFC
                                           ;	.line	266; "MC32F7361.c"	if (CHARGE_PIN)
                                           	JBSET	_IOP0bits,3
                                           	GOTO	_00297_DS_
                                           ;	.line	268; "MC32F7361.c"	cnt++;
                                           	INCR	_cnt
                                           _00297_DS_
                                           ;	.line	271; "MC32F7361.c"	delay_ms(1);
                                           	MOVAI	0x01
                                           	MOVRA	STK00
                                           	MOVAI	0x00
                                           	CALL	_delay_ms
                                           ;	.line	264; "MC32F7361.c"	for (i = 0; i < 200; i++)
                                           	INCR	_i
                                           	GOTO	_00310_DS_
                                           ;;unsigned compare: left < lit(0xB4=180), size=1
                                           _00298_DS_
                                           ;	.line	274; "MC32F7361.c"	if (cnt >= 180)
                                           	MOVAI	0xb4
                                           	RSUBAR	_cnt
                                           	JBSET	PFLAG,0
                                           	GOTO	_00308_DS_
                                           ;;genSkipc:3291: created from rifx:013B5EFC
                                           ;	.line	277; "MC32F7361.c"	ret = 1;
                                           	MOVAI	0x01
                                           	MOVRA	r0x1022
                                           	GOTO	_00308_DS_
                                           _00307_DS_
                                           ;	.line	282; "MC32F7361.c"	cnt = 0;
                                           	CLRR	_cnt
                                           ;	.line	283; "MC32F7361.c"	for (i = 0; i < 200; i++)
                                           	CLRR	_i
                                           ;;unsigned compare: left < lit(0xC8=200), size=1
                                           _00313_DS_
                                           	MOVAI	0xc8
                                           	RSUBAR	_i
                                           	JBCLR	PFLAG,0
                                           	GOTO	_00303_DS_
                                           ;;genSkipc:3291: created from rifx:013B5EFC
                                           ;	.line	285; "MC32F7361.c"	if (0 == CHARGE_PIN)
                                           	JBCLR	_IOP0bits,3
                                           	GOTO	_00302_DS_
                                           ;	.line	287; "MC32F7361.c"	cnt++;
                                           	INCR	_cnt
                                           _00302_DS_
                                           ;	.line	290; "MC32F7361.c"	delay_ms(1);
                                           	MOVAI	0x01
                                           	MOVRA	STK00
                                           	MOVAI	0x00
                                           	CALL	_delay_ms
                                           ;	.line	283; "MC32F7361.c"	for (i = 0; i < 200; i++)
                                           	INCR	_i
                                           	GOTO	_00313_DS_
                                           ;;unsigned compare: left < lit(0xB4=180), size=1
                                           _00303_DS_
                                           ;	.line	293; "MC32F7361.c"	if (cnt >= 180)
                                           	MOVAI	0xb4
                                           	RSUBAR	_cnt
                                           	JBSET	PFLAG,0
                                           	GOTO	_00308_DS_
                                           ;;genSkipc:3291: created from rifx:013B5EFC
                                           ;	.line	296; "MC32F7361.c"	ret = 0;
                                           	CLRR	r0x1022
                                           _00308_DS_
                                           ;	.line	300; "MC32F7361.c"	return ret;
                                           	MOVAR	r0x1022
                                           ;	.line	301; "MC32F7361.c"	}
                                           	RETURN	
                                           ; exit point of _is_in_charging
                                           
                                           ;***
                                           ;  pBlock Stats: dbName = C
                                           ;***
                                           ;entry:  _Sys_Init	;Function start
                                           ; 2 exit points
                                           ;has an exit
                                           ;functions called:
                                           ;   _CLR_RAM
                                           ;   _IO_Init
                                           ;   _timer0_pwm_config
                                           ;   _timer3_config
                                           ;   _adc_config
                                           ;   _CLR_RAM
                                           ;   _IO_Init
                                           ;   _timer0_pwm_config
                                           ;   _timer3_config
                                           ;   _adc_config
                                           ;; Starting pCode block
                                           _Sys_Init	;Function start
                                           ; 2 exit points
                                           ;	.line	225; "MC32F7361.c"	GIE = 0;
                                           	BCLR	_MCRbits,7
                                           ;	.line	226; "MC32F7361.c"	CLR_RAM();
                                           	CALL	_CLR_RAM
                                           ;	.line	227; "MC32F7361.c"	IO_Init();
                                           	CALL	_IO_Init
                                           ;	.line	229; "MC32F7361.c"	timer0_pwm_config();
                                           	CALL	_timer0_pwm_config
                                           ;	.line	230; "MC32F7361.c"	timer3_config();
                                           	CALL	_timer3_config
                                           ;	.line	231; "MC32F7361.c"	adc_config();
                                           	CALL	_adc_config
                                           ;	.line	236; "MC32F7361.c"	P03OE = 0; // 
                                           	BCLR	_OEP0bits,3
                                           ;	.line	245; "MC32F7361.c"	P13OE = 0; // 
                                           	BCLR	_OEP1bits,3
                                           ;	.line	248; "MC32F7361.c"	GIE = 1;
                                           	BSET	_MCRbits,7
                                           ;	.line	249; "MC32F7361.c"	}
                                           	RETURN	
                                           ; exit point of _Sys_Init
                                           
                                           ;***
                                           ;  pBlock Stats: dbName = C
                                           ;***
                                           ;entry:  _adc_get_max_val	;Function start
                                           ; 2 exit points
                                           ;has an exit
                                           ;10 compiler assigned registers:
                                           ;   r0x100B
                                           ;   r0x100C
                                           ;   r0x100D
                                           ;   r0x100E
                                           ;   r0x100F
                                           ;   r0x1010
                                           ;   r0x1011
                                           ;   r0x1012
                                           ;   r0x1013
                                           ;   STK00
                                           ;; Starting pCode block
                                           _adc_get_max_val	;Function start
                                           ; 2 exit points
                                           ;	.line	187; "MC32F7361.c"	u16 g_adcmax = 0;
                                           	CLRR	r0x100B
                                           	CLRR	r0x100C
                                           ;	.line	190; "MC32F7361.c"	for (i = 0; i < 40; i++)
                                           	CLRR	r0x100D
                                           _00257_DS_
                                           ;	.line	192; "MC32F7361.c"	ADEOC = 0; // ADCAD
                                           	BCLR	_ADCR0bits,1
                                           _00251_DS_
                                           ;	.line	193; "MC32F7361.c"	while (!ADEOC)
                                           	JBSET	_ADCR0bits,1
                                           	GOTO	_00251_DS_
                                           ;	.line	195; "MC32F7361.c"	g_temp_value = ADRH; // 
                                           	MOVAR	_ADRH
                                           	MOVRA	r0x100E
                                           	CLRR	r0x100F
                                           ;	.line	196; "MC32F7361.c"	g_temp_value = g_temp_value << 4 | (ADRL & 0x0F);
                                           	SWAPAR	r0x100F
                                           	ANDAI	0xf0
                                           	MOVRA	r0x1010
                                           	SWAPAR	r0x100E
                                           	MOVRA	r0x1011
                                           	ANDAI	0x0f
                                           	ORRA	r0x1010
                                           	XORRA	r0x1011
                                           	MOVAR	_ADRL
                                           	MOVRA	r0x100E
                                           	CLRR	r0x100F
                                           	MOVAI	0x0f
                                           	ANDRA	r0x100E
                                           	CLRR	r0x100F
                                           ;;101	MOVAR	r0x100E
                                           ;;99	MOVRA	r0x1012
                                           ;;104	MOVAR	r0x100F
                                           ;;102	MOVRA	r0x1013
                                           ;;100	MOVAR	r0x1012
                                           	MOVAR	r0x100E
                                           	ORAR	r0x1011
                                           	MOVRA	r0x100E
                                           ;;103	MOVAR	r0x1013
                                           	MOVAI	0x00
                                           	ORAR	r0x1010
                                           	MOVRA	r0x100F
                                           ;	.line	198; "MC32F7361.c"	if (g_temp_value > g_adcmax)
                                           	MOVAR	r0x100F
                                           	RSUBAR	r0x100C
                                           	JBSET	PFLAG,2
                                           	GOTO	_00287_DS_
                                           	MOVAR	r0x100E
                                           	RSUBAR	r0x100B
                                           _00287_DS_
                                           	JBCLR	PFLAG,0
                                           	GOTO	_00258_DS_
                                           ;;genSkipc:3291: created from rifx:013B5EFC
                                           ;	.line	199; "MC32F7361.c"	g_adcmax = g_temp_value; // 
                                           	MOVAR	r0x100E
                                           	MOVRA	r0x100B
                                           	MOVAR	r0x100F
                                           	MOVRA	r0x100C
                                           _00258_DS_
                                           ;	.line	190; "MC32F7361.c"	for (i = 0; i < 40; i++)
                                           	INCR	r0x100D
                                           ;;unsigned compare: left < lit(0x28=40), size=1
                                           	MOVAI	0x28
                                           	RSUBAR	r0x100D
                                           	JBSET	PFLAG,0
                                           	GOTO	_00257_DS_
                                           ;;genSkipc:3291: created from rifx:013B5EFC
                                           ;	.line	202; "MC32F7361.c"	return g_adcmax;
                                           	MOVAR	r0x100B
                                           	MOVRA	STK00
                                           	MOVAR	r0x100C
                                           ;	.line	203; "MC32F7361.c"	}
                                           	RETURN	
                                           ; exit point of _adc_get_max_val
                                           
                                           ;***
                                           ;  pBlock Stats: dbName = C
                                           ;***
                                           ;entry:  _adc_get_val	;Function start
                                           ; 2 exit points
                                           ;has an exit
                                           ;16 compiler assigned registers:
                                           ;   r0x1023
                                           ;   r0x1024
                                           ;   r0x1025
                                           ;   r0x1026
                                           ;   r0x1027
                                           ;   r0x1028
                                           ;   r0x1029
                                           ;   r0x102A
                                           ;   r0x102B
                                           ;   r0x102C
                                           ;   r0x102D
                                           ;   r0x102E
                                           ;   r0x102F
                                           ;   r0x1030
                                           ;   r0x1031
                                           ;   STK00
                                           ;; Starting pCode block
                                           _adc_get_val	;Function start
                                           ; 2 exit points
                                           ;	.line	155; "MC32F7361.c"	u32 g_tmpbuff = 0;
                                           	CLRR	r0x1023
                                           	CLRR	r0x1024
                                           	CLRR	r0x1025
                                           	CLRR	r0x1026
                                           ;	.line	156; "MC32F7361.c"	u16 g_adcmax = 0;
                                           	CLRR	r0x1027
                                           	CLRR	r0x1028
                                           ;	.line	157; "MC32F7361.c"	u16 g_adcmin = 0xFFFF;
                                           	MOVAI	0xff
                                           	MOVRA	r0x1029
                                           	MOVRA	r0x102A
                                           ;	.line	160; "MC32F7361.c"	for (i = 0; i < 20; i++)
                                           	CLRR	r0x102B
                                           _00205_DS_
                                           ;	.line	162; "MC32F7361.c"	ADEOC = 0; // ADCAD
                                           	BCLR	_ADCR0bits,1
                                           _00194_DS_
                                           ;	.line	163; "MC32F7361.c"	while (!ADEOC)
                                           	JBSET	_ADCR0bits,1
                                           	GOTO	_00194_DS_
                                           ;	.line	165; "MC32F7361.c"	g_temp_value = ADRH; // 
                                           	MOVAR	_ADRH
                                           	MOVRA	r0x102C
                                           	CLRR	r0x102D
                                           ;	.line	166; "MC32F7361.c"	g_temp_value = g_temp_value << 4 | (ADRL & 0x0F);
                                           	SWAPAR	r0x102D
                                           	ANDAI	0xf0
                                           	MOVRA	r0x102E
                                           	SWAPAR	r0x102C
                                           	MOVRA	r0x102F
                                           	ANDAI	0x0f
                                           	ORRA	r0x102E
                                           	XORRA	r0x102F
                                           	MOVAR	_ADRL
                                           	MOVRA	r0x102C
                                           	CLRR	r0x102D
                                           	MOVAI	0x0f
                                           	ANDRA	r0x102C
                                           	CLRR	r0x102D
                                           ;;120	MOVAR	r0x102C
                                           	MOVAI	0x00
                                           	MOVRA	r0x1031
                                           ;;119	MOVAR	r0x1030
                                           	MOVAR	r0x102C
                                           	MOVRA	r0x1030
                                           	ORAR	r0x102F
                                           	MOVRA	r0x102C
                                           	MOVAR	r0x1031
                                           	ORAR	r0x102E
                                           	MOVRA	r0x102D
                                           ;;unsigned compare: left < lit(0x2=2), size=1
                                           ;	.line	167; "MC32F7361.c"	if (i < 2)
                                           	MOVAI	0x02
                                           	RSUBAR	r0x102B
                                           	JBSET	PFLAG,0
                                           	GOTO	_00203_DS_
                                           ;;genSkipc:3291: created from rifx:013B5EFC
                                           ;	.line	169; "MC32F7361.c"	if (g_temp_value > g_adcmax)
                                           	MOVAR	r0x102D
                                           	RSUBAR	r0x1028
                                           	JBSET	PFLAG,2
                                           	GOTO	_00245_DS_
                                           	MOVAR	r0x102C
                                           	RSUBAR	r0x1027
                                           _00245_DS_
                                           	JBCLR	PFLAG,0
                                           	GOTO	_00200_DS_
                                           ;;genSkipc:3291: created from rifx:013B5EFC
                                           ;	.line	170; "MC32F7361.c"	g_adcmax = g_temp_value; // 
                                           	MOVAR	r0x102C
                                           	MOVRA	r0x1027
                                           	MOVAR	r0x102D
                                           	MOVRA	r0x1028
                                           _00200_DS_
                                           ;	.line	171; "MC32F7361.c"	if (g_temp_value < g_adcmin)
                                           	MOVAR	r0x102A
                                           	RSUBAR	r0x102D
                                           	JBSET	PFLAG,2
                                           	GOTO	_00246_DS_
                                           	MOVAR	r0x1029
                                           	RSUBAR	r0x102C
                                           _00246_DS_
                                           	JBCLR	PFLAG,0
                                           	GOTO	_00202_DS_
                                           ;;genSkipc:3291: created from rifx:013B5EFC
                                           ;	.line	172; "MC32F7361.c"	g_adcmin = g_temp_value; // 
                                           	MOVAR	r0x102C
                                           	MOVRA	r0x1029
                                           	MOVAR	r0x102D
                                           	MOVRA	r0x102A
                                           ;;116	MOVAR	r0x102C
                                           ;;118	MOVAR	r0x102D
                                           _00202_DS_
                                           ;	.line	173; "MC32F7361.c"	g_tmpbuff += g_temp_value;
                                           	CLRR	r0x1030
                                           	CLRR	r0x1031
                                           ;;115	MOVAR	r0x102F
                                           	MOVAR	r0x102C
                                           	MOVRA	r0x102F
                                           	ADDRA	r0x1023
                                           ;;117	MOVAR	r0x102E
                                           	MOVAR	r0x102D
                                           	MOVRA	r0x102E
                                           	JBCLR	PFLAG,0
                                           	JZAR	r0x102E
                                           	ADDRA	r0x1024
                                           	MOVAR	r0x1030
                                           	JBCLR	PFLAG,0
                                           	JZAR	r0x1030
                                           	ADDRA	r0x1025
                                           	MOVAR	r0x1031
                                           	JBCLR	PFLAG,0
                                           	JZAR	r0x1031
                                           	ADDRA	r0x1026
                                           _00203_DS_
                                           ;	.line	160; "MC32F7361.c"	for (i = 0; i < 20; i++)
                                           	INCR	r0x102B
                                           ;;unsigned compare: left < lit(0x14=20), size=1
                                           	MOVAI	0x14
                                           	RSUBAR	r0x102B
                                           	JBSET	PFLAG,0
                                           	GOTO	_00205_DS_
                                           ;;genSkipc:3291: created from rifx:013B5EFC
                                           ;;114	MOVAR	r0x1027
                                           ;	.line	175; "MC32F7361.c"	g_tmpbuff -= g_adcmax;           // 
                                           	MOVAR	r0x1028
                                           	MOVRA	r0x102C
                                           	CLRR	r0x102D
                                           	CLRR	r0x102F
                                           ;;113	MOVAR	r0x102B
                                           	MOVAR	r0x1027
                                           	MOVRA	r0x102B
                                           	RSUBAR	r0x1023
                                           	MOVRA	r0x1027
                                           	MOVAR	r0x1024
                                           	MOVRA	r0x1028
                                           	MOVAR	r0x102C
                                           	JBSET	PFLAG,0
                                           	JZAR	r0x102C
                                           	RSUBRA	r0x1028
                                           	MOVAR	r0x1025
                                           	MOVRA	r0x102E
                                           	MOVAR	r0x102D
                                           	JBSET	PFLAG,0
                                           	JZAR	r0x102D
                                           	RSUBRA	r0x102E
                                           	MOVAR	r0x102F
                                           	JBSET	PFLAG,0
                                           	INCAR	r0x102F
                                           	RSUBAR	r0x1026
                                           	MOVRA	r0x1030
                                           ;;106	MOVAR	r0x1029
                                           ;;108	MOVAR	r0x102A
                                           ;	.line	176; "MC32F7361.c"	g_tmpbuff -= g_adcmin;           // 
                                           	CLRR	r0x1025
                                           	CLRR	r0x1026
                                           ;;105	MOVAR	r0x1023
                                           	MOVAR	r0x1029
                                           	MOVRA	r0x1023
                                           	RSUBRA	r0x1027
                                           ;;107	MOVAR	r0x1024
                                           	MOVAR	r0x102A
                                           	MOVRA	r0x1024
                                           	JBSET	PFLAG,0
                                           	JZAR	r0x1024
                                           	RSUBRA	r0x1028
                                           	MOVAR	r0x1025
                                           	JBSET	PFLAG,0
                                           	JZAR	r0x1025
                                           	RSUBRA	r0x102E
                                           	MOVAR	r0x1026
                                           	JBSET	PFLAG,0
                                           	JZAR	r0x1026
                                           	RSUBRA	r0x1030
                                           ;	.line	177; "MC32F7361.c"	g_temp_value = (g_tmpbuff >> 4); // 16
                                           	SWAPAR	r0x1027
                                           	ANDAI	0x0f
                                           	MOVRA	r0x1023
                                           	SWAPAR	r0x1028
                                           	MOVRA	r0x1024
                                           	ANDAI	0xf0
                                           	ORRA	r0x1023
                                           	XORRA	r0x1024
                                           	SWAPAR	r0x102E
                                           	MOVRA	r0x1025
                                           	ANDAI	0xf0
                                           	ORRA	r0x1024
                                           	XORRA	r0x1025
                                           	SWAPAR	r0x1030
                                           	MOVRA	r0x1026
                                           	ANDAI	0xf0
                                           	ORRA	r0x1025
                                           	XORRA	r0x1026
                                           ;;110	MOVAR	r0x1023
                                           ;;112	MOVAR	r0x1024
                                           ;;109	MOVAR	r0x1027
                                           ;	.line	179; "MC32F7361.c"	return g_temp_value;
                                           	MOVAR	r0x1023
                                           	MOVRA	r0x1027
                                           	MOVRA	STK00
                                           ;;111	MOVAR	r0x1028
                                           	MOVAR	r0x1024
                                           	MOVRA	r0x1028
                                           ;	.line	180; "MC32F7361.c"	}
                                           	RETURN	
                                           ; exit point of _adc_get_val
                                           
                                           ;***
                                           ;  pBlock Stats: dbName = C
                                           ;***
                                           ;entry:  _adc_sel_channel	;Function start
                                           ; 2 exit points
                                           ;has an exit
                                           ;functions called:
                                           ;   _delay_ms
                                           ;   _delay_ms
                                           ;2 compiler assigned registers:
                                           ;   r0x1011
                                           ;   STK00
                                           ;; Starting pCode block
                                           _adc_sel_channel	;Function start
                                           ; 2 exit points
                                           ;	.line	107; "MC32F7361.c"	void adc_sel_channel(u8 adc_channel)
                                           	MOVRA	r0x1011
                                           ;	.line	111; "MC32F7361.c"	if (last_adc_channel == adc_channel)
                                           	MOVAR	r0x1011
                                           	XORAR	_adc_sel_channel_last_adc_channel_65536_24
                                           	JBSET	PFLAG,2
                                           	GOTO	_00169_DS_
                                           ;	.line	113; "MC32F7361.c"	return;
                                           	GOTO	_00174_DS_
                                           _00169_DS_
                                           ;	.line	116; "MC32F7361.c"	last_adc_channel = adc_channel;
                                           	MOVAR	r0x1011
                                           	MOVRA	_adc_sel_channel_last_adc_channel_65536_24
                                           ;	.line	118; "MC32F7361.c"	switch (adc_channel)
                                           	MOVAR	r0x1011
                                           	XORAI	0x01
                                           	JBSET	PFLAG,2
                                           	GOTO	_00188_DS_
                                           	GOTO	_00170_DS_
                                           _00188_DS_
                                           	MOVAR	r0x1011
                                           	XORAI	0x02
                                           	JBSET	PFLAG,2
                                           	GOTO	_00189_DS_
                                           	GOTO	_00171_DS_
                                           _00189_DS_
                                           	GOTO	_00173_DS_
                                           _00170_DS_
                                           ;	.line	121; "MC32F7361.c"	ADCHS3 = 1;
                                           	BSET	_ADCR0bits,7
                                           ;	.line	122; "MC32F7361.c"	ADCHS2 = 0;
                                           	BCLR	_ADCR0bits,6
                                           ;	.line	123; "MC32F7361.c"	ADCHS1 = 1;
                                           	BSET	_ADCR0bits,5
                                           ;	.line	124; "MC32F7361.c"	ADCHS0 = 0;
                                           	BCLR	_ADCR0bits,4
                                           ;	.line	125; "MC32F7361.c"	break;
                                           	GOTO	_00173_DS_
                                           _00171_DS_
                                           ;	.line	130; "MC32F7361.c"	ADCHS3 = 0;
                                           	BCLR	_ADCR0bits,7
                                           ;	.line	131; "MC32F7361.c"	ADCHS2 = 1;
                                           	BSET	_ADCR0bits,6
                                           ;	.line	132; "MC32F7361.c"	ADCHS1 = 1;
                                           	BSET	_ADCR0bits,5
                                           ;	.line	133; "MC32F7361.c"	ADCHS0 = 0;
                                           	BCLR	_ADCR0bits,4
                                           _00173_DS_
                                           ;	.line	147; "MC32F7361.c"	delay_ms(1); // adc
                                           	MOVAI	0x01
                                           	MOVRA	STK00
                                           	MOVAI	0x00
                                           	CALL	_delay_ms
                                           _00174_DS_
                                           ;	.line	148; "MC32F7361.c"	}
                                           	RETURN	
                                           ; exit point of _adc_sel_channel
                                           
                                           ;***
                                           ;  pBlock Stats: dbName = C
                                           ;***
                                           ;entry:  _timer3_config	;Function start
                                           ; 2 exit points
                                           ;has an exit
                                           ;; Starting pCode block
                                           _timer3_config	;Function start
                                           ; 2 exit points
                                           ;	.line	102; "MC32F7361.c"	T3LOAD = 135 - 1; // FCPU 641ms
                                           	MOVAI	0x86
                                           	MOVRA	_T3LOAD
                                           ;	.line	103; "MC32F7361.c"	T3CR = 0x86;      // FCPU64
                                           	MOVAI	0x86
                                           	MOVRA	_T3CR
                                           ;	.line	104; "MC32F7361.c"	T3IE = 1;
                                           	BSET	_INTEbits,7
                                           ;	.line	105; "MC32F7361.c"	}
                                           	RETURN	
                                           ; exit point of _timer3_config
                                           
                                           ;***
                                           ;  pBlock Stats: dbName = C
                                           ;***
                                           ;entry:  _timer0_pwm_config	;Function start
                                           ; 2 exit points
                                           ;has an exit
                                           ;; Starting pCode block
                                           _timer0_pwm_config	;Function start
                                           ; 2 exit points
                                           ;	.line	85; "MC32F7361.c"	T0CR = 0x49; // PWM,FTMR,2 (0.03125us)
                                           	MOVAI	0x49
                                           	MOVRA	_T0CR
                                           ;	.line	88; "MC32F7361.c"	T0LOAD = (128 + 10) - 1; //
                                           	MOVAI	0x89
                                           	MOVRA	_T0LOAD
                                           ;	.line	89; "MC32F7361.c"	T0DATA = 23 + 10;
                                           	MOVAI	0x21
                                           	MOVRA	_T0DATA
                                           ;	.line	90; "MC32F7361.c"	PWMCR0 = 0x00; // 
                                           	CLRR	_PWMCR0
                                           ;	.line	91; "MC32F7361.c"	PWMCR1 = 0x18; // FHOSC  2  
                                           	MOVAI	0x18
                                           	MOVRA	_PWMCR1
                                           ;	.line	95; "MC32F7361.c"	T0EN = 0;   // 
                                           	BCLR	_T0CRbits,7
                                           ;	.line	96; "MC32F7361.c"	PWM0EC = 0; // PWM0
                                           	BCLR	_T0CRbits,6
                                           ;	.line	97; "MC32F7361.c"	}
                                           	RETURN	
                                           ; exit point of _timer0_pwm_config
                                           
                                           ;***
                                           ;  pBlock Stats: dbName = C
                                           ;***
                                           ;entry:  _adc_config	;Function start
                                           ; 2 exit points
                                           ;has an exit
                                           ;; Starting pCode block
                                           _adc_config	;Function start
                                           ; 2 exit points
                                           ;	.line	68; "MC32F7361.c"	P11OE = 0; // 
                                           	BCLR	_OEP1bits,1
                                           ;	.line	69; "MC32F7361.c"	P11DC = 1; // 
                                           	BSET	_P1ADCRbits,1
                                           ;	.line	76; "MC32F7361.c"	ADCR0 = 0x0B; // 12adc
                                           	MOVAI	0x0b
                                           	MOVRA	_ADCR0
                                           ;	.line	77; "MC32F7361.c"	ADCR1 = 0x80; // adc FHIRC/322.0V
                                           	MOVAI	0x80
                                           	MOVRA	_ADCR1
                                           ;	.line	78; "MC32F7361.c"	ADCR2 = 0x0F; // 15  ADCLK
                                           	MOVAI	0x0f
                                           	MOVRA	_ADCR2
                                           ;	.line	79; "MC32F7361.c"	}
                                           	RETURN	
                                           ; exit point of _adc_config
                                           
                                           ;***
                                           ;  pBlock Stats: dbName = C
                                           ;***
                                           ;entry:  _IO_Init	;Function start
                                           ; 2 exit points
                                           ;has an exit
                                           ;; Starting pCode block
                                           _IO_Init	;Function start
                                           ; 2 exit points
                                           ;	.line	37; "MC32F7361.c"	IOP0 = 0x00;   // io
                                           	CLRR	_IOP0
                                           ;	.line	38; "MC32F7361.c"	OEP0 = 0x3F;   // io 1:out  0:in
                                           	MOVAI	0x3f
                                           	MOVRA	_OEP0
                                           ;	.line	39; "MC32F7361.c"	PUP0 = 0x00;   // io   1:enable  0:disable
                                           	CLRR	_PUP0
                                           ;	.line	40; "MC32F7361.c"	PDP0 = 0x00;   // io   1:enable  0:disable
                                           	CLRR	_PDP0
                                           ;	.line	41; "MC32F7361.c"	P0ADCR = 0x00; // io  1:  0:io
                                           	CLRR	_P0ADCR
                                           ;	.line	43; "MC32F7361.c"	IOP1 = 0x00;   // io
                                           	CLRR	_IOP1
                                           ;	.line	44; "MC32F7361.c"	OEP1 = 0xFF;   // io 1:out  0:in
                                           	MOVAI	0xff
                                           	MOVRA	_OEP1
                                           ;	.line	45; "MC32F7361.c"	PUP1 = 0x00;   // io   1:enable  0:disable
                                           	CLRR	_PUP1
                                           ;	.line	46; "MC32F7361.c"	PDP1 = 0x00;   // io   1:enable  0:disable
                                           	CLRR	_PDP1
                                           ;	.line	47; "MC32F7361.c"	P1ADCR = 0x00; // io  1:  0:io
                                           	CLRR	_P1ADCR
                                           ;	.line	49; "MC32F7361.c"	IOP2 = 0x00; // io
                                           	CLRR	_IOP2
                                           ;	.line	50; "MC32F7361.c"	OEP2 = 0x0F; // io 1:out  0:in
                                           	MOVAI	0x0f
                                           	MOVRA	_OEP2
                                           ;	.line	51; "MC32F7361.c"	PUP2 = 0x00; // io   1:enable  0:disable
                                           	CLRR	_PUP2
                                           ;	.line	52; "MC32F7361.c"	PDP2 = 0x00; // io   1:enable  0:disablea
                                           	CLRR	_PDP2
                                           ;	.line	54; "MC32F7361.c"	PMOD = 0x00;  // P00P01P13 io
                                           	CLRR	_PMOD
                                           ;	.line	55; "MC32F7361.c"	DRVCR = 0x80; // 
                                           	MOVAI	0x80
                                           	MOVRA	_DRVCR
                                           ;	.line	56; "MC32F7361.c"	}
                                           	RETURN	
                                           ; exit point of _IO_Init
                                           
                                           ;***
                                           ;  pBlock Stats: dbName = C
                                           ;***
                                           ;entry:  _CLR_RAM	;Function start
                                           ; 2 exit points
                                           ;has an exit
                                           ;; Starting pCode block
                                           _CLR_RAM	;Function start
                                           ; 2 exit points
                                           ;	.line	22; "MC32F7361.c"	for (FSR0 = 0; FSR0 < 0xff; FSR0++)
                                           	CLRR	_FSR0
                                           ;;unsigned compare: left < lit(0xFF=255), size=1
                                           _00147_DS_
                                           	MOVAI	0xff
                                           	RSUBAR	_FSR0
                                           	JBCLR	PFLAG,0
                                           	GOTO	_00145_DS_
                                           ;;genSkipc:3291: created from rifx:013B5EFC
                                           ;	.line	24; "MC32F7361.c"	INDF0 = 0x00;
                                           	CLRR	_INDF0
                                           ;	.line	22; "MC32F7361.c"	for (FSR0 = 0; FSR0 < 0xff; FSR0++)
                                           	INCR	_FSR0
                                           	GOTO	_00147_DS_
                                           _00145_DS_
                                           ;	.line	26; "MC32F7361.c"	FSR0 = 0xFF;
                                           	MOVAI	0xff
                                           	MOVRA	_FSR0
                                           ;	.line	27; "MC32F7361.c"	INDF0 = 0x00;
                                           	CLRR	_INDF0
                                           ;	.line	28; "MC32F7361.c"	}
                                           	RETURN	
                                           ; exit point of _CLR_RAM
                                           
                                           ;***
                                           ;  pBlock Stats: dbName = C
                                           ;***
                                           ;entry:  _send_data_msb	;Function start
                                           ; 2 exit points
                                           ;has an exit
                                           ;functions called:
                                           ;   _delay_ms
                                           ;   _delay_ms
                                           ;   _delay_ms
                                           ;   _delay_ms
                                           ;   _delay_ms
                                           ;   _delay_ms
                                           ;   _delay_ms
                                           ;   _delay_ms
                                           ;   _delay_ms
                                           ;   _delay_ms
                                           ;   _delay_ms
                                           ;   _delay_ms
                                           ;   _delay_ms
                                           ;   _delay_ms
                                           ;   _delay_ms
                                           ;   _delay_ms
                                           ;13 compiler assigned registers:
                                           ;   r0x1011
                                           ;   STK00
                                           ;   r0x1012
                                           ;   STK01
                                           ;   r0x1013
                                           ;   STK02
                                           ;   r0x1014
                                           ;   r0x1015
                                           ;   r0x1016
                                           ;   r0x1017
                                           ;   r0x1018
                                           ;   r0x1019
                                           ;   r0x101A
                                           ;; Starting pCode block
                                           _send_data_msb	;Function start
                                           ; 2 exit points
                                           ;	.line	194; "user.h"	void send_data_msb(u32 send_data)
                                           	MOVRA	r0x1011
                                           	MOVAR	STK00
                                           	MOVRA	r0x1012
                                           	MOVAR	STK01
                                           	MOVRA	r0x1013
                                           	MOVAR	STK02
                                           	MOVRA	r0x1014
                                           ;	.line	198; "user.h"	DEBUG_PIN = 1;
                                           	BSET	_IOP2bits,2
                                           ;	.line	199; "user.h"	delay_ms(15);
                                           	MOVAI	0x0f
                                           	MOVRA	STK00
                                           	MOVAI	0x00
                                           	CALL	_delay_ms
                                           ;	.line	201; "user.h"	DEBUG_PIN = 0;
                                           	BCLR	_IOP2bits,2
                                           ;	.line	202; "user.h"	delay_ms(7); //
                                           	MOVAI	0x07
                                           	MOVRA	STK00
                                           	MOVAI	0x00
                                           	CALL	_delay_ms
                                           ;	.line	204; "user.h"	for (u8 i = 0; i < 32; i++)
                                           	CLRR	r0x1015
                                           ;;unsigned compare: left < lit(0x20=32), size=1
                                           _00121_DS_
                                           	MOVAI	0x20
                                           	RSUBAR	r0x1015
                                           	JBCLR	PFLAG,0
                                           	GOTO	_00119_DS_
                                           ;;genSkipc:3291: created from rifx:013B5EFC
                                           ;	.line	206; "user.h"	if ((send_data >> (32 - 1 - i)) & 0x01)
                                           	MOVAR	r0x1015
                                           	ISUBAI	0x1f
                                           	MOVRA	r0x1016
                                           	MOVAR	r0x1011
                                           	MOVRA	r0x1017
                                           	MOVAR	r0x1012
                                           	MOVRA	r0x1018
                                           	MOVAR	r0x1013
                                           	MOVRA	r0x1019
                                           	MOVAR	r0x1014
                                           	MOVRA	r0x101A
                                           	MOVAR	r0x1016
                                           	ISUBAI	0x00
                                           	JBCLR	PFLAG,2
                                           	GOTO	_00140_DS_
                                           _00139_DS_
                                           	RRR	r0x1017
                                           	RRR	r0x1018
                                           	RRR	r0x1019
                                           	RRR	r0x101A
                                           	ADDAI	0x01
                                           	JBSET	PFLAG,0
                                           	GOTO	_00139_DS_
                                           _00140_DS_
                                           	JBSET	r0x101A,0
                                           	GOTO	_00117_DS_
                                           ;	.line	210; "user.h"	DEBUG_PIN = 1;
                                           	BSET	_IOP2bits,2
                                           ;	.line	211; "user.h"	delay_ms(5); //
                                           	MOVAI	0x05
                                           	MOVRA	STK00
                                           	MOVAI	0x00
                                           	CALL	_delay_ms
                                           ;	.line	213; "user.h"	DEBUG_PIN = 0;
                                           	BCLR	_IOP2bits,2
                                           ;	.line	214; "user.h"	delay_ms(10); //
                                           	MOVAI	0x0a
                                           	MOVRA	STK00
                                           	MOVAI	0x00
                                           	CALL	_delay_ms
                                           	GOTO	_00122_DS_
                                           _00117_DS_
                                           ;	.line	220; "user.h"	DEBUG_PIN = 1;
                                           	BSET	_IOP2bits,2
                                           ;	.line	221; "user.h"	delay_ms(5); //
                                           	MOVAI	0x05
                                           	MOVRA	STK00
                                           	MOVAI	0x00
                                           	CALL	_delay_ms
                                           ;	.line	223; "user.h"	DEBUG_PIN = 0;
                                           	BCLR	_IOP2bits,2
                                           ;	.line	224; "user.h"	delay_ms(5); //
                                           	MOVAI	0x05
                                           	MOVRA	STK00
                                           	MOVAI	0x00
                                           	CALL	_delay_ms
                                           _00122_DS_
                                           ;	.line	204; "user.h"	for (u8 i = 0; i < 32; i++)
                                           	INCR	r0x1015
                                           	GOTO	_00121_DS_
                                           _00119_DS_
                                           ;	.line	230; "user.h"	DEBUG_PIN = 0;
                                           	BCLR	_IOP2bits,2
                                           ;	.line	231; "user.h"	delay_ms(1);
                                           	MOVAI	0x01
                                           	MOVRA	STK00
                                           	MOVAI	0x00
                                           	CALL	_delay_ms
                                           ;	.line	232; "user.h"	DEBUG_PIN = 1;
                                           	BSET	_IOP2bits,2
                                           ;	.line	233; "user.h"	delay_ms(1);
                                           	MOVAI	0x01
                                           	MOVRA	STK00
                                           	MOVAI	0x00
                                           	CALL	_delay_ms
                                           ;	.line	234; "user.h"	DEBUG_PIN = 0;
                                           	BCLR	_IOP2bits,2
                                           ;	.line	235; "user.h"	}
                                           	RETURN	
                                           ; exit point of _send_data_msb
                                           
                                           ;***
                                           ;  pBlock Stats: dbName = C
                                           ;***
                                           ;entry:  _delay_ms	;Function start
                                           ; 2 exit points
                                           ;has an exit
                                           ;7 compiler assigned registers:
                                           ;   r0x100B
                                           ;   STK00
                                           ;   r0x100C
                                           ;   r0x100D
                                           ;   r0x100E
                                           ;   r0x100F
                                           ;   r0x1010
                                           ;; Starting pCode block
                                           _delay_ms	;Function start
                                           ; 2 exit points
                                           ;	.line	172; "user.h"	void delay_ms(u16 xms)
                                           	MOVRA	r0x100B
                                           	MOVAR	STK00
                                           	MOVRA	r0x100C
                                           _00108_DS_
                                           ;	.line	174; "user.h"	while (xms)
                                           	MOVAR	r0x100C
                                           	ORAR	r0x100B
                                           	JBCLR	PFLAG,2
                                           	GOTO	_00111_DS_
                                           ;	.line	177; "user.h"	while (i--)
                                           	MOVAI	0x3c
                                           	MOVRA	r0x100D
                                           	MOVAI	0x02
                                           	MOVRA	r0x100E
                                           _00105_DS_
                                           	MOVAR	r0x100D
                                           	MOVRA	r0x100F
                                           	MOVAR	r0x100E
                                           	MOVRA	r0x1010
                                           	MOVAI	0xff
                                           	ADDRA	r0x100D
                                           	JBSET	PFLAG,0
                                           	DECR	r0x100E
                                           	MOVAR	r0x100F
                                           	ORAR	r0x1010
                                           	JBCLR	PFLAG,2
                                           	GOTO	_00107_DS_
                                           ;	.line	179; "user.h"	Nop();
                                           	nop	
                                           	GOTO	_00105_DS_
                                           _00107_DS_
                                           ;	.line	181; "user.h"	xms--; //  --while()
                                           	MOVAI	0xff
                                           	ADDRA	r0x100C
                                           	JBSET	PFLAG,0
                                           	DECR	r0x100B
                                           ;	.line	185; "user.h"	__endasm;
                                           	;
                                           	clrwdt;
                                           	
                                           	GOTO	_00108_DS_
                                           _00111_DS_
                                           ;	.line	187; "user.h"	}
                                           	RETURN	
                                           ; exit point of _delay_ms
                                           
                                           
                                           ;	code size estimation:
                                           ;	  710+    0 =   710 instructions ( 1420 byte)
                                           
                                           	end


MEMORY USAGE MAP ('X' = Used,  '-' = Unused)

0000 : XX-------------- XXXXXXXXXXXXXXXX XXXXXXXXXXXXXXXX XXXXXXXXXXXXXXXX
0040 : XXXXXXXXXXXXXXXX XXXXXXXXXXXXXXXX XXXXXXXXXXXXXXXX XXXXXXXXXXXXXXXX
0080 : XXXXXXXXXXXXXXXX XXXXXXXXXXXXXXXX XXXXXXXXXXXXXXXX XXXXXXXXXXXXXXXX
00C0 : XXXXXXXXXXXXXXXX XXXXXXXXXXXXXXXX XXXXXXXXXXXXXXXX XXXXXXXXXXXXXXXX
0100 : XXXXXXXXXXXXXXXX XXXXXXXXXXXXXXXX XXXXXXXXXXXXXXXX XXXXXXXXXXXXXXXX
0140 : XXXXXXXXXXXXXXXX XXXXXXXXXXXXXXXX XXXXXXXXXXXXXXXX XXXXXXXXXXXXXXXX
0180 : XXXXXXXXXXXXXXXX XXXXXXXXXXXXXXXX XXXXXXXXXXXXXXXX XXXXXXXXXXXXXXXX
01C0 : XXXXXXXXXXXXXXXX XXXXXXXXXXXXXXXX XXXXXXXXXXXXXXXX XXXXXXXXXXXXXXXX
0200 : XXXXXXXXXXXXXXXX XXXXXXXXXXXXXXXX XXXXXXXXXXXXXXXX XXXXXXXXXXXXXXXX
0240 : XXXXXXXXXXXXXXXX XXXXXXXXXXXXXXXX XXXXXXXXXXXXXXXX XXXXXXXXXXXXXXXX
0280 : XXXXXXXXXXXXXXXX XXXXXXXXXXXXXXXX XXXXXXXXXXXXXXXX XXXXXXXXXXXXXXXX
02C0 : XXXXXXXXXXXXXXXX XXXXXXXXXXXXXXXX XXXXXXXXXXXXXXXX XXXXXXXXXXXXXXXX
0300 : XXXXXXXXXXXXXXXX XXXXXXXXXXXXXXXX XXXXXXXXXXXXXXXX XXXXXXXXXXXXXXXX
0340 : XXXXXXXXXXXXXXXX XXXXXXXXXXXXXXXX XXXXXXXXXXXXXXXX XXXXXXXXXXXXXXXX
0380 : XXXXXXXXXXXXXXXX XXXXXXXXXXXXXXXX XXXXXXXXXXXXXXXX XXXXXXXXXXXXXXXX
03C0 : XXXXXXXXXXXXXXXX XXXXXXXXXXXXXXXX XXXXXXXXXXXXXXXX XXXXXXXXXXXXXXXX
0400 : XXXXXXXXXXXXXXXX XXXXXXXXXXXXXXXX XXXXXXXXXXXXXXXX XXXXXXXXXXXXXXXX
0440 : XXXXXXXXXXXXXXXX XXXXXXXXXXXXXXXX XXXXXXXXXXXXXXXX XXXXXXXXXXXXXXXX
0480 : XXXXXXXXXXXXXXXX XXXXXXXXXXXXXXXX XXXXXXXXXXXXXXXX XXXXXXXXXXXXXXXX
04C0 : XXXXXXXXXXXXXXXX XXXXXXXXXXXXXXXX XXXXXXXXXXXXXXXX XXXXXXXXXXXXXXXX
0500 : XXXXXXXXXXXXXXXX XXXXXXXXXXXXXXXX XXXXXXXXXXXXXXXX XXXXXXXXXXXXXXXX
0540 : XXXXXXXXXXXXXXXX XXXXXXXXXXXXXXXX XXXXXXXXXXXXXXXX XXXXXXXXXXXXXXXX
0580 : XXXXXXXXXXXXXXXX XXXXXXXXXXXXXXXX XXXXXXXXXXXXXXXX XXXXXXXX--------

All other memory blocks unused.

Program Memory Words Used:   725

