gplink-2.2.37 (Jan 22 2024)
Listing File Generated: 2025-1-14  08:44:38
 
 
Address  Value    Disassembly              Source
-------  -----    -----------              ------
                                           ;--------------------------------------------------------
                                           ; external declarations
                                           ;--------------------------------------------------------
                                           	extern	_INDF0bits
                                           	extern	_INDF1bits
                                           	extern	_INDF2bits
                                           	extern	_HIBYTEbits
                                           	extern	_FSR0bits
                                           	extern	_FSR1bits
                                           	extern	_PCLbits
                                           	extern	_PFLAGbits
                                           	extern	_MCRbits
                                           	extern	_INDF3bits
                                           	extern	_INTEbits
                                           	extern	_INTFbits
                                           	extern	_DRVCRbits
                                           	extern	_P0KBCRbits
                                           	extern	_P1KBCRbits
                                           	extern	_P2KBCRbits
                                           	extern	_IOP0bits
                                           	extern	_OEP0bits
                                           	extern	_PUP0bits
                                           	extern	_PDP0bits
                                           	extern	_IOP1bits
                                           	extern	_OEP1bits
                                           	extern	_PUP1bits
                                           	extern	_PDP1bits
                                           	extern	_T0CRbits
                                           	extern	_T0CNTbits
                                           	extern	_T0LOADbits
                                           	extern	_T0DATAbits
                                           	extern	_T1CRbits
                                           	extern	_T1CNTbits
                                           	extern	_T1LOADbits
                                           	extern	_T1DATAbits
                                           	extern	_T2CRbits
                                           	extern	_T2CNTbits
                                           	extern	_T2LOADbits
                                           	extern	_T2DATAbits
                                           	extern	_T3CRbits
                                           	extern	_T3CNTbits
                                           	extern	_T3LOADbits
                                           	extern	_PWM0DRbits
                                           	extern	_PWM1DRbits
                                           	extern	_PWM2DRbits
                                           	extern	_PWMCR0bits
                                           	extern	_PWMCR1bits
                                           	extern	_OSCMRbits
                                           	extern	_LVDCRbits
                                           	extern	_ADCR0bits
                                           	extern	_ADCR1bits
                                           	extern	_ADCR2bits
                                           	extern	_OSADJCRbits
                                           	extern	_ADRHbits
                                           	extern	_ADRLbits
                                           	extern	_P0ADCRbits
                                           	extern	_P1ADCRbits
                                           	extern	_IOP2bits
                                           	extern	_OEP2bits
                                           	extern	_PUP2bits
                                           	extern	_PDP2bits
                                           	extern	_PMODbits
                                           	extern	_PWMCR3bits
                                           	extern	_PWMCR2bits
                                           	extern	_PFRCCRbits
                                           	extern	_PFRCCALbits
                                           	extern	_EECRbits
                                           	extern	_EEPRbits
                                           	extern	_EEARbits
                                           	extern	_EEDRHbits
                                           	extern	_EEDRLbits
                                           	extern	_DBGCRbits
                                           	extern	_DBGPRbits
                                           	extern	_HIRCCALbits
                                           	extern	_INDF0
                                           	extern	_INDF1
                                           	extern	_INDF2
                                           	extern	_HIBYTE
                                           	extern	_FSR0
                                           	extern	_FSR1
                                           	extern	_PCL
                                           	extern	_PFLAG
                                           	extern	_MCR
                                           	extern	_INDF3
                                           	extern	_INTE
                                           	extern	_INTF
                                           	extern	_DRVCR
                                           	extern	_P0KBCR
                                           	extern	_P1KBCR
                                           	extern	_P2KBCR
                                           	extern	_IOP0
                                           	extern	_OEP0
                                           	extern	_PUP0
                                           	extern	_PDP0
                                           	extern	_IOP1
                                           	extern	_OEP1
                                           	extern	_PUP1
                                           	extern	_PDP1
                                           	extern	_T0CR
                                           	extern	_T0CNT
                                           	extern	_T0LOAD
                                           	extern	_T0DATA
                                           	extern	_T1CR
                                           	extern	_T1CNT
                                           	extern	_T1LOAD
                                           	extern	_T1DATA
                                           	extern	_T2CR
                                           	extern	_T2CNT
                                           	extern	_T2LOAD
                                           	extern	_T2DATA
                                           	extern	_T3CR
                                           	extern	_T3CNT
                                           	extern	_T3LOAD
                                           	extern	_PWM0DR
                                           	extern	_PWM1DR
                                           	extern	_PWM2DR
                                           	extern	_PWMCR0
                                           	extern	_PWMCR1
                                           	extern	_OSCMR
                                           	extern	_LVDCR
                                           	extern	_ADCR0
                                           	extern	_ADCR1
                                           	extern	_ADCR2
                                           	extern	_OSADJCR
                                           	extern	_ADRH
                                           	extern	_ADRL
                                           	extern	_P0ADCR
                                           	extern	_P1ADCR
                                           	extern	_IOP2
                                           	extern	_OEP2
                                           	extern	_PUP2
                                           	extern	_PDP2
                                           	extern	_PMOD
                                           	extern	_PWMCR3
                                           	extern	_PWMCR2
                                           	extern	_PFRCCR
                                           	extern	_PFRCCAL
                                           	extern	_EECR
                                           	extern	_EEPR
                                           	extern	_EEAR
                                           	extern	_EEDRH
                                           	extern	_EEDRL
                                           	extern	_DBGCR
                                           	extern	_DBGPR
                                           	extern	_HIRCCAL
                                           ;--------------------------------------------------------
                                           ; global declarations
                                           ;--------------------------------------------------------
                                           	global	_delay_ms
                                           	global	_send_data_msb
                                           	global	_CLR_RAM
                                           	global	_IO_Init
                                           	global	_adc_config
                                           	global	_timer0_pwm_config
                                           	global	_timer3_config
                                           	global	_adc_sel_channel
                                           	global	_adc_get_val
                                           	global	_adc_get_max_val
                                           	global	_adc_get_val_once
                                           	global	_key_event_handle
                                           	global	_Sys_Init
                                           	global	_is_in_charging
                                           	global	_is_open_lid
                                           	global	_is_detect_load
                                           	global	_main
                                           	global	_int_isr
                                           	global	_cur_dev_status
                                           	global	_abuf
                                           	global	_statusbuf
                                           	global	_i
                                           	global	_cnt
                                           	global	_ret_u8
                                           	global	_adc_val
                                           	global	_tmp_val
                                           	global	_flag1
                                           
                                           	global STK06
                                           	global STK05
                                           	global STK04
                                           	global STK03
                                           	global STK02
                                           	global STK01
                                           	global STK00
                                           
                                           sharebank udata_ovr 0x0000
                                           STK06	res 1
                                           STK05	res 1
                                           STK04	res 1
                                           STK03	res 1
                                           STK02	res 1
                                           STK01	res 1
                                           STK00	res 1
                                           
                                           ;--------------------------------------------------------
                                           ; global definitions
                                           ;--------------------------------------------------------
                                           UD_MC32F7361_0	udata
                                           _cur_dev_status	res	1
                                           
                                           UD_MC32F7361_1	udata
                                           _abuf	res	1
                                           
                                           UD_MC32F7361_2	udata
                                           _statusbuf	res	1
                                           
                                           UD_MC32F7361_3	udata
                                           _i	res	1
                                           
                                           UD_MC32F7361_4	udata
                                           _cnt	res	1
                                           
                                           UD_MC32F7361_5	udata
                                           _ret_u8	res	1
                                           
                                           UD_MC32F7361_6	udata
                                           _adc_val	res	2
                                           
                                           UD_MC32F7361_7	udata
                                           _tmp_val	res	2
                                           
                                           UD_MC32F7361_8	udata
                                           _flag1	res	1
                                           
                                           ;--------------------------------------------------------
                                           ; absolute symbol definitions
                                           ;--------------------------------------------------------
                                           ;--------------------------------------------------------
                                           ; compiler-defined variables
                                           ;--------------------------------------------------------
                                           UDL_MC32F7361_0	udata
                                           r0x100B	res	1
                                           r0x100A	res	1
                                           r0x100C	res	1
                                           r0x100D	res	1
                                           r0x100E	res	1
                                           r0x100F	res	1
                                           r0x1022	res	1
                                           r0x1021	res	1
                                           r0x1020	res	1
                                           r0x101F	res	1
                                           r0x1023	res	1
                                           r0x1024	res	1
                                           r0x1028	res	1
                                           r0x1027	res	1
                                           r0x1026	res	1
                                           r0x1025	res	1
                                           r0x1010	res	1
                                           r0x1011	res	1
                                           r0x1012	res	1
                                           r0x1013	res	1
                                           r0x1014	res	1
                                           r0x1016	res	1
                                           r0x1015	res	1
                                           r0x1017	res	1
                                           r0x1018	res	1
                                           r0x1019	res	1
                                           r0x101A	res	1
                                           r0x101C	res	1
                                           r0x101B	res	1
                                           r0x1029	res	1
                                           r0x102A	res	1
                                           _adc_sel_channel_last_adc_channel_65536_24	res	1
                                           _int_isr_blink_cnt_131072_133	res	2
                                           ;--------------------------------------------------------
                                           ; initialized data
                                           ;--------------------------------------------------------
                                           
                                           ;@Allocation info for local variables in function 'delay_ms'
                                           ;@delay_ms delay_ms                  Allocated to registers ;size:2
                                           ;@delay_ms INDF0bits                 Allocated to registers ;size:1
                                           ;@delay_ms INDF1bits                 Allocated to registers ;size:1
                                           ;@delay_ms INDF2bits                 Allocated to registers ;size:1
                                           ;@delay_ms HIBYTEbits                Allocated to registers ;size:1
                                           ;@delay_ms FSR0bits                  Allocated to registers ;size:1
                                           ;@delay_ms FSR1bits                  Allocated to registers ;size:1
                                           ;@delay_ms PCLbits                   Allocated to registers ;size:1
                                           ;@delay_ms PFLAGbits                 Allocated to registers ;size:1
                                           ;@delay_ms MCRbits                   Allocated to registers ;size:1
                                           ;@delay_ms INDF3bits                 Allocated to registers ;size:1
                                           ;@delay_ms INTEbits                  Allocated to registers ;size:1
                                           ;@delay_ms INTFbits                  Allocated to registers ;size:1
                                           ;@delay_ms DRVCRbits                 Allocated to registers ;size:1
                                           ;@delay_ms P0KBCRbits                Allocated to registers ;size:1
                                           ;@delay_ms P1KBCRbits                Allocated to registers ;size:1
                                           ;@delay_ms P2KBCRbits                Allocated to registers ;size:1
                                           ;@delay_ms IOP0bits                  Allocated to registers ;size:1
                                           ;@delay_ms OEP0bits                  Allocated to registers ;size:1
                                           ;@delay_ms PUP0bits                  Allocated to registers ;size:1
                                           ;@delay_ms PDP0bits                  Allocated to registers ;size:1
                                           ;@delay_ms IOP1bits                  Allocated to registers ;size:1
                                           ;@delay_ms OEP1bits                  Allocated to registers ;size:1
                                           ;@delay_ms PUP1bits                  Allocated to registers ;size:1
                                           ;@delay_ms PDP1bits                  Allocated to registers ;size:1
                                           ;@delay_ms T0CRbits                  Allocated to registers ;size:1
                                           ;@delay_ms T0CNTbits                 Allocated to registers ;size:1
                                           ;@delay_ms T0LOADbits                Allocated to registers ;size:1
                                           ;@delay_ms T0DATAbits                Allocated to registers ;size:1
                                           ;@delay_ms T1CRbits                  Allocated to registers ;size:1
                                           ;@delay_ms T1CNTbits                 Allocated to registers ;size:1
                                           ;@delay_ms T1LOADbits                Allocated to registers ;size:1
                                           ;@delay_ms T1DATAbits                Allocated to registers ;size:1
                                           ;@delay_ms T2CRbits                  Allocated to registers ;size:1
                                           ;@delay_ms T2CNTbits                 Allocated to registers ;size:1
                                           ;@delay_ms T2LOADbits                Allocated to registers ;size:1
                                           ;@delay_ms T2DATAbits                Allocated to registers ;size:1
                                           ;@delay_ms T3CRbits                  Allocated to registers ;size:1
                                           ;@delay_ms T3CNTbits                 Allocated to registers ;size:1
                                           ;@delay_ms T3LOADbits                Allocated to registers ;size:1
                                           ;@delay_ms PWM0DRbits                Allocated to registers ;size:1
                                           ;@delay_ms PWM1DRbits                Allocated to registers ;size:1
                                           ;@delay_ms PWM2DRbits                Allocated to registers ;size:1
                                           ;@delay_ms PWMCR0bits                Allocated to registers ;size:1
                                           ;@delay_ms PWMCR1bits                Allocated to registers ;size:1
                                           ;@delay_ms OSCMRbits                 Allocated to registers ;size:1
                                           ;@delay_ms LVDCRbits                 Allocated to registers ;size:1
                                           ;@delay_ms ADCR0bits                 Allocated to registers ;size:1
                                           ;@delay_ms ADCR1bits                 Allocated to registers ;size:1
                                           ;@delay_ms ADCR2bits                 Allocated to registers ;size:1
                                           ;@delay_ms OSADJCRbits               Allocated to registers ;size:1
                                           ;@delay_ms ADRHbits                  Allocated to registers ;size:1
                                           ;@delay_ms ADRLbits                  Allocated to registers ;size:1
                                           ;@delay_ms P0ADCRbits                Allocated to registers ;size:1
                                           ;@delay_ms P1ADCRbits                Allocated to registers ;size:1
                                           ;@delay_ms IOP2bits                  Allocated to registers ;size:1
                                           ;@delay_ms OEP2bits                  Allocated to registers ;size:1
                                           ;@delay_ms PUP2bits                  Allocated to registers ;size:1
                                           ;@delay_ms PDP2bits                  Allocated to registers ;size:1
                                           ;@delay_ms PMODbits                  Allocated to registers ;size:1
                                           ;@delay_ms PWMCR3bits                Allocated to registers ;size:1
                                           ;@delay_ms PWMCR2bits                Allocated to registers ;size:1
                                           ;@delay_ms PFRCCRbits                Allocated to registers ;size:1
                                           ;@delay_ms PFRCCALbits               Allocated to registers ;size:1
                                           ;@delay_ms EECRbits                  Allocated to registers ;size:1
                                           ;@delay_ms EEPRbits                  Allocated to registers ;size:1
                                           ;@delay_ms EEARbits                  Allocated to registers ;size:1
                                           ;@delay_ms EEDRHbits                 Allocated to registers ;size:1
                                           ;@delay_ms EEDRLbits                 Allocated to registers ;size:1
                                           ;@delay_ms DBGCRbits                 Allocated to registers ;size:1
                                           ;@delay_ms DBGPRbits                 Allocated to registers ;size:1
                                           ;@delay_ms HIRCCALbits               Allocated to registers ;size:1
                                           ;@delay_ms cur_dev_status            Allocated to registers ;size:1
                                           ;@delay_ms abuf                      Allocated to registers ;size:1
                                           ;@delay_ms statusbuf                 Allocated to registers ;size:1
                                           ;@delay_ms i                         Allocated to registers ;size:1
                                           ;@delay_ms cnt                       Allocated to registers ;size:1
                                           ;@delay_ms ret_u8                    Allocated to registers ;size:1
                                           ;@delay_ms adc_val                   Allocated to registers ;size:2
                                           ;@delay_ms tmp_val                   Allocated to registers ;size:2
                                           ;@delay_ms flag1                     Allocated to registers ;size:1
                                           ;@delay_ms xms                       Allocated to registers ;size:2
                                           ;@delay_ms i                         Allocated to registers r0x100C r0x100D ;size:2
                                           ;@delay_ms INDF0                     Allocated to registers ;size:1
                                           ;@delay_ms INDF1                     Allocated to registers ;size:1
                                           ;@delay_ms INDF2                     Allocated to registers ;size:1
                                           ;@delay_ms HIBYTE                    Allocated to registers ;size:1
                                           ;@delay_ms FSR0                      Allocated to registers ;size:1
                                           ;@delay_ms FSR1                      Allocated to registers ;size:1
                                           ;@delay_ms PCL                       Allocated to registers ;size:1
                                           ;@delay_ms PFLAG                     Allocated to registers ;size:1
                                           ;@delay_ms MCR                       Allocated to registers ;size:1
                                           ;@delay_ms INDF3                     Allocated to registers ;size:1
                                           ;@delay_ms INTE                      Allocated to registers ;size:1
                                           ;@delay_ms INTF                      Allocated to registers ;size:1
                                           ;@delay_ms DRVCR                     Allocated to registers ;size:1
                                           ;@delay_ms P0KBCR                    Allocated to registers ;size:1
                                           ;@delay_ms P1KBCR                    Allocated to registers ;size:1
                                           ;@delay_ms P2KBCR                    Allocated to registers ;size:1
                                           ;@delay_ms IOP0                      Allocated to registers ;size:1
                                           ;@delay_ms OEP0                      Allocated to registers ;size:1
                                           ;@delay_ms PUP0                      Allocated to registers ;size:1
                                           ;@delay_ms PDP0                      Allocated to registers ;size:1
                                           ;@delay_ms IOP1                      Allocated to registers ;size:1
                                           ;@delay_ms OEP1                      Allocated to registers ;size:1
                                           ;@delay_ms PUP1                      Allocated to registers ;size:1
                                           ;@delay_ms PDP1                      Allocated to registers ;size:1
                                           ;@delay_ms T0CR                      Allocated to registers ;size:1
                                           ;@delay_ms T0CNT                     Allocated to registers ;size:1
                                           ;@delay_ms T0LOAD                    Allocated to registers ;size:1
                                           ;@delay_ms T0DATA                    Allocated to registers ;size:1
                                           ;@delay_ms T1CR                      Allocated to registers ;size:1
                                           ;@delay_ms T1CNT                     Allocated to registers ;size:1
                                           ;@delay_ms T1LOAD                    Allocated to registers ;size:1
                                           ;@delay_ms T1DATA                    Allocated to registers ;size:1
                                           ;@delay_ms T2CR                      Allocated to registers ;size:1
                                           ;@delay_ms T2CNT                     Allocated to registers ;size:1
                                           ;@delay_ms T2LOAD                    Allocated to registers ;size:1
                                           ;@delay_ms T2DATA                    Allocated to registers ;size:1
                                           ;@delay_ms T3CR                      Allocated to registers ;size:1
                                           ;@delay_ms T3CNT                     Allocated to registers ;size:1
                                           ;@delay_ms T3LOAD                    Allocated to registers ;size:1
                                           ;@delay_ms PWM0DR                    Allocated to registers ;size:1
                                           ;@delay_ms PWM1DR                    Allocated to registers ;size:1
                                           ;@delay_ms PWM2DR                    Allocated to registers ;size:1
                                           ;@delay_ms PWMCR0                    Allocated to registers ;size:1
                                           ;@delay_ms PWMCR1                    Allocated to registers ;size:1
                                           ;@delay_ms OSCMR                     Allocated to registers ;size:1
                                           ;@delay_ms LVDCR                     Allocated to registers ;size:1
                                           ;@delay_ms ADCR0                     Allocated to registers ;size:1
                                           ;@delay_ms ADCR1                     Allocated to registers ;size:1
                                           ;@delay_ms ADCR2                     Allocated to registers ;size:1
                                           ;@delay_ms OSADJCR                   Allocated to registers ;size:1
                                           ;@delay_ms ADRH                      Allocated to registers ;size:1
                                           ;@delay_ms ADRL                      Allocated to registers ;size:1
                                           ;@delay_ms P0ADCR                    Allocated to registers ;size:1
                                           ;@delay_ms P1ADCR                    Allocated to registers ;size:1
                                           ;@delay_ms IOP2                      Allocated to registers ;size:1
                                           ;@delay_ms OEP2                      Allocated to registers ;size:1
                                           ;@delay_ms PUP2                      Allocated to registers ;size:1
                                           ;@delay_ms PDP2                      Allocated to registers ;size:1
                                           ;@delay_ms PMOD                      Allocated to registers ;size:1
                                           ;@delay_ms PWMCR3                    Allocated to registers ;size:1
                                           ;@delay_ms PWMCR2                    Allocated to registers ;size:1
                                           ;@delay_ms PFRCCR                    Allocated to registers ;size:1
                                           ;@delay_ms PFRCCAL                   Allocated to registers ;size:1
                                           ;@delay_ms EECR                      Allocated to registers ;size:1
                                           ;@delay_ms EEPR                      Allocated to registers ;size:1
                                           ;@delay_ms EEAR                      Allocated to registers ;size:1
                                           ;@delay_ms EEDRH                     Allocated to registers ;size:1
                                           ;@delay_ms EEDRL                     Allocated to registers ;size:1
                                           ;@delay_ms DBGCR                     Allocated to registers ;size:1
                                           ;@delay_ms DBGPR                     Allocated to registers ;size:1
                                           ;@delay_ms HIRCCAL                   Allocated to registers ;size:1
                                           ;@end Allocation info for local variables in function 'delay_ms';
                                           ;@Allocation info for local variables in function 'send_data_msb'
                                           ;@send_data_msb send_data                 Allocated to registers r0x1022 r0x1021 r0x1020 r0x101F ;size:4
                                           ;@send_data_msb i                         Allocated to registers r0x1023 ;size:1
                                           ;@end Allocation info for local variables in function 'send_data_msb';
                                           ;@Allocation info for local variables in function 'CLR_RAM'
                                           ;@end Allocation info for local variables in function 'CLR_RAM';
                                           ;@Allocation info for local variables in function 'IO_Init'
                                           ;@end Allocation info for local variables in function 'IO_Init';
                                           ;@Allocation info for local variables in function 'adc_config'
                                           ;@end Allocation info for local variables in function 'adc_config';
                                           ;@Allocation info for local variables in function 'timer0_pwm_config'
                                           ;@end Allocation info for local variables in function 'timer0_pwm_config';
                                           ;@Allocation info for local variables in function 'timer3_config'
                                           ;@end Allocation info for local variables in function 'timer3_config';
                                           ;@Allocation info for local variables in function 'adc_sel_channel'
                                           ;@adc_sel_channel adc_channel               Allocated to registers r0x1010 ;size:1
                                           ;@adc_sel_channel last_adc_channel          Allocated to registers ;size:1
                                           ;@end Allocation info for local variables in function 'adc_sel_channel';
                                           ;@Allocation info for local variables in function 'adc_sel_channel'
                                           ;@adc_sel_channel adc_channel               Allocated to registers r0x1010 ;size:1
                                           ;@adc_sel_channel last_adc_channel          Allocated to registers ;size:1
                                           ;@end Allocation info for local variables in function 'adc_sel_channel';
                                           ;@Allocation info for local variables in function 'adc_get_val'
                                           ;@adc_get_val i                         Allocated to registers r0x1012 ;size:1
                                           ;@adc_get_val g_temp_value              Allocated to registers r0x1013 r0x1014 ;size:2
                                           ;@adc_get_val g_tmpbuff                 Allocated to registers r0x100E r0x100F r0x1015 r0x1017 ;size:4
                                           ;@adc_get_val g_adcmax                  Allocated to registers r0x100E r0x100F ;size:2
                                           ;@adc_get_val g_adcmin                  Allocated to registers r0x1010 r0x1011 ;size:2
                                           ;@end Allocation info for local variables in function 'adc_get_val';
                                           ;@Allocation info for local variables in function 'adc_get_max_val'
                                           ;@adc_get_max_val i                         Allocated to registers r0x100C ;size:1
                                           ;@adc_get_max_val g_temp_value              Allocated to registers r0x100D r0x100E ;size:2
                                           ;@adc_get_max_val g_adcmax                  Allocated to registers r0x100A r0x100B ;size:2
                                           ;@end Allocation info for local variables in function 'adc_get_max_val';
                                           ;@Allocation info for local variables in function 'adc_get_val_once'
                                           ;@adc_get_val_once g_temp_value              Allocated to registers r0x101C r0x101B ;size:2
                                           ;@end Allocation info for local variables in function 'adc_get_val_once';
                                           ;@Allocation info for local variables in function 'key_event_handle'
                                           ;@end Allocation info for local variables in function 'key_event_handle';
                                           ;@Allocation info for local variables in function 'Sys_Init'
                                           ;@end Allocation info for local variables in function 'Sys_Init';
                                           ;@Allocation info for local variables in function 'is_in_charging'
                                           ;@is_in_charging ret                       Allocated to registers r0x1010 ;size:1
                                           ;@end Allocation info for local variables in function 'is_in_charging';
                                           ;@Allocation info for local variables in function 'is_open_lid'
                                           ;@is_open_lid ret                       Allocated to registers r0x1010 ;size:1
                                           ;@end Allocation info for local variables in function 'is_open_lid';
                                           ;@Allocation info for local variables in function 'is_detect_load'
                                           ;@is_detect_load max_adc_val               Allocated to registers r0x1013 r0x1014 ;size:2
                                           ;@end Allocation info for local variables in function 'is_detect_load';
                                           ;@Allocation info for local variables in function 'main'
                                           ;@end Allocation info for local variables in function 'main';
                                           ;@Allocation info for local variables in function 'int_isr'
                                           ;@int_isr blink_cnt                 Allocated to registers ;size:2
                                           ;@end Allocation info for local variables in function 'int_isr';
                                           ;@Allocation info for local variables in function 'int_isr'
                                           ;@int_isr blink_cnt                 Allocated to registers ;size:2
                                           ;@end Allocation info for local variables in function 'int_isr';
                                           
                                           ;--------------------------------------------------------
                                           ; overlayable items in internal ram 
                                           ;--------------------------------------------------------
                                           ;	udata_ovr
                                           ;--------------------------------------------------------
                                           ; reset vector 
                                           ;--------------------------------------------------------
                                           STARTUP	code 0x0000
000000   a055     goto    0x55             	goto	_main
                                           ;--------------------------------------------------------
                                           ; interrupt and initialization code
                                           ;--------------------------------------------------------
                                           c_interrupt	code	0x8
                                           __sdcc_interrupt
                                           ;***
                                           ;  pBlock Stats: dbName = I
                                           ;***
                                           ;entry:  _int_isr	;Function start
                                           ; 0 exit points
                                           ;2 compiler assigned registers:
                                           ;   r0x1029
                                           ;   r0x102A
                                           ;; Starting pCode block
                                           _int_isr	;Function start
                                           ; 0 exit points
                                           ;	.line	540; "MC32F7361.c"	__endasm;
                                           	;
000008   562e     movra   0x2e             	movra	_abuf;
000009   4587     swapar  0x187            	swapar	_PFLAG;
00000a   562f     movra   0x2f             	movra	_statusbuf;
                                           	
                                           ;	.line	542; "MC32F7361.c"	if (KBIF & KBIE)
00000b   7624     clrr    0x24             	CLRR	r0x1029
00000c   f98b     jbclr   0x18b, 0x4       	JBCLR	_INTFbits,4
00000d   6624     incr    0x24             	INCR	r0x1029
00000e   7625     clrr    0x25             	CLRR	r0x102A
00000f   f98a     jbclr   0x18a, 0x4       	JBCLR	_INTEbits,4
000010   6625     incr    0x25             	INCR	r0x102A
000011   5825     movar   0x25             	MOVAR	r0x102A
000012   7a24     andra   0x24             	ANDRA	r0x1029
000013   3c00     movai   0                	MOVAI	0x00
000014   5c24     orar    0x24             	ORAR	r0x1029
000015   f587     jbclr   0x187, 0x2       	JBCLR	PFLAG,2
000016   a018     goto    0x18             	GOTO	_00545_DS_
                                           ;	.line	544; "MC32F7361.c"	KBIF = 0;
000017   d98b     bclr    0x18b, 0x4       	BCLR	_INTFbits,4
                                           _00545_DS_
                                           ;	.line	547; "MC32F7361.c"	if (T3IF & T3IE)
000018   7624     clrr    0x24             	CLRR	r0x1029
000019   ff8b     jbclr   0x18b, 0x7       	JBCLR	_INTFbits,7
00001a   6624     incr    0x24             	INCR	r0x1029
00001b   7625     clrr    0x25             	CLRR	r0x102A
00001c   ff8a     jbclr   0x18a, 0x7       	JBCLR	_INTEbits,7
00001d   6625     incr    0x25             	INCR	r0x102A
00001e   5825     movar   0x25             	MOVAR	r0x102A
00001f   7a24     andra   0x24             	ANDRA	r0x1029
000020   3c00     movai   0                	MOVAI	0x00
000021   5c24     orar    0x24             	ORAR	r0x1029
000022   f587     jbclr   0x187, 0x2       	JBCLR	PFLAG,2
000023   a050     goto    0x50             	GOTO	_00568_DS_
                                           ;	.line	551; "MC32F7361.c"	if (CUR_STATUS_IN_CHARGING == cur_dev_status && flag_is_low_bat)
000024   582d     movar   0x2d             	MOVAR	_cur_dev_status
000025   3902     xorai   0x2              	XORAI	0x02
000026   e587     jbset   0x187, 0x2       	JBSET	PFLAG,2
000027   a04c     goto    0x4c             	GOTO	_00560_DS_
000028   e833     jbset   0x33, 0x4        	JBSET	_flag1,4
000029   a04c     goto    0x4c             	GOTO	_00560_DS_
                                           ;;unsigned compare: left < lit(0xFFFF=65535), size=2
                                           ;	.line	553; "MC32F7361.c"	if (blink_cnt < 65535)
00002a   3cff     movai   0xff             	MOVAI	0xff
00002b   4828     rsubar  0x28             	RSUBAR	(_int_isr_blink_cnt_131072_133 + 1)
00002c   e587     jbset   0x187, 0x2       	JBSET	PFLAG,2
00002d   a030     goto    0x30             	GOTO	_00599_DS_
00002e   3cff     movai   0xff             	MOVAI	0xff
00002f   4827     rsubar  0x27             	RSUBAR	_int_isr_blink_cnt_131072_133
                                           _00599_DS_
000030   f187     jbclr   0x187, 0         	JBCLR	PFLAG,0
000031   a035     goto    0x35             	GOTO	_00547_DS_
                                           ;;genSkipc:3291: created from rifx:013B5EFC
                                           ;	.line	554; "MC32F7361.c"	blink_cnt++;
000032   6627     incr    0x27             	INCR	_int_isr_blink_cnt_131072_133
000033   f587     jbclr   0x187, 0x2       	JBCLR	PFLAG,2
000034   6628     incr    0x28             	INCR	(_int_isr_blink_cnt_131072_133 + 1)
                                           ;;swapping arguments (AOP_TYPEs 1/3)
                                           ;;unsigned compare: left >= lit(0x1F5=501), size=2
                                           _00547_DS_
                                           ;	.line	555; "MC32F7361.c"	if (blink_cnt <= 500)
000035   3c01     movai   0x1              	MOVAI	0x01
000036   4828     rsubar  0x28             	RSUBAR	(_int_isr_blink_cnt_131072_133 + 1)
000037   e587     jbset   0x187, 0x2       	JBSET	PFLAG,2
000038   a03b     goto    0x3b             	GOTO	_00600_DS_
000039   3cf5     movai   0xf5             	MOVAI	0xf5
00003a   4827     rsubar  0x27             	RSUBAR	_int_isr_blink_cnt_131072_133
                                           _00600_DS_
00003b   f187     jbclr   0x187, 0         	JBCLR	PFLAG,0
00003c   a03f     goto    0x3f             	GOTO	_00558_DS_
                                           ;;genSkipc:3291: created from rifx:013B5EFC
                                           ;	.line	557; "MC32F7361.c"	LED_RED_ON();
00003d   cf94     bset    0x194, 0x7       	BSET	_IOP1bits,7
00003e   a04f     goto    0x4f             	GOTO	_00565_DS_
                                           ;;swapping arguments (AOP_TYPEs 1/3)
                                           ;;unsigned compare: left >= lit(0x3E9=1001), size=2
                                           _00558_DS_
                                           ;	.line	559; "MC32F7361.c"	else if (blink_cnt <= 1000)
00003f   3c03     movai   0x3              	MOVAI	0x03
000040   4828     rsubar  0x28             	RSUBAR	(_int_isr_blink_cnt_131072_133 + 1)
000041   e587     jbset   0x187, 0x2       	JBSET	PFLAG,2
000042   a045     goto    0x45             	GOTO	_00601_DS_
000043   3ce9     movai   0xe9             	MOVAI	0xe9
000044   4827     rsubar  0x27             	RSUBAR	_int_isr_blink_cnt_131072_133
                                           _00601_DS_
000045   f187     jbclr   0x187, 0         	JBCLR	PFLAG,0
000046   a049     goto    0x49             	GOTO	_00555_DS_
                                           ;;genSkipc:3291: created from rifx:013B5EFC
                                           ;	.line	561; "MC32F7361.c"	LED_RED_OFF();
000047   df94     bclr    0x194, 0x7       	BCLR	_IOP1bits,7
000048   a04f     goto    0x4f             	GOTO	_00565_DS_
                                           _00555_DS_
                                           ;	.line	565; "MC32F7361.c"	blink_cnt = 0;
000049   7627     clrr    0x27             	CLRR	_int_isr_blink_cnt_131072_133
00004a   7628     clrr    0x28             	CLRR	(_int_isr_blink_cnt_131072_133 + 1)
00004b   a04f     goto    0x4f             	GOTO	_00565_DS_
                                           _00560_DS_
                                           ;	.line	570; "MC32F7361.c"	LED_RED_OFF();
00004c   df94     bclr    0x194, 0x7       	BCLR	_IOP1bits,7
                                           ;	.line	571; "MC32F7361.c"	blink_cnt = 0;
00004d   7627     clrr    0x27             	CLRR	_int_isr_blink_cnt_131072_133
00004e   7628     clrr    0x28             	CLRR	(_int_isr_blink_cnt_131072_133 + 1)
                                           _00565_DS_
                                           ;	.line	574; "MC32F7361.c"	T3IF = 0;
00004f   df8b     bclr    0x18b, 0x7       	BCLR	_INTFbits,7
                                           _00568_DS_
                                           ;	.line	582; "MC32F7361.c"	__endasm;
                                           	;
000050   442f     swapar  0x2f             	swapar	_statusbuf;
000051   5787     movra   0x187            	movra	_PFLAG;
000052   462e     swapr   0x2e             	swapr	_abuf;
000053   442e     swapar  0x2e             	swapar	_abuf;
                                           	
                                           END_OF_INTERRUPT
                                           ;	.line	583; "MC32F7361.c"	}
000054   000d     retie                    	RETIE	
                                           
                                           ;--------------------------------------------------------
                                           ; code
                                           ;--------------------------------------------------------
                                           code_MC32F7361	code
                                           ;***
                                           ;  pBlock Stats: dbName = M
                                           ;***
                                           ;entry:  _main	;Function start
                                           ; 2 exit points
                                           ;has an exit
                                           ;functions called:
                                           ;   _Sys_Init
                                           ;   _delay_ms
                                           ;   _is_open_lid
                                           ;   _delay_ms
                                           ;   _is_detect_load
                                           ;   _is_in_charging
                                           ;   _is_detect_load
                                           ;   _is_open_lid
                                           ;   _adc_sel_channel
                                           ;   _adc_get_val
                                           ;   _is_in_charging
                                           ;   _adc_sel_channel
                                           ;   _adc_get_val
                                           ;   _is_in_charging
                                           ;   _is_in_charging
                                           ;   _Sys_Init
                                           ;   _delay_ms
                                           ;   _is_open_lid
                                           ;   _delay_ms
                                           ;   _is_detect_load
                                           ;   _is_in_charging
                                           ;   _is_detect_load
                                           ;   _is_open_lid
                                           ;   _adc_sel_channel
                                           ;   _adc_get_val
                                           ;   _is_in_charging
                                           ;   _adc_sel_channel
                                           ;   _adc_get_val
                                           ;   _is_in_charging
                                           ;   _is_in_charging
                                           ;1 compiler assigned register :
                                           ;   STK00
                                           ;; Starting pCode block
                                           _main	;Function start
                                           ; 2 exit points
                                           ;	.line	390; "MC32F7361.c"	Sys_Init();
000055   8169     call    0x169            	CALL	_Sys_Init
                                           ;	.line	391; "MC32F7361.c"	delay_ms(10);
000056   3c0a     movai   0xa              	MOVAI	0x0a
000057   5606     movra   0x6              	MOVRA	STK00
000058   3c00     movai   0                	MOVAI	0x00
000059   830f     call    0x30f            	CALL	_delay_ms
                                           _00474_DS_
                                           ;	.line	396; "MC32F7361.c"	if (CUR_STATUS_NONE == cur_dev_status)
00005a   3c00     movai   0                	MOVAI	0x00
00005b   5c2d     orar    0x2d             	ORAR	_cur_dev_status
00005c   e587     jbset   0x187, 0x2       	JBSET	PFLAG,2
00005d   a084     goto    0x84             	GOTO	_00471_DS_
                                           ;	.line	401; "MC32F7361.c"	ret_u8 = is_open_lid();
00005e   810b     call    0x10b            	CALL	_is_open_lid
00005f   5632     movra   0x32             	MOVRA	_ret_u8
                                           ;	.line	402; "MC32F7361.c"	if (0 == ret_u8)
000060   3c00     movai   0                	MOVAI	0x00
000061   5c32     orar    0x32             	ORAR	_ret_u8
000062   e587     jbset   0x187, 0x2       	JBSET	PFLAG,2
000063   a077     goto    0x77             	GOTO	_00399_DS_
                                           ;	.line	408; "MC32F7361.c"	PWM_ENABEL();
000064   cd98     bset    0x198, 0x6       	BSET	_T0CRbits,6
000065   cf98     bset    0x198, 0x7       	BSET	_T0CRbits,7
                                           ;	.line	410; "MC32F7361.c"	delay_ms(1);
000066   3c01     movai   0x1              	MOVAI	0x01
000067   5606     movra   0x6              	MOVRA	STK00
000068   3c00     movai   0                	MOVAI	0x00
000069   830f     call    0x30f            	CALL	_delay_ms
                                           ;	.line	411; "MC32F7361.c"	ret_u8 = is_detect_load();
00006a   80e4     call    0xe4             	CALL	_is_detect_load
00006b   5632     movra   0x32             	MOVRA	_ret_u8
                                           ;	.line	412; "MC32F7361.c"	if (ret_u8)
00006c   3c00     movai   0                	MOVAI	0x00
00006d   5c32     orar    0x32             	ORAR	_ret_u8
00006e   f587     jbclr   0x187, 0x2       	JBCLR	PFLAG,2
00006f   a074     goto    0x74             	GOTO	_00389_DS_
                                           ;	.line	415; "MC32F7361.c"	LED_GREEN_ON();
000070   c190     bset    0x190, 0         	BSET	_IOP0bits,0
                                           ;	.line	416; "MC32F7361.c"	cur_dev_status = CUR_STATUS_IN_CHARGING;
000071   3c02     movai   0x2              	MOVAI	0x02
000072   562d     movra   0x2d             	MOVRA	_cur_dev_status
000073   a077     goto    0x77             	GOTO	_00399_DS_
                                           _00389_DS_
                                           ;	.line	421; "MC32F7361.c"	LED_GREEN_OFF();
000074   d190     bclr    0x190, 0         	BCLR	_IOP0bits,0
                                           ;	.line	422; "MC32F7361.c"	PWM_DISABEL(); // pwm
000075   dd98     bclr    0x198, 0x6       	BCLR	_T0CRbits,6
000076   df98     bclr    0x198, 0x7       	BCLR	_T0CRbits,7
                                           _00399_DS_
                                           ;	.line	426; "MC32F7361.c"	ret_u8 = is_in_charging();
000077   813a     call    0x13a            	CALL	_is_in_charging
000078   5632     movra   0x32             	MOVRA	_ret_u8
                                           ;	.line	427; "MC32F7361.c"	if (ret_u8)
000079   3c00     movai   0                	MOVAI	0x00
00007a   5c32     orar    0x32             	ORAR	_ret_u8
00007b   f587     jbclr   0x187, 0x2       	JBCLR	PFLAG,2
00007c   a05a     goto    0x5a             	GOTO	_00474_DS_
                                           ;	.line	430; "MC32F7361.c"	LED_GREEN_OFF();
00007d   d190     bclr    0x190, 0         	BCLR	_IOP0bits,0
                                           ;	.line	431; "MC32F7361.c"	PWM_DISABEL(); // pwm
00007e   dd98     bclr    0x198, 0x6       	BCLR	_T0CRbits,6
00007f   df98     bclr    0x198, 0x7       	BCLR	_T0CRbits,7
                                           ;	.line	434; "MC32F7361.c"	LED_RED_ON();
000080   cf94     bset    0x194, 0x7       	BSET	_IOP1bits,7
                                           ;	.line	435; "MC32F7361.c"	cur_dev_status = CUR_STATUS_BE_CHARGING; //
000081   3c01     movai   0x1              	MOVAI	0x01
000082   562d     movra   0x2d             	MOVRA	_cur_dev_status
000083   a05a     goto    0x5a             	GOTO	_00474_DS_
                                           _00471_DS_
                                           ;	.line	438; "MC32F7361.c"	else if (CUR_STATUS_IN_CHARGING == cur_dev_status)
000084   582d     movar   0x2d             	MOVAR	_cur_dev_status
000085   3902     xorai   0x2              	XORAI	0x02
000086   e587     jbset   0x187, 0x2       	JBSET	PFLAG,2
000087   a0bd     goto    0xbd             	GOTO	_00468_DS_
                                           ;	.line	446; "MC32F7361.c"	ret_u8 = is_detect_load();
000088   80e4     call    0xe4             	CALL	_is_detect_load
000089   5632     movra   0x32             	MOVRA	_ret_u8
                                           ;	.line	447; "MC32F7361.c"	if (ret_u8)
00008a   3c00     movai   0                	MOVAI	0x00
00008b   5c32     orar    0x32             	ORAR	_ret_u8
00008c   f587     jbclr   0x187, 0x2       	JBCLR	PFLAG,2
00008d   a090     goto    0x90             	GOTO	_00414_DS_
                                           ;	.line	450; "MC32F7361.c"	LED_GREEN_ON();
00008e   c190     bset    0x190, 0         	BSET	_IOP0bits,0
00008f   a094     goto    0x94             	GOTO	_00422_DS_
                                           _00414_DS_
                                           ;	.line	455; "MC32F7361.c"	LED_GREEN_OFF();
000090   d190     bclr    0x190, 0         	BCLR	_IOP0bits,0
                                           ;	.line	456; "MC32F7361.c"	PWM_DISABEL(); // pwm
000091   dd98     bclr    0x198, 0x6       	BCLR	_T0CRbits,6
000092   df98     bclr    0x198, 0x7       	BCLR	_T0CRbits,7
                                           ;	.line	457; "MC32F7361.c"	cur_dev_status = CUR_STATUS_NONE;
000093   762d     clrr    0x2d             	CLRR	_cur_dev_status
                                           _00422_DS_
                                           ;	.line	460; "MC32F7361.c"	ret_u8 = is_open_lid();
000094   810b     call    0x10b            	CALL	_is_open_lid
000095   5632     movra   0x32             	MOVRA	_ret_u8
                                           ;	.line	461; "MC32F7361.c"	if (ret_u8)
000096   3c00     movai   0                	MOVAI	0x00
000097   5c32     orar    0x32             	ORAR	_ret_u8
000098   f587     jbclr   0x187, 0x2       	JBCLR	PFLAG,2
000099   a09e     goto    0x9e             	GOTO	_00430_DS_
                                           ;	.line	464; "MC32F7361.c"	LED_GREEN_OFF();
00009a   d190     bclr    0x190, 0         	BCLR	_IOP0bits,0
                                           ;	.line	465; "MC32F7361.c"	PWM_DISABEL(); // pwm
00009b   dd98     bclr    0x198, 0x6       	BCLR	_T0CRbits,6
00009c   df98     bclr    0x198, 0x7       	BCLR	_T0CRbits,7
                                           ;	.line	466; "MC32F7361.c"	cur_dev_status = CUR_STATUS_NONE;
00009d   762d     clrr    0x2d             	CLRR	_cur_dev_status
                                           _00430_DS_
                                           ;	.line	469; "MC32F7361.c"	adc_sel_channel(ADC_CHANNEL_BAT);
00009e   3c01     movai   0x1              	MOVAI	0x01
00009f   8261     call    0x261            	CALL	_adc_sel_channel
                                           ;	.line	470; "MC32F7361.c"	adc_val = adc_get_val();
0000a0   81c4     call    0x1c4            	CALL	_adc_get_val
0000a1   562a     movra   0x2a             	MOVRA	(_adc_val + 1)
0000a2   5806     movar   0x6              	MOVAR	STK00
0000a3   5629     movra   0x29             	MOVRA	_adc_val
                                           ;;unsigned compare: left < lit(0x5CD=1485), size=2
                                           ;	.line	471; "MC32F7361.c"	if (adc_val < 1485)
0000a4   3c05     movai   0x5              	MOVAI	0x05
0000a5   482a     rsubar  0x2a             	RSUBAR	(_adc_val + 1)
0000a6   e587     jbset   0x187, 0x2       	JBSET	PFLAG,2
0000a7   a0aa     goto    0xaa             	GOTO	_00538_DS_
0000a8   3ccd     movai   0xcd             	MOVAI	0xcd
0000a9   4829     rsubar  0x29             	RSUBAR	_adc_val
                                           _00538_DS_
0000aa   f187     jbclr   0x187, 0         	JBCLR	PFLAG,0
0000ab   a0b0     goto    0xb0             	GOTO	_00438_DS_
                                           ;;genSkipc:3291: created from rifx:013B5EFC
                                           ;	.line	475; "MC32F7361.c"	LED_GREEN_OFF();
0000ac   d190     bclr    0x190, 0         	BCLR	_IOP0bits,0
                                           ;	.line	476; "MC32F7361.c"	PWM_DISABEL(); // pwm
0000ad   dd98     bclr    0x198, 0x6       	BCLR	_T0CRbits,6
0000ae   df98     bclr    0x198, 0x7       	BCLR	_T0CRbits,7
                                           ;	.line	477; "MC32F7361.c"	cur_dev_status = CUR_STATUS_NONE;
0000af   762d     clrr    0x2d             	CLRR	_cur_dev_status
                                           _00438_DS_
                                           ;	.line	480; "MC32F7361.c"	ret_u8 = is_in_charging();
0000b0   813a     call    0x13a            	CALL	_is_in_charging
0000b1   5632     movra   0x32             	MOVRA	_ret_u8
                                           ;	.line	481; "MC32F7361.c"	if (ret_u8)
0000b2   3c00     movai   0                	MOVAI	0x00
0000b3   5c32     orar    0x32             	ORAR	_ret_u8
0000b4   f587     jbclr   0x187, 0x2       	JBCLR	PFLAG,2
0000b5   a05a     goto    0x5a             	GOTO	_00474_DS_
                                           ;	.line	484; "MC32F7361.c"	LED_GREEN_OFF();
0000b6   d190     bclr    0x190, 0         	BCLR	_IOP0bits,0
                                           ;	.line	485; "MC32F7361.c"	PWM_DISABEL(); // pwm
0000b7   dd98     bclr    0x198, 0x6       	BCLR	_T0CRbits,6
0000b8   df98     bclr    0x198, 0x7       	BCLR	_T0CRbits,7
                                           ;	.line	486; "MC32F7361.c"	LED_RED_ON();
0000b9   cf94     bset    0x194, 0x7       	BSET	_IOP1bits,7
                                           ;	.line	487; "MC32F7361.c"	cur_dev_status = CUR_STATUS_BE_CHARGING; //
0000ba   3c01     movai   0x1              	MOVAI	0x01
0000bb   562d     movra   0x2d             	MOVRA	_cur_dev_status
0000bc   a05a     goto    0x5a             	GOTO	_00474_DS_
                                           _00468_DS_
                                           ;	.line	490; "MC32F7361.c"	else if (CUR_STATUS_BE_CHARGING == cur_dev_status)
0000bd   582d     movar   0x2d             	MOVAR	_cur_dev_status
0000be   3901     xorai   0x1              	XORAI	0x01
0000bf   e587     jbset   0x187, 0x2       	JBSET	PFLAG,2
0000c0   a05a     goto    0x5a             	GOTO	_00474_DS_
                                           ;	.line	493; "MC32F7361.c"	adc_sel_channel(ADC_CHANNEL_BAT);
0000c1   3c01     movai   0x1              	MOVAI	0x01
0000c2   8261     call    0x261            	CALL	_adc_sel_channel
                                           ;	.line	494; "MC32F7361.c"	adc_val = adc_get_val();
0000c3   81c4     call    0x1c4            	CALL	_adc_get_val
0000c4   562a     movra   0x2a             	MOVRA	(_adc_val + 1)
0000c5   5806     movar   0x6              	MOVAR	STK00
0000c6   5629     movra   0x29             	MOVRA	_adc_val
                                           ;;unsigned compare: left < lit(0x84D=2125), size=2
                                           ;	.line	495; "MC32F7361.c"	if (adc_val >= 2125) // 4.15V
0000c7   3c08     movai   0x8              	MOVAI	0x08
0000c8   482a     rsubar  0x2a             	RSUBAR	(_adc_val + 1)
0000c9   e587     jbset   0x187, 0x2       	JBSET	PFLAG,2
0000ca   a0cd     goto    0xcd             	GOTO	_00539_DS_
0000cb   3c4d     movai   0x4d             	MOVAI	0x4d
0000cc   4829     rsubar  0x29             	RSUBAR	_adc_val
                                           _00539_DS_
0000cd   e187     jbset   0x187, 0         	JBSET	PFLAG,0
0000ce   a0da     goto    0xda             	GOTO	_00459_DS_
                                           ;;genSkipc:3291: created from rifx:013B5EFC
                                           ;	.line	497; "MC32F7361.c"	LED_RED_OFF();
0000cf   df94     bclr    0x194, 0x7       	BCLR	_IOP1bits,7
                                           _00456_DS_
                                           ;	.line	502; "MC32F7361.c"	ret_u8 = is_in_charging();
0000d0   813a     call    0x13a            	CALL	_is_in_charging
0000d1   5632     movra   0x32             	MOVRA	_ret_u8
                                           ;	.line	503; "MC32F7361.c"	if (0 == ret_u8)
0000d2   3c00     movai   0                	MOVAI	0x00
0000d3   5c32     orar    0x32             	ORAR	_ret_u8
0000d4   e587     jbset   0x187, 0x2       	JBSET	PFLAG,2
0000d5   a0d8     goto    0xd8             	GOTO	_00454_DS_
                                           ;	.line	505; "MC32F7361.c"	cur_dev_status = CUR_STATUS_NONE;
0000d6   762d     clrr    0x2d             	CLRR	_cur_dev_status
                                           ;	.line	506; "MC32F7361.c"	break;
0000d7   a0da     goto    0xda             	GOTO	_00459_DS_
                                           _00454_DS_
                                           ;	.line	511; "MC32F7361.c"	__endasm;
                                           	;
0000d8   000e     clrwdt                   	clrwdt;
                                           	
0000d9   a0d0     goto    0xd0             	GOTO	_00456_DS_
                                           _00459_DS_
                                           ;	.line	515; "MC32F7361.c"	ret_u8 = is_in_charging();
0000da   813a     call    0x13a            	CALL	_is_in_charging
0000db   5632     movra   0x32             	MOVRA	_ret_u8
                                           ;	.line	516; "MC32F7361.c"	if (0 == ret_u8)
0000dc   3c00     movai   0                	MOVAI	0x00
0000dd   5c32     orar    0x32             	ORAR	_ret_u8
0000de   e587     jbset   0x187, 0x2       	JBSET	PFLAG,2
0000df   a05a     goto    0x5a             	GOTO	_00474_DS_
                                           ;	.line	518; "MC32F7361.c"	LED_RED_OFF();
0000e0   df94     bclr    0x194, 0x7       	BCLR	_IOP1bits,7
                                           ;	.line	519; "MC32F7361.c"	cur_dev_status = CUR_STATUS_NONE; 
0000e1   762d     clrr    0x2d             	CLRR	_cur_dev_status
0000e2   a05a     goto    0x5a             	GOTO	_00474_DS_
                                           ;	.line	527; "MC32F7361.c"	}
0000e3   000c     return                   	RETURN	
                                           ; exit point of _main
                                           
                                           ;***
                                           ;  pBlock Stats: dbName = C
                                           ;***
                                           ;entry:  _is_detect_load	;Function start
                                           ; 2 exit points
                                           ;has an exit
                                           ;functions called:
                                           ;   _adc_sel_channel
                                           ;   _adc_get_max_val
                                           ;   _adc_sel_channel
                                           ;   _adc_get_max_val
                                           ;3 compiler assigned registers:
                                           ;   r0x1013
                                           ;   r0x1014
                                           ;   STK00
                                           ;; Starting pCode block
                                           _is_detect_load	;Function start
                                           ; 2 exit points
                                           ;	.line	359; "MC32F7361.c"	u16 max_adc_val = 0;
0000e4   761a     clrr    0x1a             	CLRR	r0x1013
0000e5   761b     clrr    0x1b             	CLRR	r0x1014
                                           ;	.line	360; "MC32F7361.c"	adc_sel_channel(ADC_CHANNEL_LOAD);
0000e6   3c02     movai   0x2              	MOVAI	0x02
0000e7   8261     call    0x261            	CALL	_adc_sel_channel
                                           ;	.line	361; "MC32F7361.c"	for (i = 0; i < 100; i++)
0000e8   7630     clrr    0x30             	CLRR	_i
                                           ;;unsigned compare: left < lit(0x64=100), size=1
                                           _00356_DS_
0000e9   3c64     movai   0x64             	MOVAI	0x64
0000ea   4830     rsubar  0x30             	RSUBAR	_i
0000eb   f187     jbclr   0x187, 0         	JBCLR	PFLAG,0
0000ec   a0ff     goto    0xff             	GOTO	_00351_DS_
                                           ;;genSkipc:3291: created from rifx:013B5EFC
                                           ;	.line	363; "MC32F7361.c"	adc_val = adc_get_max_val();
0000ed   8192     call    0x192            	CALL	_adc_get_max_val
0000ee   562a     movra   0x2a             	MOVRA	(_adc_val + 1)
0000ef   5806     movar   0x6              	MOVAR	STK00
0000f0   5629     movra   0x29             	MOVRA	_adc_val
                                           ;	.line	364; "MC32F7361.c"	if (adc_val > max_adc_val)
0000f1   582a     movar   0x2a             	MOVAR	(_adc_val + 1)
0000f2   481b     rsubar  0x1b             	RSUBAR	r0x1014
0000f3   e587     jbset   0x187, 0x2       	JBSET	PFLAG,2
0000f4   a0f7     goto    0xf7             	GOTO	_00377_DS_
0000f5   5829     movar   0x29             	MOVAR	_adc_val
0000f6   481a     rsubar  0x1a             	RSUBAR	r0x1013
                                           _00377_DS_
0000f7   f187     jbclr   0x187, 0         	JBCLR	PFLAG,0
0000f8   a0fd     goto    0xfd             	GOTO	_00357_DS_
                                           ;;genSkipc:3291: created from rifx:013B5EFC
                                           ;	.line	366; "MC32F7361.c"	max_adc_val = adc_val;
0000f9   5829     movar   0x29             	MOVAR	_adc_val
0000fa   561a     movra   0x1a             	MOVRA	r0x1013
0000fb   582a     movar   0x2a             	MOVAR	(_adc_val + 1)
0000fc   561b     movra   0x1b             	MOVRA	r0x1014
                                           _00357_DS_
                                           ;	.line	361; "MC32F7361.c"	for (i = 0; i < 100; i++)
0000fd   6630     incr    0x30             	INCR	_i
0000fe   a0e9     goto    0xe9             	GOTO	_00356_DS_
                                           ;;swapping arguments (AOP_TYPEs 1/2)
                                           ;;unsigned compare: left >= lit(0xBB9=3001), size=2
                                           _00351_DS_
                                           ;	.line	370; "MC32F7361.c"	if (max_adc_val > 3000)
0000ff   3c0b     movai   0xb              	MOVAI	0x0b
000100   481b     rsubar  0x1b             	RSUBAR	r0x1014
000101   e587     jbset   0x187, 0x2       	JBSET	PFLAG,2
000102   a105     goto    0x105            	GOTO	_00378_DS_
000103   3cb9     movai   0xb9             	MOVAI	0xb9
000104   481a     rsubar  0x1a             	RSUBAR	r0x1013
                                           _00378_DS_
000105   e187     jbset   0x187, 0         	JBSET	PFLAG,0
000106   a109     goto    0x109            	GOTO	_00353_DS_
                                           ;;genSkipc:3291: created from rifx:013B5EFC
                                           ;	.line	373; "MC32F7361.c"	return 0;
000107   3c00     movai   0                	MOVAI	0x00
000108   a10a     goto    0x10a            	GOTO	_00358_DS_
                                           _00353_DS_
                                           ;	.line	378; "MC32F7361.c"	return 1;
000109   3c01     movai   0x1              	MOVAI	0x01
                                           _00358_DS_
                                           ;	.line	380; "MC32F7361.c"	}
00010a   000c     return                   	RETURN	
                                           ; exit point of _is_detect_load
                                           
                                           ;***
                                           ;  pBlock Stats: dbName = C
                                           ;***
                                           ;entry:  _is_open_lid	;Function start
                                           ; 2 exit points
                                           ;has an exit
                                           ;functions called:
                                           ;   _delay_ms
                                           ;   _delay_ms
                                           ;   _delay_ms
                                           ;   _delay_ms
                                           ;2 compiler assigned registers:
                                           ;   r0x1010
                                           ;   STK00
                                           ;; Starting pCode block
                                           _is_open_lid	;Function start
                                           ; 2 exit points
                                           ;	.line	313; "MC32F7361.c"	u8 ret = 0;
00010b   7617     clrr    0x17             	CLRR	r0x1010
                                           ;	.line	315; "MC32F7361.c"	if (P13D) // 
00010c   e794     jbset   0x194, 0x3       	JBSET	_IOP1bits,3
00010d   a124     goto    0x124            	GOTO	_00338_DS_
                                           ;	.line	317; "MC32F7361.c"	cnt = 0;
00010e   7631     clrr    0x31             	CLRR	_cnt
                                           ;	.line	318; "MC32F7361.c"	for (i = 0; i < 200; i++)
00010f   7630     clrr    0x30             	CLRR	_i
                                           ;;unsigned compare: left < lit(0xC8=200), size=1
                                           _00341_DS_
000110   3cc8     movai   0xc8             	MOVAI	0xc8
000111   4830     rsubar  0x30             	RSUBAR	_i
000112   f187     jbclr   0x187, 0         	JBCLR	PFLAG,0
000113   a11d     goto    0x11d            	GOTO	_00329_DS_
                                           ;;genSkipc:3291: created from rifx:013B5EFC
                                           ;	.line	320; "MC32F7361.c"	if (P13D)
000114   e794     jbset   0x194, 0x3       	JBSET	_IOP1bits,3
000115   a117     goto    0x117            	GOTO	_00328_DS_
                                           ;	.line	322; "MC32F7361.c"	cnt++;
000116   6631     incr    0x31             	INCR	_cnt
                                           _00328_DS_
                                           ;	.line	325; "MC32F7361.c"	delay_ms(1);
000117   3c01     movai   0x1              	MOVAI	0x01
000118   5606     movra   0x6              	MOVRA	STK00
000119   3c00     movai   0                	MOVAI	0x00
00011a   830f     call    0x30f            	CALL	_delay_ms
                                           ;	.line	318; "MC32F7361.c"	for (i = 0; i < 200; i++)
00011b   6630     incr    0x30             	INCR	_i
00011c   a110     goto    0x110            	GOTO	_00341_DS_
                                           ;;unsigned compare: left < lit(0xC8=200), size=1
                                           _00329_DS_
                                           ;	.line	328; "MC32F7361.c"	if (cnt >= 200)
00011d   3cc8     movai   0xc8             	MOVAI	0xc8
00011e   4831     rsubar  0x31             	RSUBAR	_cnt
00011f   e187     jbset   0x187, 0         	JBSET	PFLAG,0
000120   a138     goto    0x138            	GOTO	_00339_DS_
                                           ;;genSkipc:3291: created from rifx:013B5EFC
                                           ;	.line	330; "MC32F7361.c"	ret = 1;
000121   3c01     movai   0x1              	MOVAI	0x01
000122   5617     movra   0x17             	MOVRA	r0x1010
000123   a138     goto    0x138            	GOTO	_00339_DS_
                                           _00338_DS_
                                           ;	.line	335; "MC32F7361.c"	cnt = 0;
000124   7631     clrr    0x31             	CLRR	_cnt
                                           ;	.line	336; "MC32F7361.c"	for (i = 0; i < 200; i++)
000125   7630     clrr    0x30             	CLRR	_i
                                           ;;unsigned compare: left < lit(0xC8=200), size=1
                                           _00344_DS_
000126   3cc8     movai   0xc8             	MOVAI	0xc8
000127   4830     rsubar  0x30             	RSUBAR	_i
000128   f187     jbclr   0x187, 0         	JBCLR	PFLAG,0
000129   a133     goto    0x133            	GOTO	_00334_DS_
                                           ;;genSkipc:3291: created from rifx:013B5EFC
                                           ;	.line	338; "MC32F7361.c"	if (0 == P13D)
00012a   f794     jbclr   0x194, 0x3       	JBCLR	_IOP1bits,3
00012b   a12d     goto    0x12d            	GOTO	_00333_DS_
                                           ;	.line	340; "MC32F7361.c"	cnt++;
00012c   6631     incr    0x31             	INCR	_cnt
                                           _00333_DS_
                                           ;	.line	343; "MC32F7361.c"	delay_ms(1);
00012d   3c01     movai   0x1              	MOVAI	0x01
00012e   5606     movra   0x6              	MOVRA	STK00
00012f   3c00     movai   0                	MOVAI	0x00
000130   830f     call    0x30f            	CALL	_delay_ms
                                           ;	.line	336; "MC32F7361.c"	for (i = 0; i < 200; i++)
000131   6630     incr    0x30             	INCR	_i
000132   a126     goto    0x126            	GOTO	_00344_DS_
                                           ;;unsigned compare: left < lit(0xC8=200), size=1
                                           _00334_DS_
                                           ;	.line	346; "MC32F7361.c"	if (cnt >= 200)
000133   3cc8     movai   0xc8             	MOVAI	0xc8
000134   4831     rsubar  0x31             	RSUBAR	_cnt
000135   e187     jbset   0x187, 0         	JBSET	PFLAG,0
000136   a138     goto    0x138            	GOTO	_00339_DS_
                                           ;;genSkipc:3291: created from rifx:013B5EFC
                                           ;	.line	348; "MC32F7361.c"	ret = 0;
000137   7617     clrr    0x17             	CLRR	r0x1010
                                           _00339_DS_
                                           ;	.line	352; "MC32F7361.c"	return ret;
000138   5817     movar   0x17             	MOVAR	r0x1010
                                           ;	.line	353; "MC32F7361.c"	}
000139   000c     return                   	RETURN	
                                           ; exit point of _is_open_lid
                                           
                                           ;***
                                           ;  pBlock Stats: dbName = C
                                           ;***
                                           ;entry:  _is_in_charging	;Function start
                                           ; 2 exit points
                                           ;has an exit
                                           ;functions called:
                                           ;   _delay_ms
                                           ;   _delay_ms
                                           ;   _delay_ms
                                           ;   _delay_ms
                                           ;2 compiler assigned registers:
                                           ;   r0x1010
                                           ;   STK00
                                           ;; Starting pCode block
                                           _is_in_charging	;Function start
                                           ; 2 exit points
                                           ;	.line	262; "MC32F7361.c"	u8 ret = 0;
00013a   7617     clrr    0x17             	CLRR	r0x1010
                                           ;	.line	269; "MC32F7361.c"	if (CHARGE_PIN)
00013b   e990     jbset   0x190, 0x4       	JBSET	_IOP0bits,4
00013c   a153     goto    0x153            	GOTO	_00316_DS_
                                           ;	.line	271; "MC32F7361.c"	cnt = 0;
00013d   7631     clrr    0x31             	CLRR	_cnt
                                           ;	.line	272; "MC32F7361.c"	for (i = 0; i < 200; i++)
00013e   7630     clrr    0x30             	CLRR	_i
                                           ;;unsigned compare: left < lit(0xC8=200), size=1
                                           _00319_DS_
00013f   3cc8     movai   0xc8             	MOVAI	0xc8
000140   4830     rsubar  0x30             	RSUBAR	_i
000141   f187     jbclr   0x187, 0         	JBCLR	PFLAG,0
000142   a14c     goto    0x14c            	GOTO	_00307_DS_
                                           ;;genSkipc:3291: created from rifx:013B5EFC
                                           ;	.line	274; "MC32F7361.c"	if (CHARGE_PIN)
000143   e990     jbset   0x190, 0x4       	JBSET	_IOP0bits,4
000144   a146     goto    0x146            	GOTO	_00306_DS_
                                           ;	.line	276; "MC32F7361.c"	cnt++;
000145   6631     incr    0x31             	INCR	_cnt
                                           _00306_DS_
                                           ;	.line	279; "MC32F7361.c"	delay_ms(1);
000146   3c01     movai   0x1              	MOVAI	0x01
000147   5606     movra   0x6              	MOVRA	STK00
000148   3c00     movai   0                	MOVAI	0x00
000149   830f     call    0x30f            	CALL	_delay_ms
                                           ;	.line	272; "MC32F7361.c"	for (i = 0; i < 200; i++)
00014a   6630     incr    0x30             	INCR	_i
00014b   a13f     goto    0x13f            	GOTO	_00319_DS_
                                           ;;unsigned compare: left < lit(0xB4=180), size=1
                                           _00307_DS_
                                           ;	.line	282; "MC32F7361.c"	if (cnt >= 180)
00014c   3cb4     movai   0xb4             	MOVAI	0xb4
00014d   4831     rsubar  0x31             	RSUBAR	_cnt
00014e   e187     jbset   0x187, 0         	JBSET	PFLAG,0
00014f   a167     goto    0x167            	GOTO	_00317_DS_
                                           ;;genSkipc:3291: created from rifx:013B5EFC
                                           ;	.line	285; "MC32F7361.c"	ret = 1;
000150   3c01     movai   0x1              	MOVAI	0x01
000151   5617     movra   0x17             	MOVRA	r0x1010
000152   a167     goto    0x167            	GOTO	_00317_DS_
                                           _00316_DS_
                                           ;	.line	290; "MC32F7361.c"	cnt = 0;
000153   7631     clrr    0x31             	CLRR	_cnt
                                           ;	.line	291; "MC32F7361.c"	for (i = 0; i < 200; i++)
000154   7630     clrr    0x30             	CLRR	_i
                                           ;;unsigned compare: left < lit(0xC8=200), size=1
                                           _00322_DS_
000155   3cc8     movai   0xc8             	MOVAI	0xc8
000156   4830     rsubar  0x30             	RSUBAR	_i
000157   f187     jbclr   0x187, 0         	JBCLR	PFLAG,0
000158   a162     goto    0x162            	GOTO	_00312_DS_
                                           ;;genSkipc:3291: created from rifx:013B5EFC
                                           ;	.line	293; "MC32F7361.c"	if (0 == CHARGE_PIN)
000159   f990     jbclr   0x190, 0x4       	JBCLR	_IOP0bits,4
00015a   a15c     goto    0x15c            	GOTO	_00311_DS_
                                           ;	.line	295; "MC32F7361.c"	cnt++;
00015b   6631     incr    0x31             	INCR	_cnt
                                           _00311_DS_
                                           ;	.line	298; "MC32F7361.c"	delay_ms(1);
00015c   3c01     movai   0x1              	MOVAI	0x01
00015d   5606     movra   0x6              	MOVRA	STK00
00015e   3c00     movai   0                	MOVAI	0x00
00015f   830f     call    0x30f            	CALL	_delay_ms
                                           ;	.line	291; "MC32F7361.c"	for (i = 0; i < 200; i++)
000160   6630     incr    0x30             	INCR	_i
000161   a155     goto    0x155            	GOTO	_00322_DS_
                                           ;;unsigned compare: left < lit(0xB4=180), size=1
                                           _00312_DS_
                                           ;	.line	301; "MC32F7361.c"	if (cnt >= 180)
000162   3cb4     movai   0xb4             	MOVAI	0xb4
000163   4831     rsubar  0x31             	RSUBAR	_cnt
000164   e187     jbset   0x187, 0         	JBSET	PFLAG,0
000165   a167     goto    0x167            	GOTO	_00317_DS_
                                           ;;genSkipc:3291: created from rifx:013B5EFC
                                           ;	.line	304; "MC32F7361.c"	ret = 0;
000166   7617     clrr    0x17             	CLRR	r0x1010
                                           _00317_DS_
                                           ;	.line	308; "MC32F7361.c"	return ret;
000167   5817     movar   0x17             	MOVAR	r0x1010
                                           ;	.line	309; "MC32F7361.c"	}
000168   000c     return                   	RETURN	
                                           ; exit point of _is_in_charging
                                           
                                           ;***
                                           ;  pBlock Stats: dbName = C
                                           ;***
                                           ;entry:  _Sys_Init	;Function start
                                           ; 2 exit points
                                           ;has an exit
                                           ;functions called:
                                           ;   _CLR_RAM
                                           ;   _IO_Init
                                           ;   _timer0_pwm_config
                                           ;   _adc_config
                                           ;   _CLR_RAM
                                           ;   _IO_Init
                                           ;   _timer0_pwm_config
                                           ;   _adc_config
                                           ;; Starting pCode block
                                           _Sys_Init	;Function start
                                           ; 2 exit points
                                           ;	.line	232; "MC32F7361.c"	GIE = 0;
000169   df88     bclr    0x188, 0x7       	BCLR	_MCRbits,7
                                           ;	.line	233; "MC32F7361.c"	CLR_RAM();
00016a   82b2     call    0x2b2            	CALL	_CLR_RAM
                                           ;	.line	234; "MC32F7361.c"	IO_Init();
00016b   829d     call    0x29d            	CALL	_IO_Init
                                           ;	.line	236; "MC32F7361.c"	timer0_pwm_config();
00016c   8288     call    0x288            	CALL	_timer0_pwm_config
                                           ;	.line	237; "MC32F7361.c"	adc_config();
00016d   8294     call    0x294            	CALL	_adc_config
                                           ;	.line	246; "MC32F7361.c"	P04OE = 0; // 
00016e   d991     bclr    0x191, 0x4       	BCLR	_OEP0bits,4
                                           ;	.line	250; "MC32F7361.c"	P13PU = 0; // 
00016f   d796     bclr    0x196, 0x3       	BCLR	_PUP1bits,3
                                           ;	.line	251; "MC32F7361.c"	P13OE = 0; // 
000170   d795     bclr    0x195, 0x3       	BCLR	_OEP1bits,3
                                           ;	.line	252; "MC32F7361.c"	P13KE = 1; // 
000171   c78e     bset    0x18e, 0x3       	BSET	_P1KBCRbits,3
                                           ;	.line	254; "MC32F7361.c"	flag_is_enable_detect = 1;
000172   c633     bset    0x33, 0x3        	BSET	_flag1,3
                                           ;	.line	256; "MC32F7361.c"	GIE = 1;
000173   cf88     bset    0x188, 0x7       	BSET	_MCRbits,7
                                           ;	.line	257; "MC32F7361.c"	}
000174   000c     return                   	RETURN	
                                           ; exit point of _Sys_Init
                                           
                                           ;***
                                           ;  pBlock Stats: dbName = C
                                           ;***
                                           ;entry:  _key_event_handle	;Function start
                                           ; 2 exit points
                                           ;has an exit
                                           ;; Starting pCode block
                                           _key_event_handle	;Function start
                                           ; 2 exit points
                                           ;	.line	222; "MC32F7361.c"	}
000175   000c     return                   	RETURN	
                                           ; exit point of _key_event_handle
                                           
                                           ;***
                                           ;  pBlock Stats: dbName = C
                                           ;***
                                           ;entry:  _adc_get_val_once	;Function start
                                           ; 2 exit points
                                           ;has an exit
                                           ;7 compiler assigned registers:
                                           ;   r0x1019
                                           ;   r0x101A
                                           ;   r0x101B
                                           ;   r0x101C
                                           ;   r0x101D
                                           ;   r0x101E
                                           ;   STK00
                                           ;; Starting pCode block
                                           _adc_get_val_once	;Function start
                                           ; 2 exit points
                                           ;	.line	209; "MC32F7361.c"	ADEOC = 0; // ADCAD
000176   d3b0     bclr    0x1b0, 0x1       	BCLR	_ADCR0bits,1
                                           _00292_DS_
                                           ;	.line	210; "MC32F7361.c"	while (!ADEOC)
000177   e3b0     jbset   0x1b0, 0x1       	JBSET	_ADCR0bits,1
000178   a177     goto    0x177            	GOTO	_00292_DS_
                                           ;	.line	212; "MC32F7361.c"	g_temp_value = ADRH; // 
000179   59b4     movar   0x1b4            	MOVAR	_ADRH
00017a   5620     movra   0x20             	MOVRA	r0x1019
00017b   7621     clrr    0x21             	CLRR	r0x101A
                                           ;	.line	213; "MC32F7361.c"	g_temp_value = g_temp_value << 4 | (ADRL & 0x0F);
00017c   4421     swapar  0x21             	SWAPAR	r0x101A
00017d   3ef0     andai   0xf0             	ANDAI	0xf0
00017e   5623     movra   0x23             	MOVRA	r0x101B
00017f   4420     swapar  0x20             	SWAPAR	r0x1019
000180   5622     movra   0x22             	MOVRA	r0x101C
000181   3e0f     andai   0xf              	ANDAI	0x0f
000182   5e23     orra    0x23             	ORRA	r0x101B
000183   4222     xorra   0x22             	XORRA	r0x101C
000184   59b5     movar   0x1b5            	MOVAR	_ADRL
000185   5620     movra   0x20             	MOVRA	r0x1019
000186   7621     clrr    0x21             	CLRR	r0x101A
000187   3c0f     movai   0xf              	MOVAI	0x0f
000188   7a20     andra   0x20             	ANDRA	r0x1019
000189   7621     clrr    0x21             	CLRR	r0x101A
                                           ;;107	MOVAR	r0x1019
                                           ;;105	MOVRA	r0x101D
                                           ;;110	MOVAR	r0x101A
                                           ;;108	MOVRA	r0x101E
                                           ;;106	MOVAR	r0x101D
00018a   5820     movar   0x20             	MOVAR	r0x1019
00018b   5e22     orra    0x22             	ORRA	r0x101C
                                           ;;109	MOVAR	r0x101E
00018c   3c00     movai   0                	MOVAI	0x00
00018d   5e23     orra    0x23             	ORRA	r0x101B
                                           ;	.line	214; "MC32F7361.c"	return g_temp_value;
00018e   5822     movar   0x22             	MOVAR	r0x101C
00018f   5606     movra   0x6              	MOVRA	STK00
000190   5823     movar   0x23             	MOVAR	r0x101B
                                           ;	.line	215; "MC32F7361.c"	}
000191   000c     return                   	RETURN	
                                           ; exit point of _adc_get_val_once
                                           
                                           ;***
                                           ;  pBlock Stats: dbName = C
                                           ;***
                                           ;entry:  _adc_get_max_val	;Function start
                                           ; 2 exit points
                                           ;has an exit
                                           ;10 compiler assigned registers:
                                           ;   r0x100A
                                           ;   r0x100B
                                           ;   r0x100C
                                           ;   r0x100D
                                           ;   r0x100E
                                           ;   r0x100F
                                           ;   r0x1010
                                           ;   r0x1011
                                           ;   r0x1012
                                           ;   STK00
                                           ;; Starting pCode block
                                           _adc_get_max_val	;Function start
                                           ; 2 exit points
                                           ;	.line	187; "MC32F7361.c"	u16 g_adcmax = 0;
000192   7608     clrr    0x8              	CLRR	r0x100A
000193   7607     clrr    0x7              	CLRR	r0x100B
                                           ;	.line	190; "MC32F7361.c"	for (i = 0; i < 40; i++)
000194   7609     clrr    0x9              	CLRR	r0x100C
                                           _00257_DS_
                                           ;	.line	192; "MC32F7361.c"	ADEOC = 0; // ADCAD
000195   d3b0     bclr    0x1b0, 0x1       	BCLR	_ADCR0bits,1
                                           _00251_DS_
                                           ;	.line	193; "MC32F7361.c"	while (!ADEOC)
000196   e3b0     jbset   0x1b0, 0x1       	JBSET	_ADCR0bits,1
000197   a196     goto    0x196            	GOTO	_00251_DS_
                                           ;	.line	195; "MC32F7361.c"	g_temp_value = ADRH; // 
000198   59b4     movar   0x1b4            	MOVAR	_ADRH
000199   560a     movra   0xa              	MOVRA	r0x100D
00019a   760b     clrr    0xb              	CLRR	r0x100E
                                           ;	.line	196; "MC32F7361.c"	g_temp_value = g_temp_value << 4 | (ADRL & 0x0F);
00019b   440b     swapar  0xb              	SWAPAR	r0x100E
00019c   3ef0     andai   0xf0             	ANDAI	0xf0
00019d   560c     movra   0xc              	MOVRA	r0x100F
00019e   440a     swapar  0xa              	SWAPAR	r0x100D
00019f   5617     movra   0x17             	MOVRA	r0x1010
0001a0   3e0f     andai   0xf              	ANDAI	0x0f
0001a1   5e0c     orra    0xc              	ORRA	r0x100F
0001a2   4217     xorra   0x17             	XORRA	r0x1010
0001a3   59b5     movar   0x1b5            	MOVAR	_ADRL
0001a4   560a     movra   0xa              	MOVRA	r0x100D
0001a5   760b     clrr    0xb              	CLRR	r0x100E
0001a6   3c0f     movai   0xf              	MOVAI	0x0f
0001a7   7a0a     andra   0xa              	ANDRA	r0x100D
0001a8   760b     clrr    0xb              	CLRR	r0x100E
                                           ;;101	MOVAR	r0x100D
                                           ;;99	MOVRA	r0x1011
                                           ;;104	MOVAR	r0x100E
                                           ;;102	MOVRA	r0x1012
                                           ;;100	MOVAR	r0x1011
0001a9   580a     movar   0xa              	MOVAR	r0x100D
0001aa   5c17     orar    0x17             	ORAR	r0x1010
0001ab   560a     movra   0xa              	MOVRA	r0x100D
                                           ;;103	MOVAR	r0x1012
0001ac   3c00     movai   0                	MOVAI	0x00
0001ad   5c0c     orar    0xc              	ORAR	r0x100F
0001ae   560b     movra   0xb              	MOVRA	r0x100E
                                           ;	.line	198; "MC32F7361.c"	if (g_temp_value > g_adcmax)
0001af   580b     movar   0xb              	MOVAR	r0x100E
0001b0   4807     rsubar  0x7              	RSUBAR	r0x100B
0001b1   e587     jbset   0x187, 0x2       	JBSET	PFLAG,2
0001b2   a1b5     goto    0x1b5            	GOTO	_00287_DS_
0001b3   580a     movar   0xa              	MOVAR	r0x100D
0001b4   4808     rsubar  0x8              	RSUBAR	r0x100A
                                           _00287_DS_
0001b5   f187     jbclr   0x187, 0         	JBCLR	PFLAG,0
0001b6   a1bb     goto    0x1bb            	GOTO	_00258_DS_
                                           ;;genSkipc:3291: created from rifx:013B5EFC
                                           ;	.line	199; "MC32F7361.c"	g_adcmax = g_temp_value; // 
0001b7   580a     movar   0xa              	MOVAR	r0x100D
0001b8   5608     movra   0x8              	MOVRA	r0x100A
0001b9   580b     movar   0xb              	MOVAR	r0x100E
0001ba   5607     movra   0x7              	MOVRA	r0x100B
                                           _00258_DS_
                                           ;	.line	190; "MC32F7361.c"	for (i = 0; i < 40; i++)
0001bb   6609     incr    0x9              	INCR	r0x100C
                                           ;;unsigned compare: left < lit(0x28=40), size=1
0001bc   3c28     movai   0x28             	MOVAI	0x28
0001bd   4809     rsubar  0x9              	RSUBAR	r0x100C
0001be   e187     jbset   0x187, 0         	JBSET	PFLAG,0
0001bf   a195     goto    0x195            	GOTO	_00257_DS_
                                           ;;genSkipc:3291: created from rifx:013B5EFC
                                           ;	.line	202; "MC32F7361.c"	return g_adcmax;
0001c0   5808     movar   0x8              	MOVAR	r0x100A
0001c1   5606     movra   0x6              	MOVRA	STK00
0001c2   5807     movar   0x7              	MOVAR	r0x100B
                                           ;	.line	203; "MC32F7361.c"	}
0001c3   000c     return                   	RETURN	
                                           ; exit point of _adc_get_max_val
                                           
                                           ;***
                                           ;  pBlock Stats: dbName = C
                                           ;***
                                           ;entry:  _adc_get_val	;Function start
                                           ; 2 exit points
                                           ;has an exit
                                           ;16 compiler assigned registers:
                                           ;   r0x100A
                                           ;   r0x100B
                                           ;   r0x100C
                                           ;   r0x100D
                                           ;   r0x100E
                                           ;   r0x100F
                                           ;   r0x1010
                                           ;   r0x1011
                                           ;   r0x1012
                                           ;   r0x1013
                                           ;   r0x1014
                                           ;   r0x1015
                                           ;   r0x1016
                                           ;   r0x1017
                                           ;   r0x1018
                                           ;   STK00
                                           ;; Starting pCode block
                                           _adc_get_val	;Function start
                                           ; 2 exit points
                                           ;	.line	155; "MC32F7361.c"	u32 g_tmpbuff = 0;
0001c4   7608     clrr    0x8              	CLRR	r0x100A
0001c5   7607     clrr    0x7              	CLRR	r0x100B
0001c6   7609     clrr    0x9              	CLRR	r0x100C
0001c7   760a     clrr    0xa              	CLRR	r0x100D
                                           ;	.line	156; "MC32F7361.c"	u16 g_adcmax = 0;
0001c8   760b     clrr    0xb              	CLRR	r0x100E
0001c9   760c     clrr    0xc              	CLRR	r0x100F
                                           ;	.line	157; "MC32F7361.c"	u16 g_adcmin = 0xFFFF;
0001ca   3cff     movai   0xff             	MOVAI	0xff
0001cb   5617     movra   0x17             	MOVRA	r0x1010
0001cc   5618     movra   0x18             	MOVRA	r0x1011
                                           ;	.line	160; "MC32F7361.c"	for (i = 0; i < 20; i++)
0001cd   7619     clrr    0x19             	CLRR	r0x1012
                                           _00205_DS_
                                           ;	.line	162; "MC32F7361.c"	ADEOC = 0; // ADCAD
0001ce   d3b0     bclr    0x1b0, 0x1       	BCLR	_ADCR0bits,1
                                           _00194_DS_
                                           ;	.line	163; "MC32F7361.c"	while (!ADEOC)
0001cf   e3b0     jbset   0x1b0, 0x1       	JBSET	_ADCR0bits,1
0001d0   a1cf     goto    0x1cf            	GOTO	_00194_DS_
                                           ;	.line	165; "MC32F7361.c"	g_temp_value = ADRH; // 
0001d1   59b4     movar   0x1b4            	MOVAR	_ADRH
0001d2   561a     movra   0x1a             	MOVRA	r0x1013
0001d3   761b     clrr    0x1b             	CLRR	r0x1014
                                           ;	.line	166; "MC32F7361.c"	g_temp_value = g_temp_value << 4 | (ADRL & 0x0F);
0001d4   441b     swapar  0x1b             	SWAPAR	r0x1014
0001d5   3ef0     andai   0xf0             	ANDAI	0xf0
0001d6   561d     movra   0x1d             	MOVRA	r0x1015
0001d7   441a     swapar  0x1a             	SWAPAR	r0x1013
0001d8   561c     movra   0x1c             	MOVRA	r0x1016
0001d9   3e0f     andai   0xf              	ANDAI	0x0f
0001da   5e1d     orra    0x1d             	ORRA	r0x1015
0001db   421c     xorra   0x1c             	XORRA	r0x1016
0001dc   59b5     movar   0x1b5            	MOVAR	_ADRL
0001dd   561a     movra   0x1a             	MOVRA	r0x1013
0001de   761b     clrr    0x1b             	CLRR	r0x1014
0001df   3c0f     movai   0xf              	MOVAI	0x0f
0001e0   7a1a     andra   0x1a             	ANDRA	r0x1013
0001e1   761b     clrr    0x1b             	CLRR	r0x1014
                                           ;;126	MOVAR	r0x1013
0001e2   3c00     movai   0                	MOVAI	0x00
0001e3   561f     movra   0x1f             	MOVRA	r0x1018
                                           ;;125	MOVAR	r0x1017
0001e4   581a     movar   0x1a             	MOVAR	r0x1013
0001e5   561e     movra   0x1e             	MOVRA	r0x1017
0001e6   5c1c     orar    0x1c             	ORAR	r0x1016
0001e7   561a     movra   0x1a             	MOVRA	r0x1013
0001e8   581f     movar   0x1f             	MOVAR	r0x1018
0001e9   5c1d     orar    0x1d             	ORAR	r0x1015
0001ea   561b     movra   0x1b             	MOVRA	r0x1014
                                           ;;unsigned compare: left < lit(0x2=2), size=1
                                           ;	.line	167; "MC32F7361.c"	if (i < 2)
0001eb   3c02     movai   0x2              	MOVAI	0x02
0001ec   4819     rsubar  0x19             	RSUBAR	r0x1012
0001ed   e187     jbset   0x187, 0         	JBSET	PFLAG,0
0001ee   a219     goto    0x219            	GOTO	_00203_DS_
                                           ;;genSkipc:3291: created from rifx:013B5EFC
                                           ;	.line	169; "MC32F7361.c"	if (g_temp_value > g_adcmax)
0001ef   581b     movar   0x1b             	MOVAR	r0x1014
0001f0   480c     rsubar  0xc              	RSUBAR	r0x100F
0001f1   e587     jbset   0x187, 0x2       	JBSET	PFLAG,2
0001f2   a1f5     goto    0x1f5            	GOTO	_00245_DS_
0001f3   581a     movar   0x1a             	MOVAR	r0x1013
0001f4   480b     rsubar  0xb              	RSUBAR	r0x100E
                                           _00245_DS_
0001f5   f187     jbclr   0x187, 0         	JBCLR	PFLAG,0
0001f6   a1fb     goto    0x1fb            	GOTO	_00200_DS_
                                           ;;genSkipc:3291: created from rifx:013B5EFC
                                           ;	.line	170; "MC32F7361.c"	g_adcmax = g_temp_value; // 
0001f7   581a     movar   0x1a             	MOVAR	r0x1013
0001f8   560b     movra   0xb              	MOVRA	r0x100E
0001f9   581b     movar   0x1b             	MOVAR	r0x1014
0001fa   560c     movra   0xc              	MOVRA	r0x100F
                                           _00200_DS_
                                           ;	.line	171; "MC32F7361.c"	if (g_temp_value < g_adcmin)
0001fb   5818     movar   0x18             	MOVAR	r0x1011
0001fc   481b     rsubar  0x1b             	RSUBAR	r0x1014
0001fd   e587     jbset   0x187, 0x2       	JBSET	PFLAG,2
0001fe   a201     goto    0x201            	GOTO	_00246_DS_
0001ff   5817     movar   0x17             	MOVAR	r0x1010
000200   481a     rsubar  0x1a             	RSUBAR	r0x1013
                                           _00246_DS_
000201   f187     jbclr   0x187, 0         	JBCLR	PFLAG,0
000202   a207     goto    0x207            	GOTO	_00202_DS_
                                           ;;genSkipc:3291: created from rifx:013B5EFC
                                           ;	.line	172; "MC32F7361.c"	g_adcmin = g_temp_value; // 
000203   581a     movar   0x1a             	MOVAR	r0x1013
000204   5617     movra   0x17             	MOVRA	r0x1010
000205   581b     movar   0x1b             	MOVAR	r0x1014
000206   5618     movra   0x18             	MOVRA	r0x1011
                                           ;;122	MOVAR	r0x1013
                                           ;;124	MOVAR	r0x1014
                                           _00202_DS_
                                           ;	.line	173; "MC32F7361.c"	g_tmpbuff += g_temp_value;
000207   761e     clrr    0x1e             	CLRR	r0x1017
000208   761f     clrr    0x1f             	CLRR	r0x1018
                                           ;;121	MOVAR	r0x1016
000209   581a     movar   0x1a             	MOVAR	r0x1013
00020a   561c     movra   0x1c             	MOVRA	r0x1016
00020b   7e08     addra   0x8              	ADDRA	r0x100A
                                           ;;123	MOVAR	r0x1015
00020c   581b     movar   0x1b             	MOVAR	r0x1014
00020d   561d     movra   0x1d             	MOVRA	r0x1015
00020e   f187     jbclr   0x187, 0         	JBCLR	PFLAG,0
00020f   601d     jzar    0x1d             	JZAR	r0x1015
000210   7e07     addra   0x7              	ADDRA	r0x100B
000211   581e     movar   0x1e             	MOVAR	r0x1017
000212   f187     jbclr   0x187, 0         	JBCLR	PFLAG,0
000213   601e     jzar    0x1e             	JZAR	r0x1017
000214   7e09     addra   0x9              	ADDRA	r0x100C
000215   581f     movar   0x1f             	MOVAR	r0x1018
000216   f187     jbclr   0x187, 0         	JBCLR	PFLAG,0
000217   601f     jzar    0x1f             	JZAR	r0x1018
000218   7e0a     addra   0xa              	ADDRA	r0x100D
                                           _00203_DS_
                                           ;	.line	160; "MC32F7361.c"	for (i = 0; i < 20; i++)
000219   6619     incr    0x19             	INCR	r0x1012
                                           ;;unsigned compare: left < lit(0x14=20), size=1
00021a   3c14     movai   0x14             	MOVAI	0x14
00021b   4819     rsubar  0x19             	RSUBAR	r0x1012
00021c   e187     jbset   0x187, 0         	JBSET	PFLAG,0
00021d   a1ce     goto    0x1ce            	GOTO	_00205_DS_
                                           ;;genSkipc:3291: created from rifx:013B5EFC
                                           ;;120	MOVAR	r0x100E
                                           ;	.line	175; "MC32F7361.c"	g_tmpbuff -= g_adcmax;           // 
00021e   580c     movar   0xc              	MOVAR	r0x100F
00021f   561a     movra   0x1a             	MOVRA	r0x1013
000220   761b     clrr    0x1b             	CLRR	r0x1014
000221   761c     clrr    0x1c             	CLRR	r0x1016
                                           ;;119	MOVAR	r0x1012
000222   580b     movar   0xb              	MOVAR	r0x100E
000223   5619     movra   0x19             	MOVRA	r0x1012
000224   4808     rsubar  0x8              	RSUBAR	r0x100A
000225   560b     movra   0xb              	MOVRA	r0x100E
000226   5807     movar   0x7              	MOVAR	r0x100B
000227   560c     movra   0xc              	MOVRA	r0x100F
000228   581a     movar   0x1a             	MOVAR	r0x1013
000229   e187     jbset   0x187, 0         	JBSET	PFLAG,0
00022a   601a     jzar    0x1a             	JZAR	r0x1013
00022b   4a0c     rsubra  0xc              	RSUBRA	r0x100F
00022c   5809     movar   0x9              	MOVAR	r0x100C
00022d   561d     movra   0x1d             	MOVRA	r0x1015
00022e   581b     movar   0x1b             	MOVAR	r0x1014
00022f   e187     jbset   0x187, 0         	JBSET	PFLAG,0
000230   601b     jzar    0x1b             	JZAR	r0x1014
000231   4a1d     rsubra  0x1d             	RSUBRA	r0x1015
000232   581c     movar   0x1c             	MOVAR	r0x1016
000233   e187     jbset   0x187, 0         	JBSET	PFLAG,0
000234   641c     incar   0x1c             	INCAR	r0x1016
000235   480a     rsubar  0xa              	RSUBAR	r0x100D
000236   561e     movra   0x1e             	MOVRA	r0x1017
                                           ;;112	MOVAR	r0x1010
                                           ;;114	MOVAR	r0x1011
                                           ;	.line	176; "MC32F7361.c"	g_tmpbuff -= g_adcmin;           // 
000237   7609     clrr    0x9              	CLRR	r0x100C
000238   760a     clrr    0xa              	CLRR	r0x100D
                                           ;;111	MOVAR	r0x100A
000239   5817     movar   0x17             	MOVAR	r0x1010
00023a   5608     movra   0x8              	MOVRA	r0x100A
00023b   4a0b     rsubra  0xb              	RSUBRA	r0x100E
                                           ;;113	MOVAR	r0x100B
00023c   5818     movar   0x18             	MOVAR	r0x1011
00023d   5607     movra   0x7              	MOVRA	r0x100B
00023e   e187     jbset   0x187, 0         	JBSET	PFLAG,0
00023f   6007     jzar    0x7              	JZAR	r0x100B
000240   4a0c     rsubra  0xc              	RSUBRA	r0x100F
000241   5809     movar   0x9              	MOVAR	r0x100C
000242   e187     jbset   0x187, 0         	JBSET	PFLAG,0
000243   6009     jzar    0x9              	JZAR	r0x100C
000244   4a1d     rsubra  0x1d             	RSUBRA	r0x1015
000245   580a     movar   0xa              	MOVAR	r0x100D
000246   e187     jbset   0x187, 0         	JBSET	PFLAG,0
000247   600a     jzar    0xa              	JZAR	r0x100D
000248   4a1e     rsubra  0x1e             	RSUBRA	r0x1017
                                           ;	.line	177; "MC32F7361.c"	g_temp_value = (g_tmpbuff >> 4); // 16
000249   440b     swapar  0xb              	SWAPAR	r0x100E
00024a   3e0f     andai   0xf              	ANDAI	0x0f
00024b   5608     movra   0x8              	MOVRA	r0x100A
00024c   440c     swapar  0xc              	SWAPAR	r0x100F
00024d   5607     movra   0x7              	MOVRA	r0x100B
00024e   3ef0     andai   0xf0             	ANDAI	0xf0
00024f   5e08     orra    0x8              	ORRA	r0x100A
000250   4207     xorra   0x7              	XORRA	r0x100B
000251   441d     swapar  0x1d             	SWAPAR	r0x1015
000252   5609     movra   0x9              	MOVRA	r0x100C
000253   3ef0     andai   0xf0             	ANDAI	0xf0
000254   5e07     orra    0x7              	ORRA	r0x100B
000255   4209     xorra   0x9              	XORRA	r0x100C
000256   441e     swapar  0x1e             	SWAPAR	r0x1017
000257   560a     movra   0xa              	MOVRA	r0x100D
000258   3ef0     andai   0xf0             	ANDAI	0xf0
000259   5e09     orra    0x9              	ORRA	r0x100C
00025a   420a     xorra   0xa              	XORRA	r0x100D
                                           ;;116	MOVAR	r0x100A
                                           ;;118	MOVAR	r0x100B
                                           ;;115	MOVAR	r0x100E
                                           ;	.line	179; "MC32F7361.c"	return g_temp_value;
00025b   5808     movar   0x8              	MOVAR	r0x100A
00025c   560b     movra   0xb              	MOVRA	r0x100E
00025d   5606     movra   0x6              	MOVRA	STK00
                                           ;;117	MOVAR	r0x100F
00025e   5807     movar   0x7              	MOVAR	r0x100B
00025f   560c     movra   0xc              	MOVRA	r0x100F
                                           ;	.line	180; "MC32F7361.c"	}
000260   000c     return                   	RETURN	
                                           ; exit point of _adc_get_val
                                           
                                           ;***
                                           ;  pBlock Stats: dbName = C
                                           ;***
                                           ;entry:  _adc_sel_channel	;Function start
                                           ; 2 exit points
                                           ;has an exit
                                           ;functions called:
                                           ;   _delay_ms
                                           ;   _delay_ms
                                           ;2 compiler assigned registers:
                                           ;   r0x1010
                                           ;   STK00
                                           ;; Starting pCode block
                                           _adc_sel_channel	;Function start
                                           ; 2 exit points
                                           ;	.line	107; "MC32F7361.c"	void adc_sel_channel(u8 adc_channel)
000261   5617     movra   0x17             	MOVRA	r0x1010
                                           ;	.line	111; "MC32F7361.c"	if (last_adc_channel == adc_channel)
000262   5817     movar   0x17             	MOVAR	r0x1010
000263   4026     xorar   0x26             	XORAR	_adc_sel_channel_last_adc_channel_65536_24
000264   e587     jbset   0x187, 0x2       	JBSET	PFLAG,2
000265   a267     goto    0x267            	GOTO	_00169_DS_
                                           ;	.line	113; "MC32F7361.c"	return;
000266   a281     goto    0x281            	GOTO	_00174_DS_
                                           _00169_DS_
                                           ;	.line	116; "MC32F7361.c"	last_adc_channel = adc_channel;
000267   5817     movar   0x17             	MOVAR	r0x1010
000268   5626     movra   0x26             	MOVRA	_adc_sel_channel_last_adc_channel_65536_24
                                           ;	.line	118; "MC32F7361.c"	switch (adc_channel)
000269   5817     movar   0x17             	MOVAR	r0x1010
00026a   3901     xorai   0x1              	XORAI	0x01
00026b   e587     jbset   0x187, 0x2       	JBSET	PFLAG,2
00026c   a26e     goto    0x26e            	GOTO	_00188_DS_
00026d   a274     goto    0x274            	GOTO	_00170_DS_
                                           _00188_DS_
00026e   5817     movar   0x17             	MOVAR	r0x1010
00026f   3902     xorai   0x2              	XORAI	0x02
000270   e587     jbset   0x187, 0x2       	JBSET	PFLAG,2
000271   a273     goto    0x273            	GOTO	_00189_DS_
000272   a279     goto    0x279            	GOTO	_00171_DS_
                                           _00189_DS_
000273   a27d     goto    0x27d            	GOTO	_00173_DS_
                                           _00170_DS_
                                           ;	.line	121; "MC32F7361.c"	ADCHS3 = 1;
000274   cfb0     bset    0x1b0, 0x7       	BSET	_ADCR0bits,7
                                           ;	.line	122; "MC32F7361.c"	ADCHS2 = 0;
000275   ddb0     bclr    0x1b0, 0x6       	BCLR	_ADCR0bits,6
                                           ;	.line	123; "MC32F7361.c"	ADCHS1 = 1;
000276   cbb0     bset    0x1b0, 0x5       	BSET	_ADCR0bits,5
                                           ;	.line	124; "MC32F7361.c"	ADCHS0 = 0;
000277   d9b0     bclr    0x1b0, 0x4       	BCLR	_ADCR0bits,4
                                           ;	.line	125; "MC32F7361.c"	break;
000278   a27d     goto    0x27d            	GOTO	_00173_DS_
                                           _00171_DS_
                                           ;	.line	136; "MC32F7361.c"	ADCHS3 = 1;
000279   cfb0     bset    0x1b0, 0x7       	BSET	_ADCR0bits,7
                                           ;	.line	137; "MC32F7361.c"	ADCHS2 = 0;
00027a   ddb0     bclr    0x1b0, 0x6       	BCLR	_ADCR0bits,6
                                           ;	.line	138; "MC32F7361.c"	ADCHS1 = 0;
00027b   dbb0     bclr    0x1b0, 0x5       	BCLR	_ADCR0bits,5
                                           ;	.line	139; "MC32F7361.c"	ADCHS0 = 1;
00027c   c9b0     bset    0x1b0, 0x4       	BSET	_ADCR0bits,4
                                           _00173_DS_
                                           ;	.line	147; "MC32F7361.c"	delay_ms(1); // adc
00027d   3c01     movai   0x1              	MOVAI	0x01
00027e   5606     movra   0x6              	MOVRA	STK00
00027f   3c00     movai   0                	MOVAI	0x00
000280   830f     call    0x30f            	CALL	_delay_ms
                                           _00174_DS_
                                           ;	.line	148; "MC32F7361.c"	}
000281   000c     return                   	RETURN	
                                           ; exit point of _adc_sel_channel
                                           
                                           ;***
                                           ;  pBlock Stats: dbName = C
                                           ;***
                                           ;entry:  _timer3_config	;Function start
                                           ; 2 exit points
                                           ;has an exit
                                           ;; Starting pCode block
                                           _timer3_config	;Function start
                                           ; 2 exit points
                                           ;	.line	102; "MC32F7361.c"	T3LOAD = 135 - 1; // FCPU 641ms
000282   3c86     movai   0x86             	MOVAI	0x86
000283   57a6     movra   0x1a6            	MOVRA	_T3LOAD
                                           ;	.line	103; "MC32F7361.c"	T3CR = 0x86;      // FCPU64
000284   3c86     movai   0x86             	MOVAI	0x86
000285   57a4     movra   0x1a4            	MOVRA	_T3CR
                                           ;	.line	104; "MC32F7361.c"	T3IE = 1;
000286   cf8a     bset    0x18a, 0x7       	BSET	_INTEbits,7
                                           ;	.line	105; "MC32F7361.c"	}
000287   000c     return                   	RETURN	
                                           ; exit point of _timer3_config
                                           
                                           ;***
                                           ;  pBlock Stats: dbName = C
                                           ;***
                                           ;entry:  _timer0_pwm_config	;Function start
                                           ; 2 exit points
                                           ;has an exit
                                           ;; Starting pCode block
                                           _timer0_pwm_config	;Function start
                                           ; 2 exit points
                                           ;	.line	85; "MC32F7361.c"	T0CR = 0x49; // PWM,FTMR,2 (0.03125us)
000288   3c49     movai   0x49             	MOVAI	0x49
000289   5798     movra   0x198            	MOVRA	_T0CR
                                           ;	.line	88; "MC32F7361.c"	T0LOAD = (128 + 10) - 1; //
00028a   3c89     movai   0x89             	MOVAI	0x89
00028b   579a     movra   0x19a            	MOVRA	_T0LOAD
                                           ;	.line	89; "MC32F7361.c"	T0DATA = 23 + 10;
00028c   3c21     movai   0x21             	MOVAI	0x21
00028d   579b     movra   0x19b            	MOVRA	_T0DATA
                                           ;	.line	90; "MC32F7361.c"	PWMCR0 = 0x00; // 
00028e   77ac     clrr    0x1ac            	CLRR	_PWMCR0
                                           ;	.line	91; "MC32F7361.c"	PWMCR1 = 0x18; // FHOSC  2  
00028f   3c18     movai   0x18             	MOVAI	0x18
000290   57ad     movra   0x1ad            	MOVRA	_PWMCR1
                                           ;	.line	95; "MC32F7361.c"	T0EN = 0;   // 
000291   df98     bclr    0x198, 0x7       	BCLR	_T0CRbits,7
                                           ;	.line	96; "MC32F7361.c"	PWM0EC = 0; // PWM0
000292   dd98     bclr    0x198, 0x6       	BCLR	_T0CRbits,6
                                           ;	.line	97; "MC32F7361.c"	}
000293   000c     return                   	RETURN	
                                           ; exit point of _timer0_pwm_config
                                           
                                           ;***
                                           ;  pBlock Stats: dbName = C
                                           ;***
                                           ;entry:  _adc_config	;Function start
                                           ; 2 exit points
                                           ;has an exit
                                           ;; Starting pCode block
                                           _adc_config	;Function start
                                           ; 2 exit points
                                           ;	.line	72; "MC32F7361.c"	P15OE = 0; // 
000294   db95     bclr    0x195, 0x5       	BCLR	_OEP1bits,5
                                           ;	.line	73; "MC32F7361.c"	P15DC = 1; // 
000295   cbb7     bset    0x1b7, 0x5       	BSET	_P1ADCRbits,5
                                           ;	.line	76; "MC32F7361.c"	ADCR0 = 0x0B; // 12adc
000296   3c0b     movai   0xb              	MOVAI	0x0b
000297   57b0     movra   0x1b0            	MOVRA	_ADCR0
                                           ;	.line	77; "MC32F7361.c"	ADCR1 = 0x80; // adc FHIRC/322.0V
000298   3c80     movai   0x80             	MOVAI	0x80
000299   57b1     movra   0x1b1            	MOVRA	_ADCR1
                                           ;	.line	78; "MC32F7361.c"	ADCR2 = 0x0F; // 15  ADCLK
00029a   3c0f     movai   0xf              	MOVAI	0x0f
00029b   57b2     movra   0x1b2            	MOVRA	_ADCR2
                                           ;	.line	79; "MC32F7361.c"	}
00029c   000c     return                   	RETURN	
                                           ; exit point of _adc_config
                                           
                                           ;***
                                           ;  pBlock Stats: dbName = C
                                           ;***
                                           ;entry:  _IO_Init	;Function start
                                           ; 2 exit points
                                           ;has an exit
                                           ;; Starting pCode block
                                           _IO_Init	;Function start
                                           ; 2 exit points
                                           ;	.line	37; "MC32F7361.c"	IOP0 = 0x00;   // io
00029d   7790     clrr    0x190            	CLRR	_IOP0
                                           ;	.line	38; "MC32F7361.c"	OEP0 = 0x3F;   // io 1:out  0:in
00029e   3c3f     movai   0x3f             	MOVAI	0x3f
00029f   5791     movra   0x191            	MOVRA	_OEP0
                                           ;	.line	39; "MC32F7361.c"	PUP0 = 0x00;   // io   1:enable  0:disable
0002a0   7792     clrr    0x192            	CLRR	_PUP0
                                           ;	.line	40; "MC32F7361.c"	PDP0 = 0x00;   // io   1:enable  0:disable
0002a1   7793     clrr    0x193            	CLRR	_PDP0
                                           ;	.line	41; "MC32F7361.c"	P0ADCR = 0x00; // io  1:  0:io
0002a2   77b6     clrr    0x1b6            	CLRR	_P0ADCR
                                           ;	.line	43; "MC32F7361.c"	IOP1 = 0x00;   // io
0002a3   7794     clrr    0x194            	CLRR	_IOP1
                                           ;	.line	44; "MC32F7361.c"	OEP1 = 0xFF;   // io 1:out  0:in
0002a4   3cff     movai   0xff             	MOVAI	0xff
0002a5   5795     movra   0x195            	MOVRA	_OEP1
                                           ;	.line	45; "MC32F7361.c"	PUP1 = 0x00;   // io   1:enable  0:disable
0002a6   7796     clrr    0x196            	CLRR	_PUP1
                                           ;	.line	46; "MC32F7361.c"	PDP1 = 0x00;   // io   1:enable  0:disable
0002a7   7797     clrr    0x197            	CLRR	_PDP1
                                           ;	.line	47; "MC32F7361.c"	P1ADCR = 0x00; // io  1:  0:io
0002a8   77b7     clrr    0x1b7            	CLRR	_P1ADCR
                                           ;	.line	49; "MC32F7361.c"	IOP2 = 0x00; // io
0002a9   77b8     clrr    0x1b8            	CLRR	_IOP2
                                           ;	.line	50; "MC32F7361.c"	OEP2 = 0x0F; // io 1:out  0:in
0002aa   3c0f     movai   0xf              	MOVAI	0x0f
0002ab   57b9     movra   0x1b9            	MOVRA	_OEP2
                                           ;	.line	51; "MC32F7361.c"	PUP2 = 0x00; // io   1:enable  0:disable
0002ac   77ba     clrr    0x1ba            	CLRR	_PUP2
                                           ;	.line	52; "MC32F7361.c"	PDP2 = 0x00; // io   1:enable  0:disablea
0002ad   77bb     clrr    0x1bb            	CLRR	_PDP2
                                           ;	.line	54; "MC32F7361.c"	PMOD = 0x00;  // P00P01P13 io
0002ae   77bc     clrr    0x1bc            	CLRR	_PMOD
                                           ;	.line	55; "MC32F7361.c"	DRVCR = 0x80; // 
0002af   3c80     movai   0x80             	MOVAI	0x80
0002b0   578c     movra   0x18c            	MOVRA	_DRVCR
                                           ;	.line	56; "MC32F7361.c"	}
0002b1   000c     return                   	RETURN	
                                           ; exit point of _IO_Init
                                           
                                           ;***
                                           ;  pBlock Stats: dbName = C
                                           ;***
                                           ;entry:  _CLR_RAM	;Function start
                                           ; 2 exit points
                                           ;has an exit
                                           ;; Starting pCode block
                                           _CLR_RAM	;Function start
                                           ; 2 exit points
                                           ;	.line	22; "MC32F7361.c"	for (FSR0 = 0; FSR0 < 0xff; FSR0++)
0002b2   7784     clrr    0x184            	CLRR	_FSR0
                                           ;;unsigned compare: left < lit(0xFF=255), size=1
                                           _00147_DS_
0002b3   3cff     movai   0xff             	MOVAI	0xff
0002b4   4984     rsubar  0x184            	RSUBAR	_FSR0
0002b5   f187     jbclr   0x187, 0         	JBCLR	PFLAG,0
0002b6   a2ba     goto    0x2ba            	GOTO	_00145_DS_
                                           ;;genSkipc:3291: created from rifx:013B5EFC
                                           ;	.line	24; "MC32F7361.c"	INDF0 = 0x00;
0002b7   7780     clrr    0x180            	CLRR	_INDF0
                                           ;	.line	22; "MC32F7361.c"	for (FSR0 = 0; FSR0 < 0xff; FSR0++)
0002b8   6784     incr    0x184            	INCR	_FSR0
0002b9   a2b3     goto    0x2b3            	GOTO	_00147_DS_
                                           _00145_DS_
                                           ;	.line	26; "MC32F7361.c"	FSR0 = 0xFF;
0002ba   3cff     movai   0xff             	MOVAI	0xff
0002bb   5784     movra   0x184            	MOVRA	_FSR0
                                           ;	.line	27; "MC32F7361.c"	INDF0 = 0x00;
0002bc   7780     clrr    0x180            	CLRR	_INDF0
                                           ;	.line	28; "MC32F7361.c"	}
0002bd   000c     return                   	RETURN	
                                           ; exit point of _CLR_RAM
                                           
                                           ;***
                                           ;  pBlock Stats: dbName = C
                                           ;***
                                           ;entry:  _send_data_msb	;Function start
                                           ; 2 exit points
                                           ;has an exit
                                           ;functions called:
                                           ;   _delay_ms
                                           ;   _delay_ms
                                           ;   _delay_ms
                                           ;   _delay_ms
                                           ;   _delay_ms
                                           ;   _delay_ms
                                           ;   _delay_ms
                                           ;   _delay_ms
                                           ;   _delay_ms
                                           ;   _delay_ms
                                           ;   _delay_ms
                                           ;   _delay_ms
                                           ;   _delay_ms
                                           ;   _delay_ms
                                           ;   _delay_ms
                                           ;   _delay_ms
                                           ;13 compiler assigned registers:
                                           ;   r0x101F
                                           ;   STK00
                                           ;   r0x1020
                                           ;   STK01
                                           ;   r0x1021
                                           ;   STK02
                                           ;   r0x1022
                                           ;   r0x1023
                                           ;   r0x1024
                                           ;   r0x1025
                                           ;   r0x1026
                                           ;   r0x1027
                                           ;   r0x1028
                                           ;; Starting pCode block
                                           _send_data_msb	;Function start
                                           ; 2 exit points
                                           ;	.line	194; "user.h"	void send_data_msb(u32 send_data)
0002be   5610     movra   0x10             	MOVRA	r0x101F
0002bf   5806     movar   0x6              	MOVAR	STK00
0002c0   560f     movra   0xf              	MOVRA	r0x1020
0002c1   5805     movar   0x5              	MOVAR	STK01
0002c2   560e     movra   0xe              	MOVRA	r0x1021
0002c3   5804     movar   0x4              	MOVAR	STK02
0002c4   560d     movra   0xd              	MOVRA	r0x1022
                                           ;	.line	198; "user.h"	DEBUG_PIN = 1;
0002c5   c5b8     bset    0x1b8, 0x2       	BSET	_IOP2bits,2
                                           ;	.line	199; "user.h"	delay_ms(15);
0002c6   3c0f     movai   0xf              	MOVAI	0x0f
0002c7   5606     movra   0x6              	MOVRA	STK00
0002c8   3c00     movai   0                	MOVAI	0x00
0002c9   830f     call    0x30f            	CALL	_delay_ms
                                           ;	.line	201; "user.h"	DEBUG_PIN = 0;
0002ca   d5b8     bclr    0x1b8, 0x2       	BCLR	_IOP2bits,2
                                           ;	.line	202; "user.h"	delay_ms(7); //
0002cb   3c07     movai   0x7              	MOVAI	0x07
0002cc   5606     movra   0x6              	MOVRA	STK00
0002cd   3c00     movai   0                	MOVAI	0x00
0002ce   830f     call    0x30f            	CALL	_delay_ms
                                           ;	.line	204; "user.h"	for (u8 i = 0; i < 32; i++)
0002cf   7611     clrr    0x11             	CLRR	r0x1023
                                           ;;unsigned compare: left < lit(0x20=32), size=1
                                           _00121_DS_
0002d0   3c20     movai   0x20             	MOVAI	0x20
0002d1   4811     rsubar  0x11             	RSUBAR	r0x1023
0002d2   f187     jbclr   0x187, 0         	JBCLR	PFLAG,0
0002d3   a303     goto    0x303            	GOTO	_00119_DS_
                                           ;;genSkipc:3291: created from rifx:013B5EFC
                                           ;	.line	206; "user.h"	if ((send_data >> (32 - 1 - i)) & 0x01)
0002d4   5811     movar   0x11             	MOVAR	r0x1023
0002d5   3a1f     isubai  0x1f             	ISUBAI	0x1f
0002d6   5612     movra   0x12             	MOVRA	r0x1024
0002d7   5810     movar   0x10             	MOVAR	r0x101F
0002d8   5616     movra   0x16             	MOVRA	r0x1025
0002d9   580f     movar   0xf              	MOVAR	r0x1020
0002da   5615     movra   0x15             	MOVRA	r0x1026
0002db   580e     movar   0xe              	MOVAR	r0x1021
0002dc   5614     movra   0x14             	MOVRA	r0x1027
0002dd   580d     movar   0xd              	MOVAR	r0x1022
0002de   5613     movra   0x13             	MOVRA	r0x1028
0002df   5812     movar   0x12             	MOVAR	r0x1024
0002e0   3a00     isubai  0                	ISUBAI	0x00
0002e1   f587     jbclr   0x187, 0x2       	JBCLR	PFLAG,2
0002e2   a2ea     goto    0x2ea            	GOTO	_00140_DS_
                                           _00139_DS_
0002e3   4e16     rrr     0x16             	RRR	r0x1025
0002e4   4e15     rrr     0x15             	RRR	r0x1026
0002e5   4e14     rrr     0x14             	RRR	r0x1027
0002e6   4e13     rrr     0x13             	RRR	r0x1028
0002e7   3f01     addai   0x1              	ADDAI	0x01
0002e8   e187     jbset   0x187, 0         	JBSET	PFLAG,0
0002e9   a2e3     goto    0x2e3            	GOTO	_00139_DS_
                                           _00140_DS_
0002ea   e013     jbset   0x13, 0          	JBSET	r0x1028,0
0002eb   a2f7     goto    0x2f7            	GOTO	_00117_DS_
                                           ;	.line	210; "user.h"	DEBUG_PIN = 1;
0002ec   c5b8     bset    0x1b8, 0x2       	BSET	_IOP2bits,2
                                           ;	.line	211; "user.h"	delay_ms(5); //
0002ed   3c05     movai   0x5              	MOVAI	0x05
0002ee   5606     movra   0x6              	MOVRA	STK00
0002ef   3c00     movai   0                	MOVAI	0x00
0002f0   830f     call    0x30f            	CALL	_delay_ms
                                           ;	.line	213; "user.h"	DEBUG_PIN = 0;
0002f1   d5b8     bclr    0x1b8, 0x2       	BCLR	_IOP2bits,2
                                           ;	.line	214; "user.h"	delay_ms(10); //
0002f2   3c0a     movai   0xa              	MOVAI	0x0a
0002f3   5606     movra   0x6              	MOVRA	STK00
0002f4   3c00     movai   0                	MOVAI	0x00
0002f5   830f     call    0x30f            	CALL	_delay_ms
0002f6   a301     goto    0x301            	GOTO	_00122_DS_
                                           _00117_DS_
                                           ;	.line	220; "user.h"	DEBUG_PIN = 1;
0002f7   c5b8     bset    0x1b8, 0x2       	BSET	_IOP2bits,2
                                           ;	.line	221; "user.h"	delay_ms(5); //
0002f8   3c05     movai   0x5              	MOVAI	0x05
0002f9   5606     movra   0x6              	MOVRA	STK00
0002fa   3c00     movai   0                	MOVAI	0x00
0002fb   830f     call    0x30f            	CALL	_delay_ms
                                           ;	.line	223; "user.h"	DEBUG_PIN = 0;
0002fc   d5b8     bclr    0x1b8, 0x2       	BCLR	_IOP2bits,2
                                           ;	.line	224; "user.h"	delay_ms(5); //
0002fd   3c05     movai   0x5              	MOVAI	0x05
0002fe   5606     movra   0x6              	MOVRA	STK00
0002ff   3c00     movai   0                	MOVAI	0x00
000300   830f     call    0x30f            	CALL	_delay_ms
                                           _00122_DS_
                                           ;	.line	204; "user.h"	for (u8 i = 0; i < 32; i++)
000301   6611     incr    0x11             	INCR	r0x1023
000302   a2d0     goto    0x2d0            	GOTO	_00121_DS_
                                           _00119_DS_
                                           ;	.line	230; "user.h"	DEBUG_PIN = 0;
000303   d5b8     bclr    0x1b8, 0x2       	BCLR	_IOP2bits,2
                                           ;	.line	231; "user.h"	delay_ms(1);
000304   3c01     movai   0x1              	MOVAI	0x01
000305   5606     movra   0x6              	MOVRA	STK00
000306   3c00     movai   0                	MOVAI	0x00
000307   830f     call    0x30f            	CALL	_delay_ms
                                           ;	.line	232; "user.h"	DEBUG_PIN = 1;
000308   c5b8     bset    0x1b8, 0x2       	BSET	_IOP2bits,2
                                           ;	.line	233; "user.h"	delay_ms(1);
000309   3c01     movai   0x1              	MOVAI	0x01
00030a   5606     movra   0x6              	MOVRA	STK00
00030b   3c00     movai   0                	MOVAI	0x00
00030c   830f     call    0x30f            	CALL	_delay_ms
                                           ;	.line	234; "user.h"	DEBUG_PIN = 0;
00030d   d5b8     bclr    0x1b8, 0x2       	BCLR	_IOP2bits,2
                                           ;	.line	235; "user.h"	}
00030e   000c     return                   	RETURN	
                                           ; exit point of _send_data_msb
                                           
                                           ;***
                                           ;  pBlock Stats: dbName = C
                                           ;***
                                           ;entry:  _delay_ms	;Function start
                                           ; 2 exit points
                                           ;has an exit
                                           ;7 compiler assigned registers:
                                           ;   r0x100A
                                           ;   STK00
                                           ;   r0x100B
                                           ;   r0x100C
                                           ;   r0x100D
                                           ;   r0x100E
                                           ;   r0x100F
                                           ;; Starting pCode block
                                           _delay_ms	;Function start
                                           ; 2 exit points
                                           ;	.line	172; "user.h"	void delay_ms(u16 xms)
00030f   5608     movra   0x8              	MOVRA	r0x100A
000310   5806     movar   0x6              	MOVAR	STK00
000311   5607     movra   0x7              	MOVRA	r0x100B
                                           _00108_DS_
                                           ;	.line	174; "user.h"	while (xms)
000312   5807     movar   0x7              	MOVAR	r0x100B
000313   5c08     orar    0x8              	ORAR	r0x100A
000314   f587     jbclr   0x187, 0x2       	JBCLR	PFLAG,2
000315   a32e     goto    0x32e            	GOTO	_00111_DS_
                                           ;	.line	177; "user.h"	while (i--)
000316   3c3c     movai   0x3c             	MOVAI	0x3c
000317   5609     movra   0x9              	MOVRA	r0x100C
000318   3c02     movai   0x2              	MOVAI	0x02
000319   560a     movra   0xa              	MOVRA	r0x100D
                                           _00105_DS_
00031a   5809     movar   0x9              	MOVAR	r0x100C
00031b   560b     movra   0xb              	MOVRA	r0x100E
00031c   580a     movar   0xa              	MOVAR	r0x100D
00031d   560c     movra   0xc              	MOVRA	r0x100F
00031e   3cff     movai   0xff             	MOVAI	0xff
00031f   7e09     addra   0x9              	ADDRA	r0x100C
000320   e187     jbset   0x187, 0         	JBSET	PFLAG,0
000321   6e0a     decr    0xa              	DECR	r0x100D
000322   580b     movar   0xb              	MOVAR	r0x100E
000323   5c0c     orar    0xc              	ORAR	r0x100F
000324   f587     jbclr   0x187, 0x2       	JBCLR	PFLAG,2
000325   a328     goto    0x328            	GOTO	_00107_DS_
                                           ;	.line	179; "user.h"	Nop();
000326   0000     nop                      	nop	
000327   a31a     goto    0x31a            	GOTO	_00105_DS_
                                           _00107_DS_
                                           ;	.line	181; "user.h"	xms--; //  --while()
000328   3cff     movai   0xff             	MOVAI	0xff
000329   7e07     addra   0x7              	ADDRA	r0x100B
00032a   e187     jbset   0x187, 0         	JBSET	PFLAG,0
00032b   6e08     decr    0x8              	DECR	r0x100A
                                           ;	.line	185; "user.h"	__endasm;
                                           	;
00032c   000e     clrwdt                   	clrwdt;
                                           	
00032d   a312     goto    0x312            	GOTO	_00108_DS_
                                           _00111_DS_
                                           ;	.line	187; "user.h"	}
00032e   000c     return                   	RETURN	
                                           ; exit point of _delay_ms
                                           
                                           
                                           ;	code size estimation:
                                           ;	  797+    0 =   797 instructions ( 1594 byte)
                                           
                                           	end
                                           ;--------------------------------------------------------
                                           ; File Created by SN-SDCC : SinoMCU ANSI-C Compiler
                                           ; Version 2.0.0 (Dec 11 2019) (MINGW32)
                                           ; This file was generated Tue Jan 14 08:44:38 2025
                                           ;--------------------------------------------------------
                                           ; MC32 port for the RISC core
                                           ;--------------------------------------------------------
                                           ;	.file	"MC32F7361.c"
                                           	list	p=7361
                                           	radix dec
                                           	include "7361.inc"
                                           ;--------------------------------------------------------
                                           ; external declarations
                                           ;--------------------------------------------------------
                                           	extern	_INDF0bits
                                           	extern	_INDF1bits
                                           	extern	_INDF2bits
                                           	extern	_HIBYTEbits
                                           	extern	_FSR0bits
                                           	extern	_FSR1bits
                                           	extern	_PCLbits
                                           	extern	_PFLAGbits
                                           	extern	_MCRbits
                                           	extern	_INDF3bits
                                           	extern	_INTEbits
                                           	extern	_INTFbits
                                           	extern	_DRVCRbits
                                           	extern	_P0KBCRbits
                                           	extern	_P1KBCRbits
                                           	extern	_P2KBCRbits
                                           	extern	_IOP0bits
                                           	extern	_OEP0bits
                                           	extern	_PUP0bits
                                           	extern	_PDP0bits
                                           	extern	_IOP1bits
                                           	extern	_OEP1bits
                                           	extern	_PUP1bits
                                           	extern	_PDP1bits
                                           	extern	_T0CRbits
                                           	extern	_T0CNTbits
                                           	extern	_T0LOADbits
                                           	extern	_T0DATAbits
                                           	extern	_T1CRbits
                                           	extern	_T1CNTbits
                                           	extern	_T1LOADbits
                                           	extern	_T1DATAbits
                                           	extern	_T2CRbits
                                           	extern	_T2CNTbits
                                           	extern	_T2LOADbits
                                           	extern	_T2DATAbits
                                           	extern	_T3CRbits
                                           	extern	_T3CNTbits
                                           	extern	_T3LOADbits
                                           	extern	_PWM0DRbits
                                           	extern	_PWM1DRbits
                                           	extern	_PWM2DRbits
                                           	extern	_PWMCR0bits
                                           	extern	_PWMCR1bits
                                           	extern	_OSCMRbits
                                           	extern	_LVDCRbits
                                           	extern	_ADCR0bits
                                           	extern	_ADCR1bits
                                           	extern	_ADCR2bits
                                           	extern	_OSADJCRbits
                                           	extern	_ADRHbits
                                           	extern	_ADRLbits
                                           	extern	_P0ADCRbits
                                           	extern	_P1ADCRbits
                                           	extern	_IOP2bits
                                           	extern	_OEP2bits
                                           	extern	_PUP2bits
                                           	extern	_PDP2bits
                                           	extern	_PMODbits
                                           	extern	_PWMCR3bits
                                           	extern	_PWMCR2bits
                                           	extern	_PFRCCRbits
                                           	extern	_PFRCCALbits
                                           	extern	_EECRbits
                                           	extern	_EEPRbits
                                           	extern	_EEARbits
                                           	extern	_EEDRHbits
                                           	extern	_EEDRLbits
                                           	extern	_DBGCRbits
                                           	extern	_DBGPRbits
                                           	extern	_HIRCCALbits
                                           	extern	_INDF0
                                           	extern	_INDF1
                                           	extern	_INDF2
                                           	extern	_HIBYTE
                                           	extern	_FSR0
                                           	extern	_FSR1
                                           	extern	_PCL
                                           	extern	_PFLAG
                                           	extern	_MCR
                                           	extern	_INDF3
                                           	extern	_INTE
                                           	extern	_INTF
                                           	extern	_DRVCR
                                           	extern	_P0KBCR
                                           	extern	_P1KBCR
                                           	extern	_P2KBCR
                                           	extern	_IOP0
                                           	extern	_OEP0
                                           	extern	_PUP0
                                           	extern	_PDP0
                                           	extern	_IOP1
                                           	extern	_OEP1
                                           	extern	_PUP1
                                           	extern	_PDP1
                                           	extern	_T0CR
                                           	extern	_T0CNT
                                           	extern	_T0LOAD
                                           	extern	_T0DATA
                                           	extern	_T1CR
                                           	extern	_T1CNT
                                           	extern	_T1LOAD
                                           	extern	_T1DATA
                                           	extern	_T2CR
                                           	extern	_T2CNT
                                           	extern	_T2LOAD
                                           	extern	_T2DATA
                                           	extern	_T3CR
                                           	extern	_T3CNT
                                           	extern	_T3LOAD
                                           	extern	_PWM0DR
                                           	extern	_PWM1DR
                                           	extern	_PWM2DR
                                           	extern	_PWMCR0
                                           	extern	_PWMCR1
                                           	extern	_OSCMR
                                           	extern	_LVDCR
                                           	extern	_ADCR0
                                           	extern	_ADCR1
                                           	extern	_ADCR2
                                           	extern	_OSADJCR
                                           	extern	_ADRH
                                           	extern	_ADRL
                                           	extern	_P0ADCR
                                           	extern	_P1ADCR
                                           	extern	_IOP2
                                           	extern	_OEP2
                                           	extern	_PUP2
                                           	extern	_PDP2
                                           	extern	_PMOD
                                           	extern	_PWMCR3
                                           	extern	_PWMCR2
                                           	extern	_PFRCCR
                                           	extern	_PFRCCAL
                                           	extern	_EECR
                                           	extern	_EEPR
                                           	extern	_EEAR
                                           	extern	_EEDRH
                                           	extern	_EEDRL
                                           	extern	_DBGCR
                                           	extern	_DBGPR
                                           	extern	_HIRCCAL
                                           ;--------------------------------------------------------
                                           ; global declarations
                                           ;--------------------------------------------------------
                                           	global	_delay_ms
                                           	global	_send_data_msb
                                           	global	_CLR_RAM
                                           	global	_IO_Init
                                           	global	_adc_config
                                           	global	_timer0_pwm_config
                                           	global	_timer3_config
                                           	global	_adc_sel_channel
                                           	global	_adc_get_val
                                           	global	_adc_get_max_val
                                           	global	_adc_get_val_once
                                           	global	_key_event_handle
                                           	global	_Sys_Init
                                           	global	_is_in_charging
                                           	global	_is_open_lid
                                           	global	_is_detect_load
                                           	global	_main
                                           	global	_int_isr
                                           	global	_cur_dev_status
                                           	global	_abuf
                                           	global	_statusbuf
                                           	global	_i
                                           	global	_cnt
                                           	global	_ret_u8
                                           	global	_adc_val
                                           	global	_tmp_val
                                           	global	_flag1
                                           
                                           	global STK06
                                           	global STK05
                                           	global STK04
                                           	global STK03
                                           	global STK02
                                           	global STK01
                                           	global STK00
                                           
                                           sharebank udata_ovr 0x0000
                                           STK06	res 1
                                           STK05	res 1
                                           STK04	res 1
                                           STK03	res 1
                                           STK02	res 1
                                           STK01	res 1
                                           STK00	res 1
                                           
                                           ;--------------------------------------------------------
                                           ; global definitions
                                           ;--------------------------------------------------------
                                           UD_MC32F7361_0	udata
                                           _cur_dev_status	res	1
                                           
                                           UD_MC32F7361_1	udata
                                           _abuf	res	1
                                           
                                           UD_MC32F7361_2	udata
                                           _statusbuf	res	1
                                           
                                           UD_MC32F7361_3	udata
                                           _i	res	1
                                           
                                           UD_MC32F7361_4	udata
                                           _cnt	res	1
                                           
                                           UD_MC32F7361_5	udata
                                           _ret_u8	res	1
                                           
                                           UD_MC32F7361_6	udata
                                           _adc_val	res	2
                                           
                                           UD_MC32F7361_7	udata
                                           _tmp_val	res	2
                                           
                                           UD_MC32F7361_8	udata
                                           _flag1	res	1
                                           
                                           ;--------------------------------------------------------
                                           ; absolute symbol definitions
                                           ;--------------------------------------------------------
                                           ;--------------------------------------------------------
                                           ; compiler-defined variables
                                           ;--------------------------------------------------------
                                           UDL_MC32F7361_0	udata
                                           r0x100B	res	1
                                           r0x100A	res	1
                                           r0x100C	res	1
                                           r0x100D	res	1
                                           r0x100E	res	1
                                           r0x100F	res	1
                                           r0x1022	res	1
                                           r0x1021	res	1
                                           r0x1020	res	1
                                           r0x101F	res	1
                                           r0x1023	res	1
                                           r0x1024	res	1
                                           r0x1028	res	1
                                           r0x1027	res	1
                                           r0x1026	res	1
                                           r0x1025	res	1
                                           r0x1010	res	1
                                           r0x1011	res	1
                                           r0x1012	res	1
                                           r0x1013	res	1
                                           r0x1014	res	1
                                           r0x1016	res	1
                                           r0x1015	res	1
                                           r0x1017	res	1
                                           r0x1018	res	1
                                           r0x1019	res	1
                                           r0x101A	res	1
                                           r0x101C	res	1
                                           r0x101B	res	1
                                           r0x1029	res	1
                                           r0x102A	res	1
                                           _adc_sel_channel_last_adc_channel_65536_24	res	1
                                           _int_isr_blink_cnt_131072_133	res	2
                                           ;--------------------------------------------------------
                                           ; initialized data
                                           ;--------------------------------------------------------
                                           
                                           ;@Allocation info for local variables in function 'delay_ms'
                                           ;@delay_ms delay_ms                  Allocated to registers ;size:2
                                           ;@delay_ms INDF0bits                 Allocated to registers ;size:1
                                           ;@delay_ms INDF1bits                 Allocated to registers ;size:1
                                           ;@delay_ms INDF2bits                 Allocated to registers ;size:1
                                           ;@delay_ms HIBYTEbits                Allocated to registers ;size:1
                                           ;@delay_ms FSR0bits                  Allocated to registers ;size:1
                                           ;@delay_ms FSR1bits                  Allocated to registers ;size:1
                                           ;@delay_ms PCLbits                   Allocated to registers ;size:1
                                           ;@delay_ms PFLAGbits                 Allocated to registers ;size:1
                                           ;@delay_ms MCRbits                   Allocated to registers ;size:1
                                           ;@delay_ms INDF3bits                 Allocated to registers ;size:1
                                           ;@delay_ms INTEbits                  Allocated to registers ;size:1
                                           ;@delay_ms INTFbits                  Allocated to registers ;size:1
                                           ;@delay_ms DRVCRbits                 Allocated to registers ;size:1
                                           ;@delay_ms P0KBCRbits                Allocated to registers ;size:1
                                           ;@delay_ms P1KBCRbits                Allocated to registers ;size:1
                                           ;@delay_ms P2KBCRbits                Allocated to registers ;size:1
                                           ;@delay_ms IOP0bits                  Allocated to registers ;size:1
                                           ;@delay_ms OEP0bits                  Allocated to registers ;size:1
                                           ;@delay_ms PUP0bits                  Allocated to registers ;size:1
                                           ;@delay_ms PDP0bits                  Allocated to registers ;size:1
                                           ;@delay_ms IOP1bits                  Allocated to registers ;size:1
                                           ;@delay_ms OEP1bits                  Allocated to registers ;size:1
                                           ;@delay_ms PUP1bits                  Allocated to registers ;size:1
                                           ;@delay_ms PDP1bits                  Allocated to registers ;size:1
                                           ;@delay_ms T0CRbits                  Allocated to registers ;size:1
                                           ;@delay_ms T0CNTbits                 Allocated to registers ;size:1
                                           ;@delay_ms T0LOADbits                Allocated to registers ;size:1
                                           ;@delay_ms T0DATAbits                Allocated to registers ;size:1
                                           ;@delay_ms T1CRbits                  Allocated to registers ;size:1
                                           ;@delay_ms T1CNTbits                 Allocated to registers ;size:1
                                           ;@delay_ms T1LOADbits                Allocated to registers ;size:1
                                           ;@delay_ms T1DATAbits                Allocated to registers ;size:1
                                           ;@delay_ms T2CRbits                  Allocated to registers ;size:1
                                           ;@delay_ms T2CNTbits                 Allocated to registers ;size:1
                                           ;@delay_ms T2LOADbits                Allocated to registers ;size:1
                                           ;@delay_ms T2DATAbits                Allocated to registers ;size:1
                                           ;@delay_ms T3CRbits                  Allocated to registers ;size:1
                                           ;@delay_ms T3CNTbits                 Allocated to registers ;size:1
                                           ;@delay_ms T3LOADbits                Allocated to registers ;size:1
                                           ;@delay_ms PWM0DRbits                Allocated to registers ;size:1
                                           ;@delay_ms PWM1DRbits                Allocated to registers ;size:1
                                           ;@delay_ms PWM2DRbits                Allocated to registers ;size:1
                                           ;@delay_ms PWMCR0bits                Allocated to registers ;size:1
                                           ;@delay_ms PWMCR1bits                Allocated to registers ;size:1
                                           ;@delay_ms OSCMRbits                 Allocated to registers ;size:1
                                           ;@delay_ms LVDCRbits                 Allocated to registers ;size:1
                                           ;@delay_ms ADCR0bits                 Allocated to registers ;size:1
                                           ;@delay_ms ADCR1bits                 Allocated to registers ;size:1
                                           ;@delay_ms ADCR2bits                 Allocated to registers ;size:1
                                           ;@delay_ms OSADJCRbits               Allocated to registers ;size:1
                                           ;@delay_ms ADRHbits                  Allocated to registers ;size:1
                                           ;@delay_ms ADRLbits                  Allocated to registers ;size:1
                                           ;@delay_ms P0ADCRbits                Allocated to registers ;size:1
                                           ;@delay_ms P1ADCRbits                Allocated to registers ;size:1
                                           ;@delay_ms IOP2bits                  Allocated to registers ;size:1
                                           ;@delay_ms OEP2bits                  Allocated to registers ;size:1
                                           ;@delay_ms PUP2bits                  Allocated to registers ;size:1
                                           ;@delay_ms PDP2bits                  Allocated to registers ;size:1
                                           ;@delay_ms PMODbits                  Allocated to registers ;size:1
                                           ;@delay_ms PWMCR3bits                Allocated to registers ;size:1
                                           ;@delay_ms PWMCR2bits                Allocated to registers ;size:1
                                           ;@delay_ms PFRCCRbits                Allocated to registers ;size:1
                                           ;@delay_ms PFRCCALbits               Allocated to registers ;size:1
                                           ;@delay_ms EECRbits                  Allocated to registers ;size:1
                                           ;@delay_ms EEPRbits                  Allocated to registers ;size:1
                                           ;@delay_ms EEARbits                  Allocated to registers ;size:1
                                           ;@delay_ms EEDRHbits                 Allocated to registers ;size:1
                                           ;@delay_ms EEDRLbits                 Allocated to registers ;size:1
                                           ;@delay_ms DBGCRbits                 Allocated to registers ;size:1
                                           ;@delay_ms DBGPRbits                 Allocated to registers ;size:1
                                           ;@delay_ms HIRCCALbits               Allocated to registers ;size:1
                                           ;@delay_ms cur_dev_status            Allocated to registers ;size:1
                                           ;@delay_ms abuf                      Allocated to registers ;size:1
                                           ;@delay_ms statusbuf                 Allocated to registers ;size:1
                                           ;@delay_ms i                         Allocated to registers ;size:1
                                           ;@delay_ms cnt                       Allocated to registers ;size:1
                                           ;@delay_ms ret_u8                    Allocated to registers ;size:1
                                           ;@delay_ms adc_val                   Allocated to registers ;size:2
                                           ;@delay_ms tmp_val                   Allocated to registers ;size:2
                                           ;@delay_ms flag1                     Allocated to registers ;size:1
                                           ;@delay_ms xms                       Allocated to registers ;size:2
                                           ;@delay_ms i                         Allocated to registers r0x100C r0x100D ;size:2
                                           ;@delay_ms INDF0                     Allocated to registers ;size:1
                                           ;@delay_ms INDF1                     Allocated to registers ;size:1
                                           ;@delay_ms INDF2                     Allocated to registers ;size:1
                                           ;@delay_ms HIBYTE                    Allocated to registers ;size:1
                                           ;@delay_ms FSR0                      Allocated to registers ;size:1
                                           ;@delay_ms FSR1                      Allocated to registers ;size:1
                                           ;@delay_ms PCL                       Allocated to registers ;size:1
                                           ;@delay_ms PFLAG                     Allocated to registers ;size:1
                                           ;@delay_ms MCR                       Allocated to registers ;size:1
                                           ;@delay_ms INDF3                     Allocated to registers ;size:1
                                           ;@delay_ms INTE                      Allocated to registers ;size:1
                                           ;@delay_ms INTF                      Allocated to registers ;size:1
                                           ;@delay_ms DRVCR                     Allocated to registers ;size:1
                                           ;@delay_ms P0KBCR                    Allocated to registers ;size:1
                                           ;@delay_ms P1KBCR                    Allocated to registers ;size:1
                                           ;@delay_ms P2KBCR                    Allocated to registers ;size:1
                                           ;@delay_ms IOP0                      Allocated to registers ;size:1
                                           ;@delay_ms OEP0                      Allocated to registers ;size:1
                                           ;@delay_ms PUP0                      Allocated to registers ;size:1
                                           ;@delay_ms PDP0                      Allocated to registers ;size:1
                                           ;@delay_ms IOP1                      Allocated to registers ;size:1
                                           ;@delay_ms OEP1                      Allocated to registers ;size:1
                                           ;@delay_ms PUP1                      Allocated to registers ;size:1
                                           ;@delay_ms PDP1                      Allocated to registers ;size:1
                                           ;@delay_ms T0CR                      Allocated to registers ;size:1
                                           ;@delay_ms T0CNT                     Allocated to registers ;size:1
                                           ;@delay_ms T0LOAD                    Allocated to registers ;size:1
                                           ;@delay_ms T0DATA                    Allocated to registers ;size:1
                                           ;@delay_ms T1CR                      Allocated to registers ;size:1
                                           ;@delay_ms T1CNT                     Allocated to registers ;size:1
                                           ;@delay_ms T1LOAD                    Allocated to registers ;size:1
                                           ;@delay_ms T1DATA                    Allocated to registers ;size:1
                                           ;@delay_ms T2CR                      Allocated to registers ;size:1
                                           ;@delay_ms T2CNT                     Allocated to registers ;size:1
                                           ;@delay_ms T2LOAD                    Allocated to registers ;size:1
                                           ;@delay_ms T2DATA                    Allocated to registers ;size:1
                                           ;@delay_ms T3CR                      Allocated to registers ;size:1
                                           ;@delay_ms T3CNT                     Allocated to registers ;size:1
                                           ;@delay_ms T3LOAD                    Allocated to registers ;size:1
                                           ;@delay_ms PWM0DR                    Allocated to registers ;size:1
                                           ;@delay_ms PWM1DR                    Allocated to registers ;size:1
                                           ;@delay_ms PWM2DR                    Allocated to registers ;size:1
                                           ;@delay_ms PWMCR0                    Allocated to registers ;size:1
                                           ;@delay_ms PWMCR1                    Allocated to registers ;size:1
                                           ;@delay_ms OSCMR                     Allocated to registers ;size:1
                                           ;@delay_ms LVDCR                     Allocated to registers ;size:1
                                           ;@delay_ms ADCR0                     Allocated to registers ;size:1
                                           ;@delay_ms ADCR1                     Allocated to registers ;size:1
                                           ;@delay_ms ADCR2                     Allocated to registers ;size:1
                                           ;@delay_ms OSADJCR                   Allocated to registers ;size:1
                                           ;@delay_ms ADRH                      Allocated to registers ;size:1
                                           ;@delay_ms ADRL                      Allocated to registers ;size:1
                                           ;@delay_ms P0ADCR                    Allocated to registers ;size:1
                                           ;@delay_ms P1ADCR                    Allocated to registers ;size:1
                                           ;@delay_ms IOP2                      Allocated to registers ;size:1
                                           ;@delay_ms OEP2                      Allocated to registers ;size:1
                                           ;@delay_ms PUP2                      Allocated to registers ;size:1
                                           ;@delay_ms PDP2                      Allocated to registers ;size:1
                                           ;@delay_ms PMOD                      Allocated to registers ;size:1
                                           ;@delay_ms PWMCR3                    Allocated to registers ;size:1
                                           ;@delay_ms PWMCR2                    Allocated to registers ;size:1
                                           ;@delay_ms PFRCCR                    Allocated to registers ;size:1
                                           ;@delay_ms PFRCCAL                   Allocated to registers ;size:1
                                           ;@delay_ms EECR                      Allocated to registers ;size:1
                                           ;@delay_ms EEPR                      Allocated to registers ;size:1
                                           ;@delay_ms EEAR                      Allocated to registers ;size:1
                                           ;@delay_ms EEDRH                     Allocated to registers ;size:1
                                           ;@delay_ms EEDRL                     Allocated to registers ;size:1
                                           ;@delay_ms DBGCR                     Allocated to registers ;size:1
                                           ;@delay_ms DBGPR                     Allocated to registers ;size:1
                                           ;@delay_ms HIRCCAL                   Allocated to registers ;size:1
                                           ;@end Allocation info for local variables in function 'delay_ms';
                                           ;@Allocation info for local variables in function 'send_data_msb'
                                           ;@send_data_msb send_data                 Allocated to registers r0x1022 r0x1021 r0x1020 r0x101F ;size:4
                                           ;@send_data_msb i                         Allocated to registers r0x1023 ;size:1
                                           ;@end Allocation info for local variables in function 'send_data_msb';
                                           ;@Allocation info for local variables in function 'CLR_RAM'
                                           ;@end Allocation info for local variables in function 'CLR_RAM';
                                           ;@Allocation info for local variables in function 'IO_Init'
                                           ;@end Allocation info for local variables in function 'IO_Init';
                                           ;@Allocation info for local variables in function 'adc_config'
                                           ;@end Allocation info for local variables in function 'adc_config';
                                           ;@Allocation info for local variables in function 'timer0_pwm_config'
                                           ;@end Allocation info for local variables in function 'timer0_pwm_config';
                                           ;@Allocation info for local variables in function 'timer3_config'
                                           ;@end Allocation info for local variables in function 'timer3_config';
                                           ;@Allocation info for local variables in function 'adc_sel_channel'
                                           ;@adc_sel_channel adc_channel               Allocated to registers r0x1010 ;size:1
                                           ;@adc_sel_channel last_adc_channel          Allocated to registers ;size:1
                                           ;@end Allocation info for local variables in function 'adc_sel_channel';
                                           ;@Allocation info for local variables in function 'adc_sel_channel'
                                           ;@adc_sel_channel adc_channel               Allocated to registers r0x1010 ;size:1
                                           ;@adc_sel_channel last_adc_channel          Allocated to registers ;size:1
                                           ;@end Allocation info for local variables in function 'adc_sel_channel';
                                           ;@Allocation info for local variables in function 'adc_get_val'
                                           ;@adc_get_val i                         Allocated to registers r0x1012 ;size:1
                                           ;@adc_get_val g_temp_value              Allocated to registers r0x1013 r0x1014 ;size:2
                                           ;@adc_get_val g_tmpbuff                 Allocated to registers r0x100E r0x100F r0x1015 r0x1017 ;size:4
                                           ;@adc_get_val g_adcmax                  Allocated to registers r0x100E r0x100F ;size:2
                                           ;@adc_get_val g_adcmin                  Allocated to registers r0x1010 r0x1011 ;size:2
                                           ;@end Allocation info for local variables in function 'adc_get_val';
                                           ;@Allocation info for local variables in function 'adc_get_max_val'
                                           ;@adc_get_max_val i                         Allocated to registers r0x100C ;size:1
                                           ;@adc_get_max_val g_temp_value              Allocated to registers r0x100D r0x100E ;size:2
                                           ;@adc_get_max_val g_adcmax                  Allocated to registers r0x100A r0x100B ;size:2
                                           ;@end Allocation info for local variables in function 'adc_get_max_val';
                                           ;@Allocation info for local variables in function 'adc_get_val_once'
                                           ;@adc_get_val_once g_temp_value              Allocated to registers r0x101C r0x101B ;size:2
                                           ;@end Allocation info for local variables in function 'adc_get_val_once';
                                           ;@Allocation info for local variables in function 'key_event_handle'
                                           ;@end Allocation info for local variables in function 'key_event_handle';
                                           ;@Allocation info for local variables in function 'Sys_Init'
                                           ;@end Allocation info for local variables in function 'Sys_Init';
                                           ;@Allocation info for local variables in function 'is_in_charging'
                                           ;@is_in_charging ret                       Allocated to registers r0x1010 ;size:1
                                           ;@end Allocation info for local variables in function 'is_in_charging';
                                           ;@Allocation info for local variables in function 'is_open_lid'
                                           ;@is_open_lid ret                       Allocated to registers r0x1010 ;size:1
                                           ;@end Allocation info for local variables in function 'is_open_lid';
                                           ;@Allocation info for local variables in function 'is_detect_load'
                                           ;@is_detect_load max_adc_val               Allocated to registers r0x1013 r0x1014 ;size:2
                                           ;@end Allocation info for local variables in function 'is_detect_load';
                                           ;@Allocation info for local variables in function 'main'
                                           ;@end Allocation info for local variables in function 'main';
                                           ;@Allocation info for local variables in function 'int_isr'
                                           ;@int_isr blink_cnt                 Allocated to registers ;size:2
                                           ;@end Allocation info for local variables in function 'int_isr';
                                           ;@Allocation info for local variables in function 'int_isr'
                                           ;@int_isr blink_cnt                 Allocated to registers ;size:2
                                           ;@end Allocation info for local variables in function 'int_isr';
                                           
                                           ;--------------------------------------------------------
                                           ; overlayable items in internal ram 
                                           ;--------------------------------------------------------
                                           ;	udata_ovr
                                           ;--------------------------------------------------------
                                           ; reset vector 
                                           ;--------------------------------------------------------
                                           STARTUP	code 0x0000
                                           	goto	_main
                                           ;--------------------------------------------------------
                                           ; interrupt and initialization code
                                           ;--------------------------------------------------------
                                           c_interrupt	code	0x8
                                           __sdcc_interrupt
                                           ;***
                                           ;  pBlock Stats: dbName = I
                                           ;***
                                           ;entry:  _int_isr	;Function start
                                           ; 0 exit points
                                           ;2 compiler assigned registers:
                                           ;   r0x1029
                                           ;   r0x102A
                                           ;; Starting pCode block
                                           _int_isr	;Function start
                                           ; 0 exit points
                                           ;	.line	540; "MC32F7361.c"	__endasm;
                                           	;
                                           	movra	_abuf;
                                           	swapar	_PFLAG;
                                           	movra	_statusbuf;
                                           	
                                           ;	.line	542; "MC32F7361.c"	if (KBIF & KBIE)
                                           	CLRR	r0x1029
                                           	JBCLR	_INTFbits,4
                                           	INCR	r0x1029
                                           	CLRR	r0x102A
                                           	JBCLR	_INTEbits,4
                                           	INCR	r0x102A
                                           	MOVAR	r0x102A
                                           	ANDRA	r0x1029
                                           	MOVAI	0x00
                                           	ORAR	r0x1029
                                           	JBCLR	PFLAG,2
                                           	GOTO	_00545_DS_
                                           ;	.line	544; "MC32F7361.c"	KBIF = 0;
                                           	BCLR	_INTFbits,4
                                           _00545_DS_
                                           ;	.line	547; "MC32F7361.c"	if (T3IF & T3IE)
                                           	CLRR	r0x1029
                                           	JBCLR	_INTFbits,7
                                           	INCR	r0x1029
                                           	CLRR	r0x102A
                                           	JBCLR	_INTEbits,7
                                           	INCR	r0x102A
                                           	MOVAR	r0x102A
                                           	ANDRA	r0x1029
                                           	MOVAI	0x00
                                           	ORAR	r0x1029
                                           	JBCLR	PFLAG,2
                                           	GOTO	_00568_DS_
                                           ;	.line	551; "MC32F7361.c"	if (CUR_STATUS_IN_CHARGING == cur_dev_status && flag_is_low_bat)
                                           	MOVAR	_cur_dev_status
                                           	XORAI	0x02
                                           	JBSET	PFLAG,2
                                           	GOTO	_00560_DS_
                                           	JBSET	_flag1,4
                                           	GOTO	_00560_DS_
                                           ;;unsigned compare: left < lit(0xFFFF=65535), size=2
                                           ;	.line	553; "MC32F7361.c"	if (blink_cnt < 65535)
                                           	MOVAI	0xff
                                           	RSUBAR	(_int_isr_blink_cnt_131072_133 + 1)
                                           	JBSET	PFLAG,2
                                           	GOTO	_00599_DS_
                                           	MOVAI	0xff
                                           	RSUBAR	_int_isr_blink_cnt_131072_133
                                           _00599_DS_
                                           	JBCLR	PFLAG,0
                                           	GOTO	_00547_DS_
                                           ;;genSkipc:3291: created from rifx:013B5EFC
                                           ;	.line	554; "MC32F7361.c"	blink_cnt++;
                                           	INCR	_int_isr_blink_cnt_131072_133
                                           	JBCLR	PFLAG,2
                                           	INCR	(_int_isr_blink_cnt_131072_133 + 1)
                                           ;;swapping arguments (AOP_TYPEs 1/3)
                                           ;;unsigned compare: left >= lit(0x1F5=501), size=2
                                           _00547_DS_
                                           ;	.line	555; "MC32F7361.c"	if (blink_cnt <= 500)
                                           	MOVAI	0x01
                                           	RSUBAR	(_int_isr_blink_cnt_131072_133 + 1)
                                           	JBSET	PFLAG,2
                                           	GOTO	_00600_DS_
                                           	MOVAI	0xf5
                                           	RSUBAR	_int_isr_blink_cnt_131072_133
                                           _00600_DS_
                                           	JBCLR	PFLAG,0
                                           	GOTO	_00558_DS_
                                           ;;genSkipc:3291: created from rifx:013B5EFC
                                           ;	.line	557; "MC32F7361.c"	LED_RED_ON();
                                           	BSET	_IOP1bits,7
                                           	GOTO	_00565_DS_
                                           ;;swapping arguments (AOP_TYPEs 1/3)
                                           ;;unsigned compare: left >= lit(0x3E9=1001), size=2
                                           _00558_DS_
                                           ;	.line	559; "MC32F7361.c"	else if (blink_cnt <= 1000)
                                           	MOVAI	0x03
                                           	RSUBAR	(_int_isr_blink_cnt_131072_133 + 1)
                                           	JBSET	PFLAG,2
                                           	GOTO	_00601_DS_
                                           	MOVAI	0xe9
                                           	RSUBAR	_int_isr_blink_cnt_131072_133
                                           _00601_DS_
                                           	JBCLR	PFLAG,0
                                           	GOTO	_00555_DS_
                                           ;;genSkipc:3291: created from rifx:013B5EFC
                                           ;	.line	561; "MC32F7361.c"	LED_RED_OFF();
                                           	BCLR	_IOP1bits,7
                                           	GOTO	_00565_DS_
                                           _00555_DS_
                                           ;	.line	565; "MC32F7361.c"	blink_cnt = 0;
                                           	CLRR	_int_isr_blink_cnt_131072_133
                                           	CLRR	(_int_isr_blink_cnt_131072_133 + 1)
                                           	GOTO	_00565_DS_
                                           _00560_DS_
                                           ;	.line	570; "MC32F7361.c"	LED_RED_OFF();
                                           	BCLR	_IOP1bits,7
                                           ;	.line	571; "MC32F7361.c"	blink_cnt = 0;
                                           	CLRR	_int_isr_blink_cnt_131072_133
                                           	CLRR	(_int_isr_blink_cnt_131072_133 + 1)
                                           _00565_DS_
                                           ;	.line	574; "MC32F7361.c"	T3IF = 0;
                                           	BCLR	_INTFbits,7
                                           _00568_DS_
                                           ;	.line	582; "MC32F7361.c"	__endasm;
                                           	;
                                           	swapar	_statusbuf;
                                           	movra	_PFLAG;
                                           	swapr	_abuf;
                                           	swapar	_abuf;
                                           	
                                           END_OF_INTERRUPT
                                           ;	.line	583; "MC32F7361.c"	}
                                           	RETIE	
                                           
                                           ;--------------------------------------------------------
                                           ; code
                                           ;--------------------------------------------------------
                                           code_MC32F7361	code
                                           ;***
                                           ;  pBlock Stats: dbName = M
                                           ;***
                                           ;entry:  _main	;Function start
                                           ; 2 exit points
                                           ;has an exit
                                           ;functions called:
                                           ;   _Sys_Init
                                           ;   _delay_ms
                                           ;   _is_open_lid
                                           ;   _delay_ms
                                           ;   _is_detect_load
                                           ;   _is_in_charging
                                           ;   _is_detect_load
                                           ;   _is_open_lid
                                           ;   _adc_sel_channel
                                           ;   _adc_get_val
                                           ;   _is_in_charging
                                           ;   _adc_sel_channel
                                           ;   _adc_get_val
                                           ;   _is_in_charging
                                           ;   _is_in_charging
                                           ;   _Sys_Init
                                           ;   _delay_ms
                                           ;   _is_open_lid
                                           ;   _delay_ms
                                           ;   _is_detect_load
                                           ;   _is_in_charging
                                           ;   _is_detect_load
                                           ;   _is_open_lid
                                           ;   _adc_sel_channel
                                           ;   _adc_get_val
                                           ;   _is_in_charging
                                           ;   _adc_sel_channel
                                           ;   _adc_get_val
                                           ;   _is_in_charging
                                           ;   _is_in_charging
                                           ;1 compiler assigned register :
                                           ;   STK00
                                           ;; Starting pCode block
                                           _main	;Function start
                                           ; 2 exit points
                                           ;	.line	390; "MC32F7361.c"	Sys_Init();
                                           	CALL	_Sys_Init
                                           ;	.line	391; "MC32F7361.c"	delay_ms(10);
                                           	MOVAI	0x0a
                                           	MOVRA	STK00
                                           	MOVAI	0x00
                                           	CALL	_delay_ms
                                           _00474_DS_
                                           ;	.line	396; "MC32F7361.c"	if (CUR_STATUS_NONE == cur_dev_status)
                                           	MOVAI	0x00
                                           	ORAR	_cur_dev_status
                                           	JBSET	PFLAG,2
                                           	GOTO	_00471_DS_
                                           ;	.line	401; "MC32F7361.c"	ret_u8 = is_open_lid();
                                           	CALL	_is_open_lid
                                           	MOVRA	_ret_u8
                                           ;	.line	402; "MC32F7361.c"	if (0 == ret_u8)
                                           	MOVAI	0x00
                                           	ORAR	_ret_u8
                                           	JBSET	PFLAG,2
                                           	GOTO	_00399_DS_
                                           ;	.line	408; "MC32F7361.c"	PWM_ENABEL();
                                           	BSET	_T0CRbits,6
                                           	BSET	_T0CRbits,7
                                           ;	.line	410; "MC32F7361.c"	delay_ms(1);
                                           	MOVAI	0x01
                                           	MOVRA	STK00
                                           	MOVAI	0x00
                                           	CALL	_delay_ms
                                           ;	.line	411; "MC32F7361.c"	ret_u8 = is_detect_load();
                                           	CALL	_is_detect_load
                                           	MOVRA	_ret_u8
                                           ;	.line	412; "MC32F7361.c"	if (ret_u8)
                                           	MOVAI	0x00
                                           	ORAR	_ret_u8
                                           	JBCLR	PFLAG,2
                                           	GOTO	_00389_DS_
                                           ;	.line	415; "MC32F7361.c"	LED_GREEN_ON();
                                           	BSET	_IOP0bits,0
                                           ;	.line	416; "MC32F7361.c"	cur_dev_status = CUR_STATUS_IN_CHARGING;
                                           	MOVAI	0x02
                                           	MOVRA	_cur_dev_status
                                           	GOTO	_00399_DS_
                                           _00389_DS_
                                           ;	.line	421; "MC32F7361.c"	LED_GREEN_OFF();
                                           	BCLR	_IOP0bits,0
                                           ;	.line	422; "MC32F7361.c"	PWM_DISABEL(); // pwm
                                           	BCLR	_T0CRbits,6
                                           	BCLR	_T0CRbits,7
                                           _00399_DS_
                                           ;	.line	426; "MC32F7361.c"	ret_u8 = is_in_charging();
                                           	CALL	_is_in_charging
                                           	MOVRA	_ret_u8
                                           ;	.line	427; "MC32F7361.c"	if (ret_u8)
                                           	MOVAI	0x00
                                           	ORAR	_ret_u8
                                           	JBCLR	PFLAG,2
                                           	GOTO	_00474_DS_
                                           ;	.line	430; "MC32F7361.c"	LED_GREEN_OFF();
                                           	BCLR	_IOP0bits,0
                                           ;	.line	431; "MC32F7361.c"	PWM_DISABEL(); // pwm
                                           	BCLR	_T0CRbits,6
                                           	BCLR	_T0CRbits,7
                                           ;	.line	434; "MC32F7361.c"	LED_RED_ON();
                                           	BSET	_IOP1bits,7
                                           ;	.line	435; "MC32F7361.c"	cur_dev_status = CUR_STATUS_BE_CHARGING; //
                                           	MOVAI	0x01
                                           	MOVRA	_cur_dev_status
                                           	GOTO	_00474_DS_
                                           _00471_DS_
                                           ;	.line	438; "MC32F7361.c"	else if (CUR_STATUS_IN_CHARGING == cur_dev_status)
                                           	MOVAR	_cur_dev_status
                                           	XORAI	0x02
                                           	JBSET	PFLAG,2
                                           	GOTO	_00468_DS_
                                           ;	.line	446; "MC32F7361.c"	ret_u8 = is_detect_load();
                                           	CALL	_is_detect_load
                                           	MOVRA	_ret_u8
                                           ;	.line	447; "MC32F7361.c"	if (ret_u8)
                                           	MOVAI	0x00
                                           	ORAR	_ret_u8
                                           	JBCLR	PFLAG,2
                                           	GOTO	_00414_DS_
                                           ;	.line	450; "MC32F7361.c"	LED_GREEN_ON();
                                           	BSET	_IOP0bits,0
                                           	GOTO	_00422_DS_
                                           _00414_DS_
                                           ;	.line	455; "MC32F7361.c"	LED_GREEN_OFF();
                                           	BCLR	_IOP0bits,0
                                           ;	.line	456; "MC32F7361.c"	PWM_DISABEL(); // pwm
                                           	BCLR	_T0CRbits,6
                                           	BCLR	_T0CRbits,7
                                           ;	.line	457; "MC32F7361.c"	cur_dev_status = CUR_STATUS_NONE;
                                           	CLRR	_cur_dev_status
                                           _00422_DS_
                                           ;	.line	460; "MC32F7361.c"	ret_u8 = is_open_lid();
                                           	CALL	_is_open_lid
                                           	MOVRA	_ret_u8
                                           ;	.line	461; "MC32F7361.c"	if (ret_u8)
                                           	MOVAI	0x00
                                           	ORAR	_ret_u8
                                           	JBCLR	PFLAG,2
                                           	GOTO	_00430_DS_
                                           ;	.line	464; "MC32F7361.c"	LED_GREEN_OFF();
                                           	BCLR	_IOP0bits,0
                                           ;	.line	465; "MC32F7361.c"	PWM_DISABEL(); // pwm
                                           	BCLR	_T0CRbits,6
                                           	BCLR	_T0CRbits,7
                                           ;	.line	466; "MC32F7361.c"	cur_dev_status = CUR_STATUS_NONE;
                                           	CLRR	_cur_dev_status
                                           _00430_DS_
                                           ;	.line	469; "MC32F7361.c"	adc_sel_channel(ADC_CHANNEL_BAT);
                                           	MOVAI	0x01
                                           	CALL	_adc_sel_channel
                                           ;	.line	470; "MC32F7361.c"	adc_val = adc_get_val();
                                           	CALL	_adc_get_val
                                           	MOVRA	(_adc_val + 1)
                                           	MOVAR	STK00
                                           	MOVRA	_adc_val
                                           ;;unsigned compare: left < lit(0x5CD=1485), size=2
                                           ;	.line	471; "MC32F7361.c"	if (adc_val < 1485)
                                           	MOVAI	0x05
                                           	RSUBAR	(_adc_val + 1)
                                           	JBSET	PFLAG,2
                                           	GOTO	_00538_DS_
                                           	MOVAI	0xcd
                                           	RSUBAR	_adc_val
                                           _00538_DS_
                                           	JBCLR	PFLAG,0
                                           	GOTO	_00438_DS_
                                           ;;genSkipc:3291: created from rifx:013B5EFC
                                           ;	.line	475; "MC32F7361.c"	LED_GREEN_OFF();
                                           	BCLR	_IOP0bits,0
                                           ;	.line	476; "MC32F7361.c"	PWM_DISABEL(); // pwm
                                           	BCLR	_T0CRbits,6
                                           	BCLR	_T0CRbits,7
                                           ;	.line	477; "MC32F7361.c"	cur_dev_status = CUR_STATUS_NONE;
                                           	CLRR	_cur_dev_status
                                           _00438_DS_
                                           ;	.line	480; "MC32F7361.c"	ret_u8 = is_in_charging();
                                           	CALL	_is_in_charging
                                           	MOVRA	_ret_u8
                                           ;	.line	481; "MC32F7361.c"	if (ret_u8)
                                           	MOVAI	0x00
                                           	ORAR	_ret_u8
                                           	JBCLR	PFLAG,2
                                           	GOTO	_00474_DS_
                                           ;	.line	484; "MC32F7361.c"	LED_GREEN_OFF();
                                           	BCLR	_IOP0bits,0
                                           ;	.line	485; "MC32F7361.c"	PWM_DISABEL(); // pwm
                                           	BCLR	_T0CRbits,6
                                           	BCLR	_T0CRbits,7
                                           ;	.line	486; "MC32F7361.c"	LED_RED_ON();
                                           	BSET	_IOP1bits,7
                                           ;	.line	487; "MC32F7361.c"	cur_dev_status = CUR_STATUS_BE_CHARGING; //
                                           	MOVAI	0x01
                                           	MOVRA	_cur_dev_status
                                           	GOTO	_00474_DS_
                                           _00468_DS_
                                           ;	.line	490; "MC32F7361.c"	else if (CUR_STATUS_BE_CHARGING == cur_dev_status)
                                           	MOVAR	_cur_dev_status
                                           	XORAI	0x01
                                           	JBSET	PFLAG,2
                                           	GOTO	_00474_DS_
                                           ;	.line	493; "MC32F7361.c"	adc_sel_channel(ADC_CHANNEL_BAT);
                                           	MOVAI	0x01
                                           	CALL	_adc_sel_channel
                                           ;	.line	494; "MC32F7361.c"	adc_val = adc_get_val();
                                           	CALL	_adc_get_val
                                           	MOVRA	(_adc_val + 1)
                                           	MOVAR	STK00
                                           	MOVRA	_adc_val
                                           ;;unsigned compare: left < lit(0x84D=2125), size=2
                                           ;	.line	495; "MC32F7361.c"	if (adc_val >= 2125) // 4.15V
                                           	MOVAI	0x08
                                           	RSUBAR	(_adc_val + 1)
                                           	JBSET	PFLAG,2
                                           	GOTO	_00539_DS_
                                           	MOVAI	0x4d
                                           	RSUBAR	_adc_val
                                           _00539_DS_
                                           	JBSET	PFLAG,0
                                           	GOTO	_00459_DS_
                                           ;;genSkipc:3291: created from rifx:013B5EFC
                                           ;	.line	497; "MC32F7361.c"	LED_RED_OFF();
                                           	BCLR	_IOP1bits,7
                                           _00456_DS_
                                           ;	.line	502; "MC32F7361.c"	ret_u8 = is_in_charging();
                                           	CALL	_is_in_charging
                                           	MOVRA	_ret_u8
                                           ;	.line	503; "MC32F7361.c"	if (0 == ret_u8)
                                           	MOVAI	0x00
                                           	ORAR	_ret_u8
                                           	JBSET	PFLAG,2
                                           	GOTO	_00454_DS_
                                           ;	.line	505; "MC32F7361.c"	cur_dev_status = CUR_STATUS_NONE;
                                           	CLRR	_cur_dev_status
                                           ;	.line	506; "MC32F7361.c"	break;
                                           	GOTO	_00459_DS_
                                           _00454_DS_
                                           ;	.line	511; "MC32F7361.c"	__endasm;
                                           	;
                                           	clrwdt;
                                           	
                                           	GOTO	_00456_DS_
                                           _00459_DS_
                                           ;	.line	515; "MC32F7361.c"	ret_u8 = is_in_charging();
                                           	CALL	_is_in_charging
                                           	MOVRA	_ret_u8
                                           ;	.line	516; "MC32F7361.c"	if (0 == ret_u8)
                                           	MOVAI	0x00
                                           	ORAR	_ret_u8
                                           	JBSET	PFLAG,2
                                           	GOTO	_00474_DS_
                                           ;	.line	518; "MC32F7361.c"	LED_RED_OFF();
                                           	BCLR	_IOP1bits,7
                                           ;	.line	519; "MC32F7361.c"	cur_dev_status = CUR_STATUS_NONE; 
                                           	CLRR	_cur_dev_status
                                           	GOTO	_00474_DS_
                                           ;	.line	527; "MC32F7361.c"	}
                                           	RETURN	
                                           ; exit point of _main
                                           
                                           ;***
                                           ;  pBlock Stats: dbName = C
                                           ;***
                                           ;entry:  _is_detect_load	;Function start
                                           ; 2 exit points
                                           ;has an exit
                                           ;functions called:
                                           ;   _adc_sel_channel
                                           ;   _adc_get_max_val
                                           ;   _adc_sel_channel
                                           ;   _adc_get_max_val
                                           ;3 compiler assigned registers:
                                           ;   r0x1013
                                           ;   r0x1014
                                           ;   STK00
                                           ;; Starting pCode block
                                           _is_detect_load	;Function start
                                           ; 2 exit points
                                           ;	.line	359; "MC32F7361.c"	u16 max_adc_val = 0;
                                           	CLRR	r0x1013
                                           	CLRR	r0x1014
                                           ;	.line	360; "MC32F7361.c"	adc_sel_channel(ADC_CHANNEL_LOAD);
                                           	MOVAI	0x02
                                           	CALL	_adc_sel_channel
                                           ;	.line	361; "MC32F7361.c"	for (i = 0; i < 100; i++)
                                           	CLRR	_i
                                           ;;unsigned compare: left < lit(0x64=100), size=1
                                           _00356_DS_
                                           	MOVAI	0x64
                                           	RSUBAR	_i
                                           	JBCLR	PFLAG,0
                                           	GOTO	_00351_DS_
                                           ;;genSkipc:3291: created from rifx:013B5EFC
                                           ;	.line	363; "MC32F7361.c"	adc_val = adc_get_max_val();
                                           	CALL	_adc_get_max_val
                                           	MOVRA	(_adc_val + 1)
                                           	MOVAR	STK00
                                           	MOVRA	_adc_val
                                           ;	.line	364; "MC32F7361.c"	if (adc_val > max_adc_val)
                                           	MOVAR	(_adc_val + 1)
                                           	RSUBAR	r0x1014
                                           	JBSET	PFLAG,2
                                           	GOTO	_00377_DS_
                                           	MOVAR	_adc_val
                                           	RSUBAR	r0x1013
                                           _00377_DS_
                                           	JBCLR	PFLAG,0
                                           	GOTO	_00357_DS_
                                           ;;genSkipc:3291: created from rifx:013B5EFC
                                           ;	.line	366; "MC32F7361.c"	max_adc_val = adc_val;
                                           	MOVAR	_adc_val
                                           	MOVRA	r0x1013
                                           	MOVAR	(_adc_val + 1)
                                           	MOVRA	r0x1014
                                           _00357_DS_
                                           ;	.line	361; "MC32F7361.c"	for (i = 0; i < 100; i++)
                                           	INCR	_i
                                           	GOTO	_00356_DS_
                                           ;;swapping arguments (AOP_TYPEs 1/2)
                                           ;;unsigned compare: left >= lit(0xBB9=3001), size=2
                                           _00351_DS_
                                           ;	.line	370; "MC32F7361.c"	if (max_adc_val > 3000)
                                           	MOVAI	0x0b
                                           	RSUBAR	r0x1014
                                           	JBSET	PFLAG,2
                                           	GOTO	_00378_DS_
                                           	MOVAI	0xb9
                                           	RSUBAR	r0x1013
                                           _00378_DS_
                                           	JBSET	PFLAG,0
                                           	GOTO	_00353_DS_
                                           ;;genSkipc:3291: created from rifx:013B5EFC
                                           ;	.line	373; "MC32F7361.c"	return 0;
                                           	MOVAI	0x00
                                           	GOTO	_00358_DS_
                                           _00353_DS_
                                           ;	.line	378; "MC32F7361.c"	return 1;
                                           	MOVAI	0x01
                                           _00358_DS_
                                           ;	.line	380; "MC32F7361.c"	}
                                           	RETURN	
                                           ; exit point of _is_detect_load
                                           
                                           ;***
                                           ;  pBlock Stats: dbName = C
                                           ;***
                                           ;entry:  _is_open_lid	;Function start
                                           ; 2 exit points
                                           ;has an exit
                                           ;functions called:
                                           ;   _delay_ms
                                           ;   _delay_ms
                                           ;   _delay_ms
                                           ;   _delay_ms
                                           ;2 compiler assigned registers:
                                           ;   r0x1010
                                           ;   STK00
                                           ;; Starting pCode block
                                           _is_open_lid	;Function start
                                           ; 2 exit points
                                           ;	.line	313; "MC32F7361.c"	u8 ret = 0;
                                           	CLRR	r0x1010
                                           ;	.line	315; "MC32F7361.c"	if (P13D) // 
                                           	JBSET	_IOP1bits,3
                                           	GOTO	_00338_DS_
                                           ;	.line	317; "MC32F7361.c"	cnt = 0;
                                           	CLRR	_cnt
                                           ;	.line	318; "MC32F7361.c"	for (i = 0; i < 200; i++)
                                           	CLRR	_i
                                           ;;unsigned compare: left < lit(0xC8=200), size=1
                                           _00341_DS_
                                           	MOVAI	0xc8
                                           	RSUBAR	_i
                                           	JBCLR	PFLAG,0
                                           	GOTO	_00329_DS_
                                           ;;genSkipc:3291: created from rifx:013B5EFC
                                           ;	.line	320; "MC32F7361.c"	if (P13D)
                                           	JBSET	_IOP1bits,3
                                           	GOTO	_00328_DS_
                                           ;	.line	322; "MC32F7361.c"	cnt++;
                                           	INCR	_cnt
                                           _00328_DS_
                                           ;	.line	325; "MC32F7361.c"	delay_ms(1);
                                           	MOVAI	0x01
                                           	MOVRA	STK00
                                           	MOVAI	0x00
                                           	CALL	_delay_ms
                                           ;	.line	318; "MC32F7361.c"	for (i = 0; i < 200; i++)
                                           	INCR	_i
                                           	GOTO	_00341_DS_
                                           ;;unsigned compare: left < lit(0xC8=200), size=1
                                           _00329_DS_
                                           ;	.line	328; "MC32F7361.c"	if (cnt >= 200)
                                           	MOVAI	0xc8
                                           	RSUBAR	_cnt
                                           	JBSET	PFLAG,0
                                           	GOTO	_00339_DS_
                                           ;;genSkipc:3291: created from rifx:013B5EFC
                                           ;	.line	330; "MC32F7361.c"	ret = 1;
                                           	MOVAI	0x01
                                           	MOVRA	r0x1010
                                           	GOTO	_00339_DS_
                                           _00338_DS_
                                           ;	.line	335; "MC32F7361.c"	cnt = 0;
                                           	CLRR	_cnt
                                           ;	.line	336; "MC32F7361.c"	for (i = 0; i < 200; i++)
                                           	CLRR	_i
                                           ;;unsigned compare: left < lit(0xC8=200), size=1
                                           _00344_DS_
                                           	MOVAI	0xc8
                                           	RSUBAR	_i
                                           	JBCLR	PFLAG,0
                                           	GOTO	_00334_DS_
                                           ;;genSkipc:3291: created from rifx:013B5EFC
                                           ;	.line	338; "MC32F7361.c"	if (0 == P13D)
                                           	JBCLR	_IOP1bits,3
                                           	GOTO	_00333_DS_
                                           ;	.line	340; "MC32F7361.c"	cnt++;
                                           	INCR	_cnt
                                           _00333_DS_
                                           ;	.line	343; "MC32F7361.c"	delay_ms(1);
                                           	MOVAI	0x01
                                           	MOVRA	STK00
                                           	MOVAI	0x00
                                           	CALL	_delay_ms
                                           ;	.line	336; "MC32F7361.c"	for (i = 0; i < 200; i++)
                                           	INCR	_i
                                           	GOTO	_00344_DS_
                                           ;;unsigned compare: left < lit(0xC8=200), size=1
                                           _00334_DS_
                                           ;	.line	346; "MC32F7361.c"	if (cnt >= 200)
                                           	MOVAI	0xc8
                                           	RSUBAR	_cnt
                                           	JBSET	PFLAG,0
                                           	GOTO	_00339_DS_
                                           ;;genSkipc:3291: created from rifx:013B5EFC
                                           ;	.line	348; "MC32F7361.c"	ret = 0;
                                           	CLRR	r0x1010
                                           _00339_DS_
                                           ;	.line	352; "MC32F7361.c"	return ret;
                                           	MOVAR	r0x1010
                                           ;	.line	353; "MC32F7361.c"	}
                                           	RETURN	
                                           ; exit point of _is_open_lid
                                           
                                           ;***
                                           ;  pBlock Stats: dbName = C
                                           ;***
                                           ;entry:  _is_in_charging	;Function start
                                           ; 2 exit points
                                           ;has an exit
                                           ;functions called:
                                           ;   _delay_ms
                                           ;   _delay_ms
                                           ;   _delay_ms
                                           ;   _delay_ms
                                           ;2 compiler assigned registers:
                                           ;   r0x1010
                                           ;   STK00
                                           ;; Starting pCode block
                                           _is_in_charging	;Function start
                                           ; 2 exit points
                                           ;	.line	262; "MC32F7361.c"	u8 ret = 0;
                                           	CLRR	r0x1010
                                           ;	.line	269; "MC32F7361.c"	if (CHARGE_PIN)
                                           	JBSET	_IOP0bits,4
                                           	GOTO	_00316_DS_
                                           ;	.line	271; "MC32F7361.c"	cnt = 0;
                                           	CLRR	_cnt
                                           ;	.line	272; "MC32F7361.c"	for (i = 0; i < 200; i++)
                                           	CLRR	_i
                                           ;;unsigned compare: left < lit(0xC8=200), size=1
                                           _00319_DS_
                                           	MOVAI	0xc8
                                           	RSUBAR	_i
                                           	JBCLR	PFLAG,0
                                           	GOTO	_00307_DS_
                                           ;;genSkipc:3291: created from rifx:013B5EFC
                                           ;	.line	274; "MC32F7361.c"	if (CHARGE_PIN)
                                           	JBSET	_IOP0bits,4
                                           	GOTO	_00306_DS_
                                           ;	.line	276; "MC32F7361.c"	cnt++;
                                           	INCR	_cnt
                                           _00306_DS_
                                           ;	.line	279; "MC32F7361.c"	delay_ms(1);
                                           	MOVAI	0x01
                                           	MOVRA	STK00
                                           	MOVAI	0x00
                                           	CALL	_delay_ms
                                           ;	.line	272; "MC32F7361.c"	for (i = 0; i < 200; i++)
                                           	INCR	_i
                                           	GOTO	_00319_DS_
                                           ;;unsigned compare: left < lit(0xB4=180), size=1
                                           _00307_DS_
                                           ;	.line	282; "MC32F7361.c"	if (cnt >= 180)
                                           	MOVAI	0xb4
                                           	RSUBAR	_cnt
                                           	JBSET	PFLAG,0
                                           	GOTO	_00317_DS_
                                           ;;genSkipc:3291: created from rifx:013B5EFC
                                           ;	.line	285; "MC32F7361.c"	ret = 1;
                                           	MOVAI	0x01
                                           	MOVRA	r0x1010
                                           	GOTO	_00317_DS_
                                           _00316_DS_
                                           ;	.line	290; "MC32F7361.c"	cnt = 0;
                                           	CLRR	_cnt
                                           ;	.line	291; "MC32F7361.c"	for (i = 0; i < 200; i++)
                                           	CLRR	_i
                                           ;;unsigned compare: left < lit(0xC8=200), size=1
                                           _00322_DS_
                                           	MOVAI	0xc8
                                           	RSUBAR	_i
                                           	JBCLR	PFLAG,0
                                           	GOTO	_00312_DS_
                                           ;;genSkipc:3291: created from rifx:013B5EFC
                                           ;	.line	293; "MC32F7361.c"	if (0 == CHARGE_PIN)
                                           	JBCLR	_IOP0bits,4
                                           	GOTO	_00311_DS_
                                           ;	.line	295; "MC32F7361.c"	cnt++;
                                           	INCR	_cnt
                                           _00311_DS_
                                           ;	.line	298; "MC32F7361.c"	delay_ms(1);
                                           	MOVAI	0x01
                                           	MOVRA	STK00
                                           	MOVAI	0x00
                                           	CALL	_delay_ms
                                           ;	.line	291; "MC32F7361.c"	for (i = 0; i < 200; i++)
                                           	INCR	_i
                                           	GOTO	_00322_DS_
                                           ;;unsigned compare: left < lit(0xB4=180), size=1
                                           _00312_DS_
                                           ;	.line	301; "MC32F7361.c"	if (cnt >= 180)
                                           	MOVAI	0xb4
                                           	RSUBAR	_cnt
                                           	JBSET	PFLAG,0
                                           	GOTO	_00317_DS_
                                           ;;genSkipc:3291: created from rifx:013B5EFC
                                           ;	.line	304; "MC32F7361.c"	ret = 0;
                                           	CLRR	r0x1010
                                           _00317_DS_
                                           ;	.line	308; "MC32F7361.c"	return ret;
                                           	MOVAR	r0x1010
                                           ;	.line	309; "MC32F7361.c"	}
                                           	RETURN	
                                           ; exit point of _is_in_charging
                                           
                                           ;***
                                           ;  pBlock Stats: dbName = C
                                           ;***
                                           ;entry:  _Sys_Init	;Function start
                                           ; 2 exit points
                                           ;has an exit
                                           ;functions called:
                                           ;   _CLR_RAM
                                           ;   _IO_Init
                                           ;   _timer0_pwm_config
                                           ;   _adc_config
                                           ;   _CLR_RAM
                                           ;   _IO_Init
                                           ;   _timer0_pwm_config
                                           ;   _adc_config
                                           ;; Starting pCode block
                                           _Sys_Init	;Function start
                                           ; 2 exit points
                                           ;	.line	232; "MC32F7361.c"	GIE = 0;
                                           	BCLR	_MCRbits,7
                                           ;	.line	233; "MC32F7361.c"	CLR_RAM();
                                           	CALL	_CLR_RAM
                                           ;	.line	234; "MC32F7361.c"	IO_Init();
                                           	CALL	_IO_Init
                                           ;	.line	236; "MC32F7361.c"	timer0_pwm_config();
                                           	CALL	_timer0_pwm_config
                                           ;	.line	237; "MC32F7361.c"	adc_config();
                                           	CALL	_adc_config
                                           ;	.line	246; "MC32F7361.c"	P04OE = 0; // 
                                           	BCLR	_OEP0bits,4
                                           ;	.line	250; "MC32F7361.c"	P13PU = 0; // 
                                           	BCLR	_PUP1bits,3
                                           ;	.line	251; "MC32F7361.c"	P13OE = 0; // 
                                           	BCLR	_OEP1bits,3
                                           ;	.line	252; "MC32F7361.c"	P13KE = 1; // 
                                           	BSET	_P1KBCRbits,3
                                           ;	.line	254; "MC32F7361.c"	flag_is_enable_detect = 1;
                                           	BSET	_flag1,3
                                           ;	.line	256; "MC32F7361.c"	GIE = 1;
                                           	BSET	_MCRbits,7
                                           ;	.line	257; "MC32F7361.c"	}
                                           	RETURN	
                                           ; exit point of _Sys_Init
                                           
                                           ;***
                                           ;  pBlock Stats: dbName = C
                                           ;***
                                           ;entry:  _key_event_handle	;Function start
                                           ; 2 exit points
                                           ;has an exit
                                           ;; Starting pCode block
                                           _key_event_handle	;Function start
                                           ; 2 exit points
                                           ;	.line	222; "MC32F7361.c"	}
                                           	RETURN	
                                           ; exit point of _key_event_handle
                                           
                                           ;***
                                           ;  pBlock Stats: dbName = C
                                           ;***
                                           ;entry:  _adc_get_val_once	;Function start
                                           ; 2 exit points
                                           ;has an exit
                                           ;7 compiler assigned registers:
                                           ;   r0x1019
                                           ;   r0x101A
                                           ;   r0x101B
                                           ;   r0x101C
                                           ;   r0x101D
                                           ;   r0x101E
                                           ;   STK00
                                           ;; Starting pCode block
                                           _adc_get_val_once	;Function start
                                           ; 2 exit points
                                           ;	.line	209; "MC32F7361.c"	ADEOC = 0; // ADCAD
                                           	BCLR	_ADCR0bits,1
                                           _00292_DS_
                                           ;	.line	210; "MC32F7361.c"	while (!ADEOC)
                                           	JBSET	_ADCR0bits,1
                                           	GOTO	_00292_DS_
                                           ;	.line	212; "MC32F7361.c"	g_temp_value = ADRH; // 
                                           	MOVAR	_ADRH
                                           	MOVRA	r0x1019
                                           	CLRR	r0x101A
                                           ;	.line	213; "MC32F7361.c"	g_temp_value = g_temp_value << 4 | (ADRL & 0x0F);
                                           	SWAPAR	r0x101A
                                           	ANDAI	0xf0
                                           	MOVRA	r0x101B
                                           	SWAPAR	r0x1019
                                           	MOVRA	r0x101C
                                           	ANDAI	0x0f
                                           	ORRA	r0x101B
                                           	XORRA	r0x101C
                                           	MOVAR	_ADRL
                                           	MOVRA	r0x1019
                                           	CLRR	r0x101A
                                           	MOVAI	0x0f
                                           	ANDRA	r0x1019
                                           	CLRR	r0x101A
                                           ;;107	MOVAR	r0x1019
                                           ;;105	MOVRA	r0x101D
                                           ;;110	MOVAR	r0x101A
                                           ;;108	MOVRA	r0x101E
                                           ;;106	MOVAR	r0x101D
                                           	MOVAR	r0x1019
                                           	ORRA	r0x101C
                                           ;;109	MOVAR	r0x101E
                                           	MOVAI	0x00
                                           	ORRA	r0x101B
                                           ;	.line	214; "MC32F7361.c"	return g_temp_value;
                                           	MOVAR	r0x101C
                                           	MOVRA	STK00
                                           	MOVAR	r0x101B
                                           ;	.line	215; "MC32F7361.c"	}
                                           	RETURN	
                                           ; exit point of _adc_get_val_once
                                           
                                           ;***
                                           ;  pBlock Stats: dbName = C
                                           ;***
                                           ;entry:  _adc_get_max_val	;Function start
                                           ; 2 exit points
                                           ;has an exit
                                           ;10 compiler assigned registers:
                                           ;   r0x100A
                                           ;   r0x100B
                                           ;   r0x100C
                                           ;   r0x100D
                                           ;   r0x100E
                                           ;   r0x100F
                                           ;   r0x1010
                                           ;   r0x1011
                                           ;   r0x1012
                                           ;   STK00
                                           ;; Starting pCode block
                                           _adc_get_max_val	;Function start
                                           ; 2 exit points
                                           ;	.line	187; "MC32F7361.c"	u16 g_adcmax = 0;
                                           	CLRR	r0x100A
                                           	CLRR	r0x100B
                                           ;	.line	190; "MC32F7361.c"	for (i = 0; i < 40; i++)
                                           	CLRR	r0x100C
                                           _00257_DS_
                                           ;	.line	192; "MC32F7361.c"	ADEOC = 0; // ADCAD
                                           	BCLR	_ADCR0bits,1
                                           _00251_DS_
                                           ;	.line	193; "MC32F7361.c"	while (!ADEOC)
                                           	JBSET	_ADCR0bits,1
                                           	GOTO	_00251_DS_
                                           ;	.line	195; "MC32F7361.c"	g_temp_value = ADRH; // 
                                           	MOVAR	_ADRH
                                           	MOVRA	r0x100D
                                           	CLRR	r0x100E
                                           ;	.line	196; "MC32F7361.c"	g_temp_value = g_temp_value << 4 | (ADRL & 0x0F);
                                           	SWAPAR	r0x100E
                                           	ANDAI	0xf0
                                           	MOVRA	r0x100F
                                           	SWAPAR	r0x100D
                                           	MOVRA	r0x1010
                                           	ANDAI	0x0f
                                           	ORRA	r0x100F
                                           	XORRA	r0x1010
                                           	MOVAR	_ADRL
                                           	MOVRA	r0x100D
                                           	CLRR	r0x100E
                                           	MOVAI	0x0f
                                           	ANDRA	r0x100D
                                           	CLRR	r0x100E
                                           ;;101	MOVAR	r0x100D
                                           ;;99	MOVRA	r0x1011
                                           ;;104	MOVAR	r0x100E
                                           ;;102	MOVRA	r0x1012
                                           ;;100	MOVAR	r0x1011
                                           	MOVAR	r0x100D
                                           	ORAR	r0x1010
                                           	MOVRA	r0x100D
                                           ;;103	MOVAR	r0x1012
                                           	MOVAI	0x00
                                           	ORAR	r0x100F
                                           	MOVRA	r0x100E
                                           ;	.line	198; "MC32F7361.c"	if (g_temp_value > g_adcmax)
                                           	MOVAR	r0x100E
                                           	RSUBAR	r0x100B
                                           	JBSET	PFLAG,2
                                           	GOTO	_00287_DS_
                                           	MOVAR	r0x100D
                                           	RSUBAR	r0x100A
                                           _00287_DS_
                                           	JBCLR	PFLAG,0
                                           	GOTO	_00258_DS_
                                           ;;genSkipc:3291: created from rifx:013B5EFC
                                           ;	.line	199; "MC32F7361.c"	g_adcmax = g_temp_value; // 
                                           	MOVAR	r0x100D
                                           	MOVRA	r0x100A
                                           	MOVAR	r0x100E
                                           	MOVRA	r0x100B
                                           _00258_DS_
                                           ;	.line	190; "MC32F7361.c"	for (i = 0; i < 40; i++)
                                           	INCR	r0x100C
                                           ;;unsigned compare: left < lit(0x28=40), size=1
                                           	MOVAI	0x28
                                           	RSUBAR	r0x100C
                                           	JBSET	PFLAG,0
                                           	GOTO	_00257_DS_
                                           ;;genSkipc:3291: created from rifx:013B5EFC
                                           ;	.line	202; "MC32F7361.c"	return g_adcmax;
                                           	MOVAR	r0x100A
                                           	MOVRA	STK00
                                           	MOVAR	r0x100B
                                           ;	.line	203; "MC32F7361.c"	}
                                           	RETURN	
                                           ; exit point of _adc_get_max_val
                                           
                                           ;***
                                           ;  pBlock Stats: dbName = C
                                           ;***
                                           ;entry:  _adc_get_val	;Function start
                                           ; 2 exit points
                                           ;has an exit
                                           ;16 compiler assigned registers:
                                           ;   r0x100A
                                           ;   r0x100B
                                           ;   r0x100C
                                           ;   r0x100D
                                           ;   r0x100E
                                           ;   r0x100F
                                           ;   r0x1010
                                           ;   r0x1011
                                           ;   r0x1012
                                           ;   r0x1013
                                           ;   r0x1014
                                           ;   r0x1015
                                           ;   r0x1016
                                           ;   r0x1017
                                           ;   r0x1018
                                           ;   STK00
                                           ;; Starting pCode block
                                           _adc_get_val	;Function start
                                           ; 2 exit points
                                           ;	.line	155; "MC32F7361.c"	u32 g_tmpbuff = 0;
                                           	CLRR	r0x100A
                                           	CLRR	r0x100B
                                           	CLRR	r0x100C
                                           	CLRR	r0x100D
                                           ;	.line	156; "MC32F7361.c"	u16 g_adcmax = 0;
                                           	CLRR	r0x100E
                                           	CLRR	r0x100F
                                           ;	.line	157; "MC32F7361.c"	u16 g_adcmin = 0xFFFF;
                                           	MOVAI	0xff
                                           	MOVRA	r0x1010
                                           	MOVRA	r0x1011
                                           ;	.line	160; "MC32F7361.c"	for (i = 0; i < 20; i++)
                                           	CLRR	r0x1012
                                           _00205_DS_
                                           ;	.line	162; "MC32F7361.c"	ADEOC = 0; // ADCAD
                                           	BCLR	_ADCR0bits,1
                                           _00194_DS_
                                           ;	.line	163; "MC32F7361.c"	while (!ADEOC)
                                           	JBSET	_ADCR0bits,1
                                           	GOTO	_00194_DS_
                                           ;	.line	165; "MC32F7361.c"	g_temp_value = ADRH; // 
                                           	MOVAR	_ADRH
                                           	MOVRA	r0x1013
                                           	CLRR	r0x1014
                                           ;	.line	166; "MC32F7361.c"	g_temp_value = g_temp_value << 4 | (ADRL & 0x0F);
                                           	SWAPAR	r0x1014
                                           	ANDAI	0xf0
                                           	MOVRA	r0x1015
                                           	SWAPAR	r0x1013
                                           	MOVRA	r0x1016
                                           	ANDAI	0x0f
                                           	ORRA	r0x1015
                                           	XORRA	r0x1016
                                           	MOVAR	_ADRL
                                           	MOVRA	r0x1013
                                           	CLRR	r0x1014
                                           	MOVAI	0x0f
                                           	ANDRA	r0x1013
                                           	CLRR	r0x1014
                                           ;;126	MOVAR	r0x1013
                                           	MOVAI	0x00
                                           	MOVRA	r0x1018
                                           ;;125	MOVAR	r0x1017
                                           	MOVAR	r0x1013
                                           	MOVRA	r0x1017
                                           	ORAR	r0x1016
                                           	MOVRA	r0x1013
                                           	MOVAR	r0x1018
                                           	ORAR	r0x1015
                                           	MOVRA	r0x1014
                                           ;;unsigned compare: left < lit(0x2=2), size=1
                                           ;	.line	167; "MC32F7361.c"	if (i < 2)
                                           	MOVAI	0x02
                                           	RSUBAR	r0x1012
                                           	JBSET	PFLAG,0
                                           	GOTO	_00203_DS_
                                           ;;genSkipc:3291: created from rifx:013B5EFC
                                           ;	.line	169; "MC32F7361.c"	if (g_temp_value > g_adcmax)
                                           	MOVAR	r0x1014
                                           	RSUBAR	r0x100F
                                           	JBSET	PFLAG,2
                                           	GOTO	_00245_DS_
                                           	MOVAR	r0x1013
                                           	RSUBAR	r0x100E
                                           _00245_DS_
                                           	JBCLR	PFLAG,0
                                           	GOTO	_00200_DS_
                                           ;;genSkipc:3291: created from rifx:013B5EFC
                                           ;	.line	170; "MC32F7361.c"	g_adcmax = g_temp_value; // 
                                           	MOVAR	r0x1013
                                           	MOVRA	r0x100E
                                           	MOVAR	r0x1014
                                           	MOVRA	r0x100F
                                           _00200_DS_
                                           ;	.line	171; "MC32F7361.c"	if (g_temp_value < g_adcmin)
                                           	MOVAR	r0x1011
                                           	RSUBAR	r0x1014
                                           	JBSET	PFLAG,2
                                           	GOTO	_00246_DS_
                                           	MOVAR	r0x1010
                                           	RSUBAR	r0x1013
                                           _00246_DS_
                                           	JBCLR	PFLAG,0
                                           	GOTO	_00202_DS_
                                           ;;genSkipc:3291: created from rifx:013B5EFC
                                           ;	.line	172; "MC32F7361.c"	g_adcmin = g_temp_value; // 
                                           	MOVAR	r0x1013
                                           	MOVRA	r0x1010
                                           	MOVAR	r0x1014
                                           	MOVRA	r0x1011
                                           ;;122	MOVAR	r0x1013
                                           ;;124	MOVAR	r0x1014
                                           _00202_DS_
                                           ;	.line	173; "MC32F7361.c"	g_tmpbuff += g_temp_value;
                                           	CLRR	r0x1017
                                           	CLRR	r0x1018
                                           ;;121	MOVAR	r0x1016
                                           	MOVAR	r0x1013
                                           	MOVRA	r0x1016
                                           	ADDRA	r0x100A
                                           ;;123	MOVAR	r0x1015
                                           	MOVAR	r0x1014
                                           	MOVRA	r0x1015
                                           	JBCLR	PFLAG,0
                                           	JZAR	r0x1015
                                           	ADDRA	r0x100B
                                           	MOVAR	r0x1017
                                           	JBCLR	PFLAG,0
                                           	JZAR	r0x1017
                                           	ADDRA	r0x100C
                                           	MOVAR	r0x1018
                                           	JBCLR	PFLAG,0
                                           	JZAR	r0x1018
                                           	ADDRA	r0x100D
                                           _00203_DS_
                                           ;	.line	160; "MC32F7361.c"	for (i = 0; i < 20; i++)
                                           	INCR	r0x1012
                                           ;;unsigned compare: left < lit(0x14=20), size=1
                                           	MOVAI	0x14
                                           	RSUBAR	r0x1012
                                           	JBSET	PFLAG,0
                                           	GOTO	_00205_DS_
                                           ;;genSkipc:3291: created from rifx:013B5EFC
                                           ;;120	MOVAR	r0x100E
                                           ;	.line	175; "MC32F7361.c"	g_tmpbuff -= g_adcmax;           // 
                                           	MOVAR	r0x100F
                                           	MOVRA	r0x1013
                                           	CLRR	r0x1014
                                           	CLRR	r0x1016
                                           ;;119	MOVAR	r0x1012
                                           	MOVAR	r0x100E
                                           	MOVRA	r0x1012
                                           	RSUBAR	r0x100A
                                           	MOVRA	r0x100E
                                           	MOVAR	r0x100B
                                           	MOVRA	r0x100F
                                           	MOVAR	r0x1013
                                           	JBSET	PFLAG,0
                                           	JZAR	r0x1013
                                           	RSUBRA	r0x100F
                                           	MOVAR	r0x100C
                                           	MOVRA	r0x1015
                                           	MOVAR	r0x1014
                                           	JBSET	PFLAG,0
                                           	JZAR	r0x1014
                                           	RSUBRA	r0x1015
                                           	MOVAR	r0x1016
                                           	JBSET	PFLAG,0
                                           	INCAR	r0x1016
                                           	RSUBAR	r0x100D
                                           	MOVRA	r0x1017
                                           ;;112	MOVAR	r0x1010
                                           ;;114	MOVAR	r0x1011
                                           ;	.line	176; "MC32F7361.c"	g_tmpbuff -= g_adcmin;           // 
                                           	CLRR	r0x100C
                                           	CLRR	r0x100D
                                           ;;111	MOVAR	r0x100A
                                           	MOVAR	r0x1010
                                           	MOVRA	r0x100A
                                           	RSUBRA	r0x100E
                                           ;;113	MOVAR	r0x100B
                                           	MOVAR	r0x1011
                                           	MOVRA	r0x100B
                                           	JBSET	PFLAG,0
                                           	JZAR	r0x100B
                                           	RSUBRA	r0x100F
                                           	MOVAR	r0x100C
                                           	JBSET	PFLAG,0
                                           	JZAR	r0x100C
                                           	RSUBRA	r0x1015
                                           	MOVAR	r0x100D
                                           	JBSET	PFLAG,0
                                           	JZAR	r0x100D
                                           	RSUBRA	r0x1017
                                           ;	.line	177; "MC32F7361.c"	g_temp_value = (g_tmpbuff >> 4); // 16
                                           	SWAPAR	r0x100E
                                           	ANDAI	0x0f
                                           	MOVRA	r0x100A
                                           	SWAPAR	r0x100F
                                           	MOVRA	r0x100B
                                           	ANDAI	0xf0
                                           	ORRA	r0x100A
                                           	XORRA	r0x100B
                                           	SWAPAR	r0x1015
                                           	MOVRA	r0x100C
                                           	ANDAI	0xf0
                                           	ORRA	r0x100B
                                           	XORRA	r0x100C
                                           	SWAPAR	r0x1017
                                           	MOVRA	r0x100D
                                           	ANDAI	0xf0
                                           	ORRA	r0x100C
                                           	XORRA	r0x100D
                                           ;;116	MOVAR	r0x100A
                                           ;;118	MOVAR	r0x100B
                                           ;;115	MOVAR	r0x100E
                                           ;	.line	179; "MC32F7361.c"	return g_temp_value;
                                           	MOVAR	r0x100A
                                           	MOVRA	r0x100E
                                           	MOVRA	STK00
                                           ;;117	MOVAR	r0x100F
                                           	MOVAR	r0x100B
                                           	MOVRA	r0x100F
                                           ;	.line	180; "MC32F7361.c"	}
                                           	RETURN	
                                           ; exit point of _adc_get_val
                                           
                                           ;***
                                           ;  pBlock Stats: dbName = C
                                           ;***
                                           ;entry:  _adc_sel_channel	;Function start
                                           ; 2 exit points
                                           ;has an exit
                                           ;functions called:
                                           ;   _delay_ms
                                           ;   _delay_ms
                                           ;2 compiler assigned registers:
                                           ;   r0x1010
                                           ;   STK00
                                           ;; Starting pCode block
                                           _adc_sel_channel	;Function start
                                           ; 2 exit points
                                           ;	.line	107; "MC32F7361.c"	void adc_sel_channel(u8 adc_channel)
                                           	MOVRA	r0x1010
                                           ;	.line	111; "MC32F7361.c"	if (last_adc_channel == adc_channel)
                                           	MOVAR	r0x1010
                                           	XORAR	_adc_sel_channel_last_adc_channel_65536_24
                                           	JBSET	PFLAG,2
                                           	GOTO	_00169_DS_
                                           ;	.line	113; "MC32F7361.c"	return;
                                           	GOTO	_00174_DS_
                                           _00169_DS_
                                           ;	.line	116; "MC32F7361.c"	last_adc_channel = adc_channel;
                                           	MOVAR	r0x1010
                                           	MOVRA	_adc_sel_channel_last_adc_channel_65536_24
                                           ;	.line	118; "MC32F7361.c"	switch (adc_channel)
                                           	MOVAR	r0x1010
                                           	XORAI	0x01
                                           	JBSET	PFLAG,2
                                           	GOTO	_00188_DS_
                                           	GOTO	_00170_DS_
                                           _00188_DS_
                                           	MOVAR	r0x1010
                                           	XORAI	0x02
                                           	JBSET	PFLAG,2
                                           	GOTO	_00189_DS_
                                           	GOTO	_00171_DS_
                                           _00189_DS_
                                           	GOTO	_00173_DS_
                                           _00170_DS_
                                           ;	.line	121; "MC32F7361.c"	ADCHS3 = 1;
                                           	BSET	_ADCR0bits,7
                                           ;	.line	122; "MC32F7361.c"	ADCHS2 = 0;
                                           	BCLR	_ADCR0bits,6
                                           ;	.line	123; "MC32F7361.c"	ADCHS1 = 1;
                                           	BSET	_ADCR0bits,5
                                           ;	.line	124; "MC32F7361.c"	ADCHS0 = 0;
                                           	BCLR	_ADCR0bits,4
                                           ;	.line	125; "MC32F7361.c"	break;
                                           	GOTO	_00173_DS_
                                           _00171_DS_
                                           ;	.line	136; "MC32F7361.c"	ADCHS3 = 1;
                                           	BSET	_ADCR0bits,7
                                           ;	.line	137; "MC32F7361.c"	ADCHS2 = 0;
                                           	BCLR	_ADCR0bits,6
                                           ;	.line	138; "MC32F7361.c"	ADCHS1 = 0;
                                           	BCLR	_ADCR0bits,5
                                           ;	.line	139; "MC32F7361.c"	ADCHS0 = 1;
                                           	BSET	_ADCR0bits,4
                                           _00173_DS_
                                           ;	.line	147; "MC32F7361.c"	delay_ms(1); // adc
                                           	MOVAI	0x01
                                           	MOVRA	STK00
                                           	MOVAI	0x00
                                           	CALL	_delay_ms
                                           _00174_DS_
                                           ;	.line	148; "MC32F7361.c"	}
                                           	RETURN	
                                           ; exit point of _adc_sel_channel
                                           
                                           ;***
                                           ;  pBlock Stats: dbName = C
                                           ;***
                                           ;entry:  _timer3_config	;Function start
                                           ; 2 exit points
                                           ;has an exit
                                           ;; Starting pCode block
                                           _timer3_config	;Function start
                                           ; 2 exit points
                                           ;	.line	102; "MC32F7361.c"	T3LOAD = 135 - 1; // FCPU 641ms
                                           	MOVAI	0x86
                                           	MOVRA	_T3LOAD
                                           ;	.line	103; "MC32F7361.c"	T3CR = 0x86;      // FCPU64
                                           	MOVAI	0x86
                                           	MOVRA	_T3CR
                                           ;	.line	104; "MC32F7361.c"	T3IE = 1;
                                           	BSET	_INTEbits,7
                                           ;	.line	105; "MC32F7361.c"	}
                                           	RETURN	
                                           ; exit point of _timer3_config
                                           
                                           ;***
                                           ;  pBlock Stats: dbName = C
                                           ;***
                                           ;entry:  _timer0_pwm_config	;Function start
                                           ; 2 exit points
                                           ;has an exit
                                           ;; Starting pCode block
                                           _timer0_pwm_config	;Function start
                                           ; 2 exit points
                                           ;	.line	85; "MC32F7361.c"	T0CR = 0x49; // PWM,FTMR,2 (0.03125us)
                                           	MOVAI	0x49
                                           	MOVRA	_T0CR
                                           ;	.line	88; "MC32F7361.c"	T0LOAD = (128 + 10) - 1; //
                                           	MOVAI	0x89
                                           	MOVRA	_T0LOAD
                                           ;	.line	89; "MC32F7361.c"	T0DATA = 23 + 10;
                                           	MOVAI	0x21
                                           	MOVRA	_T0DATA
                                           ;	.line	90; "MC32F7361.c"	PWMCR0 = 0x00; // 
                                           	CLRR	_PWMCR0
                                           ;	.line	91; "MC32F7361.c"	PWMCR1 = 0x18; // FHOSC  2  
                                           	MOVAI	0x18
                                           	MOVRA	_PWMCR1
                                           ;	.line	95; "MC32F7361.c"	T0EN = 0;   // 
                                           	BCLR	_T0CRbits,7
                                           ;	.line	96; "MC32F7361.c"	PWM0EC = 0; // PWM0
                                           	BCLR	_T0CRbits,6
                                           ;	.line	97; "MC32F7361.c"	}
                                           	RETURN	
                                           ; exit point of _timer0_pwm_config
                                           
                                           ;***
                                           ;  pBlock Stats: dbName = C
                                           ;***
                                           ;entry:  _adc_config	;Function start
                                           ; 2 exit points
                                           ;has an exit
                                           ;; Starting pCode block
                                           _adc_config	;Function start
                                           ; 2 exit points
                                           ;	.line	72; "MC32F7361.c"	P15OE = 0; // 
                                           	BCLR	_OEP1bits,5
                                           ;	.line	73; "MC32F7361.c"	P15DC = 1; // 
                                           	BSET	_P1ADCRbits,5
                                           ;	.line	76; "MC32F7361.c"	ADCR0 = 0x0B; // 12adc
                                           	MOVAI	0x0b
                                           	MOVRA	_ADCR0
                                           ;	.line	77; "MC32F7361.c"	ADCR1 = 0x80; // adc FHIRC/322.0V
                                           	MOVAI	0x80
                                           	MOVRA	_ADCR1
                                           ;	.line	78; "MC32F7361.c"	ADCR2 = 0x0F; // 15  ADCLK
                                           	MOVAI	0x0f
                                           	MOVRA	_ADCR2
                                           ;	.line	79; "MC32F7361.c"	}
                                           	RETURN	
                                           ; exit point of _adc_config
                                           
                                           ;***
                                           ;  pBlock Stats: dbName = C
                                           ;***
                                           ;entry:  _IO_Init	;Function start
                                           ; 2 exit points
                                           ;has an exit
                                           ;; Starting pCode block
                                           _IO_Init	;Function start
                                           ; 2 exit points
                                           ;	.line	37; "MC32F7361.c"	IOP0 = 0x00;   // io
                                           	CLRR	_IOP0
                                           ;	.line	38; "MC32F7361.c"	OEP0 = 0x3F;   // io 1:out  0:in
                                           	MOVAI	0x3f
                                           	MOVRA	_OEP0
                                           ;	.line	39; "MC32F7361.c"	PUP0 = 0x00;   // io   1:enable  0:disable
                                           	CLRR	_PUP0
                                           ;	.line	40; "MC32F7361.c"	PDP0 = 0x00;   // io   1:enable  0:disable
                                           	CLRR	_PDP0
                                           ;	.line	41; "MC32F7361.c"	P0ADCR = 0x00; // io  1:  0:io
                                           	CLRR	_P0ADCR
                                           ;	.line	43; "MC32F7361.c"	IOP1 = 0x00;   // io
                                           	CLRR	_IOP1
                                           ;	.line	44; "MC32F7361.c"	OEP1 = 0xFF;   // io 1:out  0:in
                                           	MOVAI	0xff
                                           	MOVRA	_OEP1
                                           ;	.line	45; "MC32F7361.c"	PUP1 = 0x00;   // io   1:enable  0:disable
                                           	CLRR	_PUP1
                                           ;	.line	46; "MC32F7361.c"	PDP1 = 0x00;   // io   1:enable  0:disable
                                           	CLRR	_PDP1
                                           ;	.line	47; "MC32F7361.c"	P1ADCR = 0x00; // io  1:  0:io
                                           	CLRR	_P1ADCR
                                           ;	.line	49; "MC32F7361.c"	IOP2 = 0x00; // io
                                           	CLRR	_IOP2
                                           ;	.line	50; "MC32F7361.c"	OEP2 = 0x0F; // io 1:out  0:in
                                           	MOVAI	0x0f
                                           	MOVRA	_OEP2
                                           ;	.line	51; "MC32F7361.c"	PUP2 = 0x00; // io   1:enable  0:disable
                                           	CLRR	_PUP2
                                           ;	.line	52; "MC32F7361.c"	PDP2 = 0x00; // io   1:enable  0:disablea
                                           	CLRR	_PDP2
                                           ;	.line	54; "MC32F7361.c"	PMOD = 0x00;  // P00P01P13 io
                                           	CLRR	_PMOD
                                           ;	.line	55; "MC32F7361.c"	DRVCR = 0x80; // 
                                           	MOVAI	0x80
                                           	MOVRA	_DRVCR
                                           ;	.line	56; "MC32F7361.c"	}
                                           	RETURN	
                                           ; exit point of _IO_Init
                                           
                                           ;***
                                           ;  pBlock Stats: dbName = C
                                           ;***
                                           ;entry:  _CLR_RAM	;Function start
                                           ; 2 exit points
                                           ;has an exit
                                           ;; Starting pCode block
                                           _CLR_RAM	;Function start
                                           ; 2 exit points
                                           ;	.line	22; "MC32F7361.c"	for (FSR0 = 0; FSR0 < 0xff; FSR0++)
                                           	CLRR	_FSR0
                                           ;;unsigned compare: left < lit(0xFF=255), size=1
                                           _00147_DS_
                                           	MOVAI	0xff
                                           	RSUBAR	_FSR0
                                           	JBCLR	PFLAG,0
                                           	GOTO	_00145_DS_
                                           ;;genSkipc:3291: created from rifx:013B5EFC
                                           ;	.line	24; "MC32F7361.c"	INDF0 = 0x00;
                                           	CLRR	_INDF0
                                           ;	.line	22; "MC32F7361.c"	for (FSR0 = 0; FSR0 < 0xff; FSR0++)
                                           	INCR	_FSR0
                                           	GOTO	_00147_DS_
                                           _00145_DS_
                                           ;	.line	26; "MC32F7361.c"	FSR0 = 0xFF;
                                           	MOVAI	0xff
                                           	MOVRA	_FSR0
                                           ;	.line	27; "MC32F7361.c"	INDF0 = 0x00;
                                           	CLRR	_INDF0
                                           ;	.line	28; "MC32F7361.c"	}
                                           	RETURN	
                                           ; exit point of _CLR_RAM
                                           
                                           ;***
                                           ;  pBlock Stats: dbName = C
                                           ;***
                                           ;entry:  _send_data_msb	;Function start
                                           ; 2 exit points
                                           ;has an exit
                                           ;functions called:
                                           ;   _delay_ms
                                           ;   _delay_ms
                                           ;   _delay_ms
                                           ;   _delay_ms
                                           ;   _delay_ms
                                           ;   _delay_ms
                                           ;   _delay_ms
                                           ;   _delay_ms
                                           ;   _delay_ms
                                           ;   _delay_ms
                                           ;   _delay_ms
                                           ;   _delay_ms
                                           ;   _delay_ms
                                           ;   _delay_ms
                                           ;   _delay_ms
                                           ;   _delay_ms
                                           ;13 compiler assigned registers:
                                           ;   r0x101F
                                           ;   STK00
                                           ;   r0x1020
                                           ;   STK01
                                           ;   r0x1021
                                           ;   STK02
                                           ;   r0x1022
                                           ;   r0x1023
                                           ;   r0x1024
                                           ;   r0x1025
                                           ;   r0x1026
                                           ;   r0x1027
                                           ;   r0x1028
                                           ;; Starting pCode block
                                           _send_data_msb	;Function start
                                           ; 2 exit points
                                           ;	.line	194; "user.h"	void send_data_msb(u32 send_data)
                                           	MOVRA	r0x101F
                                           	MOVAR	STK00
                                           	MOVRA	r0x1020
                                           	MOVAR	STK01
                                           	MOVRA	r0x1021
                                           	MOVAR	STK02
                                           	MOVRA	r0x1022
                                           ;	.line	198; "user.h"	DEBUG_PIN = 1;
                                           	BSET	_IOP2bits,2
                                           ;	.line	199; "user.h"	delay_ms(15);
                                           	MOVAI	0x0f
                                           	MOVRA	STK00
                                           	MOVAI	0x00
                                           	CALL	_delay_ms
                                           ;	.line	201; "user.h"	DEBUG_PIN = 0;
                                           	BCLR	_IOP2bits,2
                                           ;	.line	202; "user.h"	delay_ms(7); //
                                           	MOVAI	0x07
                                           	MOVRA	STK00
                                           	MOVAI	0x00
                                           	CALL	_delay_ms
                                           ;	.line	204; "user.h"	for (u8 i = 0; i < 32; i++)
                                           	CLRR	r0x1023
                                           ;;unsigned compare: left < lit(0x20=32), size=1
                                           _00121_DS_
                                           	MOVAI	0x20
                                           	RSUBAR	r0x1023
                                           	JBCLR	PFLAG,0
                                           	GOTO	_00119_DS_
                                           ;;genSkipc:3291: created from rifx:013B5EFC
                                           ;	.line	206; "user.h"	if ((send_data >> (32 - 1 - i)) & 0x01)
                                           	MOVAR	r0x1023
                                           	ISUBAI	0x1f
                                           	MOVRA	r0x1024
                                           	MOVAR	r0x101F
                                           	MOVRA	r0x1025
                                           	MOVAR	r0x1020
                                           	MOVRA	r0x1026
                                           	MOVAR	r0x1021
                                           	MOVRA	r0x1027
                                           	MOVAR	r0x1022
                                           	MOVRA	r0x1028
                                           	MOVAR	r0x1024
                                           	ISUBAI	0x00
                                           	JBCLR	PFLAG,2
                                           	GOTO	_00140_DS_
                                           _00139_DS_
                                           	RRR	r0x1025
                                           	RRR	r0x1026
                                           	RRR	r0x1027
                                           	RRR	r0x1028
                                           	ADDAI	0x01
                                           	JBSET	PFLAG,0
                                           	GOTO	_00139_DS_
                                           _00140_DS_
                                           	JBSET	r0x1028,0
                                           	GOTO	_00117_DS_
                                           ;	.line	210; "user.h"	DEBUG_PIN = 1;
                                           	BSET	_IOP2bits,2
                                           ;	.line	211; "user.h"	delay_ms(5); //
                                           	MOVAI	0x05
                                           	MOVRA	STK00
                                           	MOVAI	0x00
                                           	CALL	_delay_ms
                                           ;	.line	213; "user.h"	DEBUG_PIN = 0;
                                           	BCLR	_IOP2bits,2
                                           ;	.line	214; "user.h"	delay_ms(10); //
                                           	MOVAI	0x0a
                                           	MOVRA	STK00
                                           	MOVAI	0x00
                                           	CALL	_delay_ms
                                           	GOTO	_00122_DS_
                                           _00117_DS_
                                           ;	.line	220; "user.h"	DEBUG_PIN = 1;
                                           	BSET	_IOP2bits,2
                                           ;	.line	221; "user.h"	delay_ms(5); //
                                           	MOVAI	0x05
                                           	MOVRA	STK00
                                           	MOVAI	0x00
                                           	CALL	_delay_ms
                                           ;	.line	223; "user.h"	DEBUG_PIN = 0;
                                           	BCLR	_IOP2bits,2
                                           ;	.line	224; "user.h"	delay_ms(5); //
                                           	MOVAI	0x05
                                           	MOVRA	STK00
                                           	MOVAI	0x00
                                           	CALL	_delay_ms
                                           _00122_DS_
                                           ;	.line	204; "user.h"	for (u8 i = 0; i < 32; i++)
                                           	INCR	r0x1023
                                           	GOTO	_00121_DS_
                                           _00119_DS_
                                           ;	.line	230; "user.h"	DEBUG_PIN = 0;
                                           	BCLR	_IOP2bits,2
                                           ;	.line	231; "user.h"	delay_ms(1);
                                           	MOVAI	0x01
                                           	MOVRA	STK00
                                           	MOVAI	0x00
                                           	CALL	_delay_ms
                                           ;	.line	232; "user.h"	DEBUG_PIN = 1;
                                           	BSET	_IOP2bits,2
                                           ;	.line	233; "user.h"	delay_ms(1);
                                           	MOVAI	0x01
                                           	MOVRA	STK00
                                           	MOVAI	0x00
                                           	CALL	_delay_ms
                                           ;	.line	234; "user.h"	DEBUG_PIN = 0;
                                           	BCLR	_IOP2bits,2
                                           ;	.line	235; "user.h"	}
                                           	RETURN	
                                           ; exit point of _send_data_msb
                                           
                                           ;***
                                           ;  pBlock Stats: dbName = C
                                           ;***
                                           ;entry:  _delay_ms	;Function start
                                           ; 2 exit points
                                           ;has an exit
                                           ;7 compiler assigned registers:
                                           ;   r0x100A
                                           ;   STK00
                                           ;   r0x100B
                                           ;   r0x100C
                                           ;   r0x100D
                                           ;   r0x100E
                                           ;   r0x100F
                                           ;; Starting pCode block
                                           _delay_ms	;Function start
                                           ; 2 exit points
                                           ;	.line	172; "user.h"	void delay_ms(u16 xms)
                                           	MOVRA	r0x100A
                                           	MOVAR	STK00
                                           	MOVRA	r0x100B
                                           _00108_DS_
                                           ;	.line	174; "user.h"	while (xms)
                                           	MOVAR	r0x100B
                                           	ORAR	r0x100A
                                           	JBCLR	PFLAG,2
                                           	GOTO	_00111_DS_
                                           ;	.line	177; "user.h"	while (i--)
                                           	MOVAI	0x3c
                                           	MOVRA	r0x100C
                                           	MOVAI	0x02
                                           	MOVRA	r0x100D
                                           _00105_DS_
                                           	MOVAR	r0x100C
                                           	MOVRA	r0x100E
                                           	MOVAR	r0x100D
                                           	MOVRA	r0x100F
                                           	MOVAI	0xff
                                           	ADDRA	r0x100C
                                           	JBSET	PFLAG,0
                                           	DECR	r0x100D
                                           	MOVAR	r0x100E
                                           	ORAR	r0x100F
                                           	JBCLR	PFLAG,2
                                           	GOTO	_00107_DS_
                                           ;	.line	179; "user.h"	Nop();
                                           	nop	
                                           	GOTO	_00105_DS_
                                           _00107_DS_
                                           ;	.line	181; "user.h"	xms--; //  --while()
                                           	MOVAI	0xff
                                           	ADDRA	r0x100B
                                           	JBSET	PFLAG,0
                                           	DECR	r0x100A
                                           ;	.line	185; "user.h"	__endasm;
                                           	;
                                           	clrwdt;
                                           	
                                           	GOTO	_00108_DS_
                                           _00111_DS_
                                           ;	.line	187; "user.h"	}
                                           	RETURN	
                                           ; exit point of _delay_ms
                                           
                                           
                                           ;	code size estimation:
                                           ;	  797+    0 =   797 instructions ( 1594 byte)
                                           
                                           	end


MEMORY USAGE MAP ('X' = Used,  '-' = Unused)

0000 : XX-------------- XXXXXXXXXXXXXXXX XXXXXXXXXXXXXXXX XXXXXXXXXXXXXXXX
0040 : XXXXXXXXXXXXXXXX XXXXXXXXXXXXXXXX XXXXXXXXXXXXXXXX XXXXXXXXXXXXXXXX
0080 : XXXXXXXXXXXXXXXX XXXXXXXXXXXXXXXX XXXXXXXXXXXXXXXX XXXXXXXXXXXXXXXX
00C0 : XXXXXXXXXXXXXXXX XXXXXXXXXXXXXXXX XXXXXXXXXXXXXXXX XXXXXXXXXXXXXXXX
0100 : XXXXXXXXXXXXXXXX XXXXXXXXXXXXXXXX XXXXXXXXXXXXXXXX XXXXXXXXXXXXXXXX
0140 : XXXXXXXXXXXXXXXX XXXXXXXXXXXXXXXX XXXXXXXXXXXXXXXX XXXXXXXXXXXXXXXX
0180 : XXXXXXXXXXXXXXXX XXXXXXXXXXXXXXXX XXXXXXXXXXXXXXXX XXXXXXXXXXXXXXXX
01C0 : XXXXXXXXXXXXXXXX XXXXXXXXXXXXXXXX XXXXXXXXXXXXXXXX XXXXXXXXXXXXXXXX
0200 : XXXXXXXXXXXXXXXX XXXXXXXXXXXXXXXX XXXXXXXXXXXXXXXX XXXXXXXXXXXXXXXX
0240 : XXXXXXXXXXXXXXXX XXXXXXXXXXXXXXXX XXXXXXXXXXXXXXXX XXXXXXXXXXXXXXXX
0280 : XXXXXXXXXXXXXXXX XXXXXXXXXXXXXXXX XXXXXXXXXXXXXXXX XXXXXXXXXXXXXXXX
02C0 : XXXXXXXXXXXXXXXX XXXXXXXXXXXXXXXX XXXXXXXXXXXXXXXX XXXXXXXXXXXXXXXX
0300 : XXXXXXXXXXXXXXXX XXXXXXXXXXXXXXXX XXXXXXXXXXXXXXXX XXXXXXXXXXXXXXXX
0340 : XXXXXXXXXXXXXXXX XXXXXXXXXXXXXXXX XXXXXXXXXXXXXXXX XXXXXXXXXXXXXXXX
0380 : XXXXXXXXXXXXXXXX XXXXXXXXXXXXXXXX XXXXXXXXXXXXXXXX XXXXXXXXXXXXXXXX
03C0 : XXXXXXXXXXXXXXXX XXXXXXXXXXXXXXXX XXXXXXXXXXXXXXXX XXXXXXXXXXXXXXXX
0400 : XXXXXXXXXXXXXXXX XXXXXXXXXXXXXXXX XXXXXXXXXXXXXXXX XXXXXXXXXXXXXXXX
0440 : XXXXXXXXXXXXXXXX XXXXXXXXXXXXXXXX XXXXXXXXXXXXXXXX XXXXXXXXXXXXXXXX
0480 : XXXXXXXXXXXXXXXX XXXXXXXXXXXXXXXX XXXXXXXXXXXXXXXX XXXXXXXXXXXXXXXX
04C0 : XXXXXXXXXXXXXXXX XXXXXXXXXXXXXXXX XXXXXXXXXXXXXXXX XXXXXXXXXXXXXXXX
0500 : XXXXXXXXXXXXXXXX XXXXXXXXXXXXXXXX XXXXXXXXXXXXXXXX XXXXXXXXXXXXXXXX
0540 : XXXXXXXXXXXXXXXX XXXXXXXXXXXXXXXX XXXXXXXXXXXXXXXX XXXXXXXXXXXXXXXX
0580 : XXXXXXXXXXXXXXXX XXXXXXXXXXXXXXXX XXXXXXXXXXXXXXXX XXXXXXXXXXXXXXXX
05C0 : XXXXXXXXXXXXXXXX XXXXXXXXXXXXXXXX XXXXXXXXXXXXXXXX XXXXXXXXXXXXXXXX
0600 : XXXXXXXXXXXXXXXX XXXXXXXXXXXXXXXX XXXXXXXXXXXXXXXX XXXXXXXXXXXXXXXX
0640 : XXXXXXXXXXXXXXXX XXXXXXXXXXXXXX-- ---------------- ----------------

All other memory blocks unused.

Program Memory Words Used:   808

